Component: ARM Compiler 5.06 update 6 (build 750) Tool: armlink [4d35ed]

==============================================================================

Section Cross References

    uart.o(.text) refers to sysctl.o(i.SysCtlClockFreqSet) for SysCtlClockFreqSet
    uart.o(.text) refers to sysctl.o(i.SysCtlPeripheralEnable) for SysCtlPeripheralEnable
    uart.o(.text) refers to sysctl.o(.emb_text) for SysCtlDelay
    uart.o(.text) refers to gpio.o(i.GPIOPinConfigure) for GPIOPinConfigure
    uart.o(.text) refers to gpio.o(i.GPIOPinTypeUART) for GPIOPinTypeUART
    uart.o(.text) refers to uart.o(i.UARTConfigSetExpClk) for UARTConfigSetExpClk
    uart.o(.text) refers to uart.o(i.UARTEnable) for UARTEnable
    uart.o(.text) refers to uart.o(.conststring) for .conststring
    uart.o(.text) refers to uart.o(.constdata) for g_ulUARTBase
    uart.o(.text) refers to uart.o(.data) for g_ulBase
    __thread.o(.text) refers to timer.o(i.TimerIntClear) for TimerIntClear
    __thread.o(.text) refers to sysctl.o(i.SysCtlPeripheralEnable) for SysCtlPeripheralEnable
    __thread.o(.text) refers to interrupt.o(i.IntMasterEnable) for IntMasterEnable
    __thread.o(.text) refers to timer.o(i.TimerConfigure) for TimerConfigure
    __thread.o(.text) refers to sysctl.o(i.SysCtlClockGet) for SysCtlClockGet
    __thread.o(.text) refers to timer.o(i.TimerLoadSet) for TimerLoadSet
    __thread.o(.text) refers to interrupt.o(i.IntEnable) for IntEnable
    __thread.o(.text) refers to timer.o(i.TimerIntEnable) for TimerIntEnable
    __thread.o(.text) refers to timer.o(i.TimerEnable) for TimerEnable
    __thread.o(.text) refers to llsdiv.o(.text) for __aeabi_ldivmod
    __thread.o(.text) refers to ffixll.o(x$fpl$llsfromf) for __aeabi_f2lz
    __thread.o(.text) refers to rt_cmsis.o(i.osSignalClear) for osSignalClear
    __thread.o(.text) refers to rt_cmsis.o(i.osMailAlloc) for osMailAlloc
    __thread.o(.text) refers to rt_cmsis.o(i.osMailPut) for osMailPut
    __thread.o(.text) refers to rt_cmsis.o(i.osSignalSet) for osSignalSet
    __thread.o(.text) refers to cfaf128x128x16.o(.text) for cfaf128x128x16Init
    __thread.o(.text) refers to uart.o(.text) for inicia_UART
    __thread.o(.text) refers to display.o(.text) for initScreen
    __thread.o(.text) refers to pwm.o(.text) for PWM_function_init
    __thread.o(.text) refers to led.o(.text) for led_init
    __thread.o(.text) refers to rt_cmsis.o(i.osThreadCreate) for osThreadCreate
    __thread.o(.text) refers to rt_cmsis.o(i.osMailCreate) for osMailCreate
    __thread.o(.text) refers to rt_cmsis.o(i.osSignalWait) for osSignalWait
    __thread.o(.text) refers to rt_cmsis.o(i.osMailCAlloc) for osMailCAlloc
    __thread.o(.text) refers to rt_cmsis.o(i.osMailGet) for osMailGet
    __thread.o(.text) refers to __thread.o(.data) for pAscii
    __thread.o(.text) refers to __thread.o(.constdata) for os_thread_def_Display
    __thread.o(.text) refers to f2d.o(x$fpl$f2d) for __aeabi_f2d
    __thread.o(.text) refers to dmul.o(x$fpl$dmul) for __aeabi_dmul
    __thread.o(.text) refers to dfix.o(x$fpl$dfix) for __aeabi_d2iz
    __thread.o(.text) refers to rt_cmsis.o(i.osMailFree) for osMailFree
    __thread.o(.text) refers to rt_cmsis.o(i.osTimerCreate) for osTimerCreate
    __thread.o(.text) refers to dflt_clz.o(x$fpl$dflt) for __aeabi_i2d
    __thread.o(.text) refers to dfixu.o(x$fpl$dfixu) for __aeabi_d2uiz
    __thread.o(.text) refers to rt_cmsis.o(i.osMessagePut) for osMessagePut
    __thread.o(.text) refers to rtx_conf_cm.o(.constdata) for os_tickfreq
    __thread.o(.text) refers to dflt_clz.o(x$fpl$dfltu) for __aeabi_ui2d
    __thread.o(.text) refers to sin.o(i.__hardfp_sin) for __hardfp_sin
    __thread.o(.text) refers to daddsub_clz.o(x$fpl$dadd) for __aeabi_dadd
    __thread.o(.text) refers to tan.o(i.__hardfp_tan) for __hardfp_tan
    __thread.o(.text) refers to ddiv.o(x$fpl$ddiv) for __aeabi_ddiv
    __thread.o(.text) refers to atan.o(i.__hardfp_atan) for __hardfp_atan
    __thread.o(.text) refers to d2f.o(x$fpl$d2f) for __aeabi_d2f
    __thread.o(.text) refers to asin.o(i.__hardfp_asin) for __hardfp_asin
    __thread.o(.text) refers to rt_cmsis.o(i.osKernelSysTick) for osKernelSysTick
    __thread.o(.text) refers to rt_cmsis.o(i.osMessageCreate) for osMessageCreate
    __thread.o(.text) refers to rt_cmsis.o(i.osMessageGet) for osMessageGet
    __thread.o(.text) refers to system_tm4c129.o(.text) for SystemInit
    __thread.o(.text) refers to rt_cmsis.o(i.osKernelInitialize) for osKernelInitialize
    __thread.o(.text) refers to rt_cmsis.o(i.osKernelStart) for osKernelStart
    __thread.o(.text) refers to rt_cmsis.o(i.osDelay) for osDelay
    __thread.o(.constdata) refers to __thread.o(.text) for timer_callback
    __thread.o(.constdata) refers to __thread.o(.bss) for os_timer_cb_Timer
    __thread.o(.constdata) refers to __thread.o(.data) for os_mailQ_p_MailQueue
    __thread.o(.data) refers to __thread.o(.bss) for os_mailQ_q_MailQueue
    __thread.o(.data) refers to __thread.o(.conststring) for .conststring
    pwm.o(.text) refers to pwm.o(i.PWMGenPeriodGet) for PWMGenPeriodGet
    pwm.o(.text) refers to pwm.o(i.PWMPulseWidthSet) for PWMPulseWidthSet
    pwm.o(.text) refers to pwm.o(i.PWMGenPeriodSet) for PWMGenPeriodSet
    pwm.o(.text) refers to sysctl.o(i.SysCtlPeripheralEnable) for SysCtlPeripheralEnable
    pwm.o(.text) refers to sysctl.o(i.SysCtlPeripheralReady) for SysCtlPeripheralReady
    pwm.o(.text) refers to gpio.o(i.GPIOPinTypePWM) for GPIOPinTypePWM
    pwm.o(.text) refers to gpio.o(i.GPIOPinConfigure) for GPIOPinConfigure
    pwm.o(.text) refers to pwm.o(i.PWMOutputInvert) for PWMOutputInvert
    pwm.o(.text) refers to pwm.o(i.PWMGenEnable) for PWMGenEnable
    pwm.o(.text) refers to pwm.o(.data) for g_current_state
    display.o(.text) refers to context.o(i.GrContextInit) for GrContextInit
    display.o(.text) refers to string.o(i.GrContextFontSet) for GrContextFontSet
    display.o(.text) refers to line.o(i.GrLineDrawH) for GrLineDrawH
    display.o(.text) refers to line.o(i.GrLineDrawV) for GrLineDrawV
    display.o(.text) refers to string.o(i.GrStringDraw) for GrStringDraw
    display.o(.text) refers to buzzer.o(.text) for buzzer_vol_set
    display.o(.text) refers to rt_cmsis.o(i.osDelay) for osDelay
    display.o(.text) refers to cfaf128x128x16.o(.constdata) for g_sCfaf128x128x16
    display.o(.text) refers to display.o(.bss) for sContext
    display.o(.text) refers to fontfixed6x8.o(.constdata) for g_sFontFixed6x8
    display.o(.text) refers to display.o(.data) for freq_antiga
    buzzer.o(.text) refers to pwm.o(i.PWMClockSet) for PWMClockSet
    buzzer.o(.text) refers to pwm.o(i.PWMOutputState) for PWMOutputState
    buzzer.o(.text) refers to pwm.o(i.PWMGenPeriodGet) for PWMGenPeriodGet
    buzzer.o(.text) refers to pwm.o(i.PWMPulseWidthSet) for PWMPulseWidthSet
    buzzer.o(.text) refers to pwm.o(i.PWMGenPeriodSet) for PWMGenPeriodSet
    buzzer.o(.text) refers to sysctl.o(i.SysCtlPeripheralEnable) for SysCtlPeripheralEnable
    buzzer.o(.text) refers to sysctl.o(i.SysCtlPeripheralReady) for SysCtlPeripheralReady
    buzzer.o(.text) refers to gpio.o(i.GPIOPinTypePWM) for GPIOPinTypePWM
    buzzer.o(.text) refers to gpio.o(i.GPIOPinConfigure) for GPIOPinConfigure
    buzzer.o(.text) refers to pwm.o(i.PWMGenConfigure) for PWMGenConfigure
    buzzer.o(.text) refers to pwm.o(i.PWMOutputInvert) for PWMOutputInvert
    buzzer.o(.text) refers to pwm.o(i.PWMGenEnable) for PWMGenEnable
    buzzer.o(.text) refers to buzzer.o(.data) for g_current_state
    buttons.o(.text) refers to sysctl.o(i.SysCtlPeripheralEnable) for SysCtlPeripheralEnable
    buttons.o(.text) refers to sysctl.o(i.SysCtlPeripheralReady) for SysCtlPeripheralReady
    buttons.o(.text) refers to gpio.o(i.GPIOPinTypeGPIOInput) for GPIOPinTypeGPIOInput
    buttons.o(.text) refers to gpio.o(i.GPIOPinRead) for GPIOPinRead
    led.o(.text) refers to led.o(.constdata) for led_mask
    opt.o(.text) refers to i2c.o(i.I2CMasterSlaveAddrSet) for I2CMasterSlaveAddrSet
    opt.o(.text) refers to i2c.o(i.I2CMasterDataPut) for I2CMasterDataPut
    opt.o(.text) refers to i2c.o(i.I2CMasterBusBusy) for I2CMasterBusBusy
    opt.o(.text) refers to sysctl.o(.emb_text) for SysCtlDelay
    opt.o(.text) refers to i2c.o(i.I2CMasterControl) for I2CMasterControl
    opt.o(.text) refers to i2c.o(i.I2CMasterBusy) for I2CMasterBusy
    opt.o(.text) refers to i2c.o(i.I2CMasterErr) for I2CMasterErr
    opt.o(.text) refers to i2c.o(i.I2CMasterDataGet) for I2CMasterDataGet
    opt.o(.text) refers to i2c.o(i.I2CMasterBurstLengthSet) for I2CMasterBurstLengthSet
    opt.o(.text) refers to opt.o(.data) for g_sentFlag
    opt.o(.text) refers to i2c.o(i.I2CMasterIntClearEx) for I2CMasterIntClearEx
    opt.o(.text) refers to i2c.o(i.I2CMasterIntClear) for I2CMasterIntClear
    opt.o(.text) refers to sysctl.o(i.SysCtlClockFreqSet) for SysCtlClockFreqSet
    opt.o(.text) refers to sysctl.o(i.SysCtlPeripheralEnable) for SysCtlPeripheralEnable
    opt.o(.text) refers to sysctl.o(i.SysCtlPeripheralReset) for SysCtlPeripheralReset
    opt.o(.text) refers to sysctl.o(i.SysCtlPeripheralReady) for SysCtlPeripheralReady
    opt.o(.text) refers to gpio.o(i.GPIOPinTypeGPIOInput) for GPIOPinTypeGPIOInput
    opt.o(.text) refers to gpio.o(i.GPIOPinConfigure) for GPIOPinConfigure
    opt.o(.text) refers to gpio.o(i.GPIOPinTypeI2CSCL) for GPIOPinTypeI2CSCL
    opt.o(.text) refers to gpio.o(i.GPIOPinTypeI2C) for GPIOPinTypeI2C
    opt.o(.text) refers to i2c.o(i.I2CMasterTimeoutSet) for I2CMasterTimeoutSet
    opt.o(.text) refers to i2c.o(i.I2CMasterGlitchFilterConfigSet) for I2CMasterGlitchFilterConfigSet
    opt.o(.text) refers to i2c.o(i.I2CMasterInitExpClk) for I2CMasterInitExpClk
    opt.o(.text) refers to i2c.o(i.I2CMasterIntEnableEx) for I2CMasterIntEnableEx
    opt.o(.text) refers to i2c.o(i.I2CIntRegister) for I2CIntRegister
    opt.o(.text) refers to interrupt.o(i.IntEnable) for IntEnable
    opt.o(.text) refers to i2c.o(i.I2CMasterEnable) for I2CMasterEnable
    rgb.o(.text) refers to pwm.o(i.PWMOutputState) for PWMOutputState
    rgb.o(.text) refers to pwm.o(i.PWMGenPeriodGet) for PWMGenPeriodGet
    rgb.o(.text) refers to pwm.o(i.PWMPulseWidthSet) for PWMPulseWidthSet
    rgb.o(.text) refers to sysctl.o(i.SysCtlClockFreqSet) for SysCtlClockFreqSet
    rgb.o(.text) refers to sysctl.o(i.SysCtlPeripheralEnable) for SysCtlPeripheralEnable
    rgb.o(.text) refers to sysctl.o(i.SysCtlPeripheralReady) for SysCtlPeripheralReady
    rgb.o(.text) refers to pwm.o(i.PWMGenDisable) for PWMGenDisable
    rgb.o(.text) refers to gpio.o(i.GPIOPinTypePWM) for GPIOPinTypePWM
    rgb.o(.text) refers to pwm.o(i.PWMClockSet) for PWMClockSet
    rgb.o(.text) refers to gpio.o(i.GPIOPinConfigure) for GPIOPinConfigure
    rgb.o(.text) refers to pwm.o(i.PWMGenConfigure) for PWMGenConfigure
    rgb.o(.text) refers to pwm.o(i.PWMGenPeriodSet) for PWMGenPeriodSet
    rgb.o(.text) refers to pwm.o(i.PWMGenEnable) for PWMGenEnable
    rgb.o(.text) refers to rgb.o(.data) for enabled
    servo.o(.text) refers to timer.o(i.TimerMatchSet) for TimerMatchSet
    servo.o(.text) refers to sysctl.o(i.SysCtlClockFreqSet) for SysCtlClockFreqSet
    servo.o(.text) refers to sysctl.o(i.SysCtlPeripheralEnable) for SysCtlPeripheralEnable
    servo.o(.text) refers to sysctl.o(i.SysCtlPeripheralReady) for SysCtlPeripheralReady
    servo.o(.text) refers to gpio.o(i.GPIOPinConfigure) for GPIOPinConfigure
    servo.o(.text) refers to gpio.o(i.GPIOPinTypeTimer) for GPIOPinTypeTimer
    servo.o(.text) refers to timer.o(i.TimerClockSourceSet) for TimerClockSourceSet
    servo.o(.text) refers to timer.o(i.TimerConfigure) for TimerConfigure
    servo.o(.text) refers to timer.o(i.TimerControlLevel) for TimerControlLevel
    servo.o(.text) refers to timer.o(i.TimerUpdateMode) for TimerUpdateMode
    servo.o(.text) refers to timer.o(i.TimerPrescaleSet) for TimerPrescaleSet
    servo.o(.text) refers to timer.o(i.TimerLoadSet) for TimerLoadSet
    servo.o(.text) refers to timer.o(i.TimerEnable) for TimerEnable
    servo.o(.text) refers to servo.o(.data) for g_ui16perMin
    cfaf128x128x16.o(.text) refers to cfaf128x128x16.o(.data) for _orientation
    cfaf128x128x16.o(.text) refers to sysctl.o(i.SysCtlClockFreqSet) for SysCtlClockFreqSet
    cfaf128x128x16.o(.constdata) refers to cfaf128x128x16.o(.text) for cfaf128x128x16PixelDraw
    rtx_conf_cm.o(.emb_text) refers to rt_cmsis.o(i.osKernelInitialize) for osKernelInitialize
    rtx_conf_cm.o(.emb_text) refers to rt_cmsis.o(i.osThreadCreate) for osThreadCreate
    rtx_conf_cm.o(.emb_text) refers to rt_cmsis.o(i.osKernelStart) for osKernelStart
    rtx_conf_cm.o(.emb_text) refers to exit.o(.text) for exit
    rtx_conf_cm.o(.emb_text) refers to rtx_conf_cm.o(.constdata) for os_thread_def_main
    rtx_conf_cm.o(.text) refers to rt_task.o(i.rt_tsk_self) for rt_tsk_self
    rtx_conf_cm.o(.text) refers to rt_mutex.o(i.rt_mut_init) for rt_mut_init
    rtx_conf_cm.o(.text) refers to rt_cmsis.o(.data) for os_running
    rtx_conf_cm.o(.text) refers to rtx_conf_cm.o(.bss) for .bss
    rtx_conf_cm.o(.text) refers to libspace.o(.bss) for __libspace_start
    rtx_conf_cm.o(.text) refers to rtx_conf_cm.o(.data) for .data
    rtx_conf_cm.o(.text) refers to rt_mutex.o(i.rt_mut_wait) for rt_mut_wait
    rtx_conf_cm.o(.text) refers to rt_mutex.o(i.rt_mut_release) for rt_mut_release
    rtx_conf_cm.o(.constdata) refers to rt_cmsis.o(i.osTimerThread) for osTimerThread
    rtx_conf_cm.o(.constdata) refers to rtx_conf_cm.o(.bss) for os_messageQ_q_osTimerMessageQ
    rtx_conf_cm.o(.constdata) refers to __thread.o(.text) for main
    startup_tm4c129.o(STACK) refers (Special) to heapauxi.o(.text) for __use_two_region_memory
    startup_tm4c129.o(HEAP) refers (Special) to heapauxi.o(.text) for __use_two_region_memory
    startup_tm4c129.o(RESET) refers (Special) to heapauxi.o(.text) for __use_two_region_memory
    startup_tm4c129.o(RESET) refers to startup_tm4c129.o(STACK) for __initial_sp
    startup_tm4c129.o(RESET) refers to startup_tm4c129.o(.text) for Reset_Handler
    startup_tm4c129.o(RESET) refers to hal_cm4.o(.emb_text) for SVC_Handler
    startup_tm4c129.o(RESET) refers to __thread.o(.text) for UART0_Handler
    startup_tm4c129.o(.text) refers (Special) to heapauxi.o(.text) for __use_two_region_memory
    startup_tm4c129.o(.text) refers to system_tm4c129.o(.text) for SystemInit
    startup_tm4c129.o(.text) refers to __main.o(!!!main) for __main
    startup_tm4c129.o(.text) refers to startup_tm4c129.o(HEAP) for Heap_Mem
    startup_tm4c129.o(.text) refers to startup_tm4c129.o(STACK) for Stack_Mem
    system_tm4c129.o(.text) refers to system_tm4c129.o(.data) for SystemCoreClock
    gpio.o(i.GPIOIntRegister) refers to gpio.o(i._GPIOIntNumberGet) for _GPIOIntNumberGet
    gpio.o(i.GPIOIntRegister) refers to interrupt.o(i.IntRegister) for IntRegister
    gpio.o(i.GPIOIntRegister) refers to interrupt.o(i.IntEnable) for IntEnable
    gpio.o(i.GPIOIntRegisterPin) refers to gpio.o(i._GPIOIntNumberGet) for _GPIOIntNumberGet
    gpio.o(i.GPIOIntRegisterPin) refers to interrupt.o(i.IntRegister) for IntRegister
    gpio.o(i.GPIOIntRegisterPin) refers to interrupt.o(i.IntEnable) for IntEnable
    gpio.o(i.GPIOIntUnregister) refers to gpio.o(i._GPIOIntNumberGet) for _GPIOIntNumberGet
    gpio.o(i.GPIOIntUnregister) refers to interrupt.o(i.IntDisable) for IntDisable
    gpio.o(i.GPIOIntUnregister) refers to interrupt.o(i.IntUnregister) for IntUnregister
    gpio.o(i.GPIOIntUnregisterPin) refers to gpio.o(i._GPIOIntNumberGet) for _GPIOIntNumberGet
    gpio.o(i.GPIOIntUnregisterPin) refers to interrupt.o(i.IntDisable) for IntDisable
    gpio.o(i.GPIOIntUnregisterPin) refers to interrupt.o(i.IntUnregister) for IntUnregister
    gpio.o(i.GPIOPinConfigure) refers to gpio.o(.constdata) for .constdata
    gpio.o(i.GPIOPinTypeADC) refers to gpio.o(i.GPIODirModeSet) for GPIODirModeSet
    gpio.o(i.GPIOPinTypeADC) refers to gpio.o(i.GPIOPadConfigSet) for GPIOPadConfigSet
    gpio.o(i.GPIOPinTypeCAN) refers to gpio.o(i.GPIODirModeSet) for GPIODirModeSet
    gpio.o(i.GPIOPinTypeCAN) refers to gpio.o(i.GPIOPadConfigSet) for GPIOPadConfigSet
    gpio.o(i.GPIOPinTypeComparator) refers to gpio.o(i.GPIODirModeSet) for GPIODirModeSet
    gpio.o(i.GPIOPinTypeComparator) refers to gpio.o(i.GPIOPadConfigSet) for GPIOPadConfigSet
    gpio.o(i.GPIOPinTypeComparatorOutput) refers to gpio.o(i.GPIODirModeSet) for GPIODirModeSet
    gpio.o(i.GPIOPinTypeComparatorOutput) refers to gpio.o(i.GPIOPadConfigSet) for GPIOPadConfigSet
    gpio.o(i.GPIOPinTypeDIVSCLK) refers to gpio.o(i.GPIODirModeSet) for GPIODirModeSet
    gpio.o(i.GPIOPinTypeDIVSCLK) refers to gpio.o(i.GPIOPadConfigSet) for GPIOPadConfigSet
    gpio.o(i.GPIOPinTypeEPI) refers to gpio.o(i.GPIODirModeSet) for GPIODirModeSet
    gpio.o(i.GPIOPinTypeEPI) refers to gpio.o(i.GPIOPadConfigSet) for GPIOPadConfigSet
    gpio.o(i.GPIOPinTypeEthernetLED) refers to gpio.o(i.GPIODirModeSet) for GPIODirModeSet
    gpio.o(i.GPIOPinTypeEthernetLED) refers to gpio.o(i.GPIOPadConfigSet) for GPIOPadConfigSet
    gpio.o(i.GPIOPinTypeEthernetMII) refers to gpio.o(i.GPIODirModeSet) for GPIODirModeSet
    gpio.o(i.GPIOPinTypeEthernetMII) refers to gpio.o(i.GPIOPadConfigSet) for GPIOPadConfigSet
    gpio.o(i.GPIOPinTypeGPIOInput) refers to gpio.o(i.GPIODirModeSet) for GPIODirModeSet
    gpio.o(i.GPIOPinTypeGPIOInput) refers to gpio.o(i.GPIOPadConfigSet) for GPIOPadConfigSet
    gpio.o(i.GPIOPinTypeGPIOOutput) refers to gpio.o(i.GPIOPadConfigSet) for GPIOPadConfigSet
    gpio.o(i.GPIOPinTypeGPIOOutput) refers to gpio.o(i.GPIODirModeSet) for GPIODirModeSet
    gpio.o(i.GPIOPinTypeGPIOOutputOD) refers to gpio.o(i.GPIOPadConfigSet) for GPIOPadConfigSet
    gpio.o(i.GPIOPinTypeGPIOOutputOD) refers to gpio.o(i.GPIODirModeSet) for GPIODirModeSet
    gpio.o(i.GPIOPinTypeHibernateRTCCLK) refers to gpio.o(i.GPIODirModeSet) for GPIODirModeSet
    gpio.o(i.GPIOPinTypeHibernateRTCCLK) refers to gpio.o(i.GPIOPadConfigSet) for GPIOPadConfigSet
    gpio.o(i.GPIOPinTypeI2C) refers to gpio.o(i.GPIODirModeSet) for GPIODirModeSet
    gpio.o(i.GPIOPinTypeI2C) refers to gpio.o(i.GPIOPadConfigSet) for GPIOPadConfigSet
    gpio.o(i.GPIOPinTypeI2CSCL) refers to gpio.o(i.GPIODirModeSet) for GPIODirModeSet
    gpio.o(i.GPIOPinTypeI2CSCL) refers to gpio.o(i.GPIOPadConfigSet) for GPIOPadConfigSet
    gpio.o(i.GPIOPinTypeLCD) refers to gpio.o(i.GPIODirModeSet) for GPIODirModeSet
    gpio.o(i.GPIOPinTypeLCD) refers to gpio.o(i.GPIOPadConfigSet) for GPIOPadConfigSet
    gpio.o(i.GPIOPinTypeOneWire) refers to gpio.o(i.GPIODirModeSet) for GPIODirModeSet
    gpio.o(i.GPIOPinTypeOneWire) refers to gpio.o(i.GPIOPadConfigSet) for GPIOPadConfigSet
    gpio.o(i.GPIOPinTypePWM) refers to gpio.o(i.GPIODirModeSet) for GPIODirModeSet
    gpio.o(i.GPIOPinTypePWM) refers to gpio.o(i.GPIOPadConfigSet) for GPIOPadConfigSet
    gpio.o(i.GPIOPinTypeQEI) refers to gpio.o(i.GPIODirModeSet) for GPIODirModeSet
    gpio.o(i.GPIOPinTypeQEI) refers to gpio.o(i.GPIOPadConfigSet) for GPIOPadConfigSet
    gpio.o(i.GPIOPinTypeSSI) refers to gpio.o(i.GPIODirModeSet) for GPIODirModeSet
    gpio.o(i.GPIOPinTypeSSI) refers to gpio.o(i.GPIOPadConfigSet) for GPIOPadConfigSet
    gpio.o(i.GPIOPinTypeTimer) refers to gpio.o(i.GPIODirModeSet) for GPIODirModeSet
    gpio.o(i.GPIOPinTypeTimer) refers to gpio.o(i.GPIOPadConfigSet) for GPIOPadConfigSet
    gpio.o(i.GPIOPinTypeTrace) refers to gpio.o(i.GPIODirModeSet) for GPIODirModeSet
    gpio.o(i.GPIOPinTypeTrace) refers to gpio.o(i.GPIOPadConfigSet) for GPIOPadConfigSet
    gpio.o(i.GPIOPinTypeUART) refers to gpio.o(i.GPIODirModeSet) for GPIODirModeSet
    gpio.o(i.GPIOPinTypeUART) refers to gpio.o(i.GPIOPadConfigSet) for GPIOPadConfigSet
    gpio.o(i.GPIOPinTypeUSBAnalog) refers to gpio.o(i.GPIODirModeSet) for GPIODirModeSet
    gpio.o(i.GPIOPinTypeUSBAnalog) refers to gpio.o(i.GPIOPadConfigSet) for GPIOPadConfigSet
    gpio.o(i.GPIOPinTypeUSBDigital) refers to gpio.o(i.GPIODirModeSet) for GPIODirModeSet
    gpio.o(i.GPIOPinTypeUSBDigital) refers to gpio.o(i.GPIOPadConfigSet) for GPIOPadConfigSet
    gpio.o(i.GPIOPinTypeWakeHigh) refers to gpio.o(i.GPIODirModeSet) for GPIODirModeSet
    gpio.o(i.GPIOPinTypeWakeHigh) refers to gpio.o(i.GPIOPadConfigSet) for GPIOPadConfigSet
    gpio.o(i.GPIOPinTypeWakeLow) refers to gpio.o(i.GPIODirModeSet) for GPIODirModeSet
    gpio.o(i.GPIOPinTypeWakeLow) refers to gpio.o(i.GPIOPadConfigSet) for GPIOPadConfigSet
    gpio.o(i._GPIOIntNumberGet) refers to gpio.o(.constdata) for .constdata
    i2c.o(i.I2CIntRegister) refers to interrupt.o(i.IntRegister) for IntRegister
    i2c.o(i.I2CIntRegister) refers to interrupt.o(i.IntEnable) for IntEnable
    i2c.o(i.I2CIntRegister) refers to i2c.o(.constdata) for .constdata
    i2c.o(i.I2CIntUnregister) refers to interrupt.o(i.IntDisable) for IntDisable
    i2c.o(i.I2CIntUnregister) refers to interrupt.o(i.IntUnregister) for IntUnregister
    i2c.o(i.I2CIntUnregister) refers to i2c.o(.constdata) for .constdata
    interrupt.o(i.IntDisable) refers to interrupt.o(.constdata) for .constdata
    interrupt.o(i.IntEnable) refers to interrupt.o(.constdata) for .constdata
    interrupt.o(i.IntIsEnabled) refers to interrupt.o(.constdata) for .constdata
    interrupt.o(i.IntMasterDisable) refers to cpu.o(.emb_text) for CPUcpsid
    interrupt.o(i.IntMasterEnable) refers to cpu.o(.emb_text) for CPUcpsie
    interrupt.o(i.IntPendClear) refers to interrupt.o(.constdata) for .constdata
    interrupt.o(i.IntPendSet) refers to interrupt.o(.constdata) for .constdata
    interrupt.o(i.IntPriorityGet) refers to interrupt.o(.constdata) for .constdata
    interrupt.o(i.IntPriorityGroupingGet) refers to interrupt.o(.constdata) for .constdata
    interrupt.o(i.IntPriorityGroupingSet) refers to interrupt.o(.constdata) for .constdata
    interrupt.o(i.IntPriorityMaskGet) refers to cpu.o(.emb_text) for CPUbasepriGet
    interrupt.o(i.IntPriorityMaskSet) refers to cpu.o(.emb_text) for CPUbasepriSet
    interrupt.o(i.IntPrioritySet) refers to interrupt.o(.constdata) for .constdata
    interrupt.o(i.IntRegister) refers to interrupt.o(vtable) for vtable
    interrupt.o(i.IntUnregister) refers to interrupt.o(i._IntDefaultHandler) for _IntDefaultHandler
    interrupt.o(i.IntUnregister) refers to interrupt.o(vtable) for vtable
    pwm.o(i.PWMFaultIntRegister) refers to interrupt.o(i.IntRegister) for IntRegister
    pwm.o(i.PWMFaultIntRegister) refers to interrupt.o(i.IntEnable) for IntEnable
    pwm.o(i.PWMFaultIntUnregister) refers to interrupt.o(i.IntDisable) for IntDisable
    pwm.o(i.PWMFaultIntUnregister) refers to interrupt.o(i.IntUnregister) for IntUnregister
    pwm.o(i.PWMGenIntRegister) refers to pwm.o(i._PWMGenIntNumberGet) for _PWMGenIntNumberGet
    pwm.o(i.PWMGenIntRegister) refers to interrupt.o(i.IntRegister) for IntRegister
    pwm.o(i.PWMGenIntRegister) refers to interrupt.o(i.IntEnable) for IntEnable
    pwm.o(i.PWMGenIntUnregister) refers to pwm.o(i._PWMGenIntNumberGet) for _PWMGenIntNumberGet
    pwm.o(i.PWMGenIntUnregister) refers to interrupt.o(i.IntDisable) for IntDisable
    pwm.o(i.PWMGenIntUnregister) refers to interrupt.o(i.IntUnregister) for IntUnregister
    sysctl.o(i.SysCtlClockFreqSet) refers to sysctl.o(.constdata) for .constdata
    sysctl.o(i.SysCtlClockGet) refers to sysctl.o(.constdata) for .constdata
    sysctl.o(i.SysCtlClockSet) refers to sysctl.o(.emb_text) for SysCtlDelay
    sysctl.o(i.SysCtlDeepSleep) refers to cpu.o(.emb_text) for CPUwfi
    sysctl.o(i.SysCtlIntRegister) refers to interrupt.o(i.IntRegister) for IntRegister
    sysctl.o(i.SysCtlIntRegister) refers to interrupt.o(i.IntEnable) for IntEnable
    sysctl.o(i.SysCtlIntUnregister) refers to interrupt.o(i.IntDisable) for IntDisable
    sysctl.o(i.SysCtlIntUnregister) refers to interrupt.o(i.IntUnregister) for IntUnregister
    sysctl.o(i.SysCtlSleep) refers to cpu.o(.emb_text) for CPUwfi
    sysctl.o(i.SysCtlVCOGet) refers to sysctl.o(.constdata) for .constdata
    timer.o(i.TimerIntRegister) refers to interrupt.o(i.IntRegister) for IntRegister
    timer.o(i.TimerIntRegister) refers to interrupt.o(i.IntEnable) for IntEnable
    timer.o(i.TimerIntRegister) refers to timer.o(.constdata) for .constdata
    timer.o(i.TimerIntUnregister) refers to interrupt.o(i.IntDisable) for IntDisable
    timer.o(i.TimerIntUnregister) refers to interrupt.o(i.IntUnregister) for IntUnregister
    timer.o(i.TimerIntUnregister) refers to timer.o(.constdata) for .constdata
    uart.o(i.UARTIntRegister) refers to interrupt.o(i.IntRegister) for IntRegister
    uart.o(i.UARTIntRegister) refers to interrupt.o(i.IntEnable) for IntEnable
    uart.o(i.UARTIntRegister) refers to uart.o(.constdata) for .constdata
    uart.o(i.UARTIntUnregister) refers to interrupt.o(i.IntDisable) for IntDisable
    uart.o(i.UARTIntUnregister) refers to interrupt.o(i.IntUnregister) for IntUnregister
    uart.o(i.UARTIntUnregister) refers to uart.o(.constdata) for .constdata
    context.o(i.GrContextInit) refers to context.o(.data) for .data
    context.o(i.GrContextInit) refers to string.o(i.GrDefaultStringRenderer) for GrDefaultStringRenderer
    context.o(i.GrContextInit) refers to context.o(.constdata) for .constdata
    context.o(i.GrLibInit) refers to context.o(.data) for .data
    context.o(.constdata) refers to charmap.o(i.GrMapISO8859_1_Unicode) for GrMapISO8859_1_Unicode
    fontfixed6x8.o(.constdata) refers to fontfixed6x8.o(.constdata) for g_pui8FontFixed6x8Data
    string.o(i.GrCodepageMapTableSet) refers to string.o(i.UpdateContextCharMapping) for UpdateContextCharMapping
    string.o(i.GrContextFontSet) refers to string.o(i.UpdateContextCharMapping) for UpdateContextCharMapping
    string.o(i.GrDefaultStringRenderer) refers to string.o(i.GrFontGlyphDataGet) for GrFontGlyphDataGet
    string.o(i.GrDefaultStringRenderer) refers to string.o(i.GrFontGlyphRender) for GrFontGlyphRender
    string.o(i.GrStringCodepageSet) refers to string.o(i.UpdateContextCharMapping) for UpdateContextCharMapping
    string.o(i.GrStringGet) refers to string.o(.data) for .data
    string.o(i.GrStringLanguageSet) refers to string.o(.data) for .data
    string.o(i.GrStringTableSet) refers to string.o(.data) for .data
    string.o(i.GrStringWidthGet) refers to string.o(i.GrFontGlyphDataGet) for GrFontGlyphDataGet
    rt_cmsis.o(i.isrMessageGet) refers to rt_mailbox.o(i.isr_mbx_receive) for isr_mbx_receive
    rt_cmsis.o(i.isrMessagePut) refers to rt_mailbox.o(i.rt_mbx_check) for rt_mbx_check
    rt_cmsis.o(i.isrMessagePut) refers to rt_mailbox.o(i.isr_mbx_send) for isr_mbx_send
    rt_cmsis.o(i.isrSemaphoreRelease) refers to rt_cmsis.o(i.rt_id2obj) for rt_id2obj
    rt_cmsis.o(i.isrSemaphoreRelease) refers to rt_semaphore.o(i.isr_sem_send) for isr_sem_send
    rt_cmsis.o(i.isrSignalSet) refers to rt_cmsis.o(i.rt_tid2ptcb) for rt_tid2ptcb
    rt_cmsis.o(i.isrSignalSet) refers to rt_event.o(i.isr_evt_set) for isr_evt_set
    rt_cmsis.o(i.osDelay) refers to rt_cmsis.o(i.svcDelay) for svcDelay
    rt_cmsis.o(i.osKernelInitialize) refers to rt_cmsis.o(i.svcKernelInitialize) for svcKernelInitialize
    rt_cmsis.o(i.osKernelRunning) refers to rt_cmsis.o(i.svcKernelRunning) for svcKernelRunning
    rt_cmsis.o(i.osKernelRunning) refers to rt_cmsis.o(.data) for .data
    rt_cmsis.o(i.osKernelStart) refers to rtx_conf_cm.o(.constdata) for os_flags
    rt_cmsis.o(i.osKernelStart) refers to rt_cmsis.o(i.svcKernelStart) for svcKernelStart
    rt_cmsis.o(i.osKernelSysTick) refers to rt_cmsis.o(i.svcKernelSysTick) for svcKernelSysTick
    rt_cmsis.o(i.osMailAlloc) refers to rt_cmsis.o(i.sysMailAlloc) for sysMailAlloc
    rt_cmsis.o(i.osMailCAlloc) refers to rt_cmsis.o(i.sysMailAlloc) for sysMailAlloc
    rt_cmsis.o(i.osMailCAlloc) refers to rt_cmsis.o(i.rt_clr_box) for rt_clr_box
    rt_cmsis.o(i.osMailCreate) refers to rt_cmsis.o(i.svcMailCreate) for svcMailCreate
    rt_cmsis.o(i.osMailCreate) refers to rt_cmsis.o(.data) for .data
    rt_cmsis.o(i.osMailFree) refers to rt_cmsis.o(i.sysMailFree) for sysMailFree
    rt_cmsis.o(i.osMailGet) refers to rt_cmsis.o(i.osMessageGet) for osMessageGet
    rt_cmsis.o(i.osMailPut) refers to rt_cmsis.o(i.osMessagePut) for osMessagePut
    rt_cmsis.o(i.osMessageCreate) refers to rt_cmsis.o(i.svcMessageCreate) for svcMessageCreate
    rt_cmsis.o(i.osMessageCreate) refers to rt_cmsis.o(.data) for .data
    rt_cmsis.o(i.osMessageGet) refers to rt_cmsis.o(i.isrMessageGet) for isrMessageGet
    rt_cmsis.o(i.osMessageGet) refers to rt_cmsis.o(i.svcMessageGet) for svcMessageGet
    rt_cmsis.o(i.osMessagePut) refers to rt_cmsis.o(i.isrMessagePut) for isrMessagePut
    rt_cmsis.o(i.osMessagePut) refers to rt_cmsis.o(i.svcMessagePut) for svcMessagePut
    rt_cmsis.o(i.osMutexCreate) refers to rt_cmsis.o(i.svcMutexCreate) for svcMutexCreate
    rt_cmsis.o(i.osMutexCreate) refers to rt_cmsis.o(.data) for .data
    rt_cmsis.o(i.osMutexDelete) refers to rt_cmsis.o(i.svcMutexDelete) for svcMutexDelete
    rt_cmsis.o(i.osMutexRelease) refers to rt_cmsis.o(i.svcMutexRelease) for svcMutexRelease
    rt_cmsis.o(i.osMutexWait) refers to rt_cmsis.o(i.svcMutexWait) for svcMutexWait
    rt_cmsis.o(i.osPoolAlloc) refers to rt_cmsis.o(i.sysPoolAlloc) for sysPoolAlloc
    rt_cmsis.o(i.osPoolCAlloc) refers to rt_cmsis.o(i.rt_clr_box) for rt_clr_box
    rt_cmsis.o(i.osPoolCAlloc) refers to rt_cmsis.o(i.sysPoolAlloc) for sysPoolAlloc
    rt_cmsis.o(i.osPoolCreate) refers to rt_cmsis.o(i.svcPoolCreate) for svcPoolCreate
    rt_cmsis.o(i.osPoolCreate) refers to rt_cmsis.o(.data) for .data
    rt_cmsis.o(i.osPoolFree) refers to rt_cmsis.o(i.sysPoolFree) for sysPoolFree
    rt_cmsis.o(i.osSemaphoreCreate) refers to rt_cmsis.o(i.svcSemaphoreCreate) for svcSemaphoreCreate
    rt_cmsis.o(i.osSemaphoreCreate) refers to rt_cmsis.o(.data) for .data
    rt_cmsis.o(i.osSemaphoreDelete) refers to rt_cmsis.o(i.svcSemaphoreDelete) for svcSemaphoreDelete
    rt_cmsis.o(i.osSemaphoreRelease) refers to rt_cmsis.o(i.isrSemaphoreRelease) for isrSemaphoreRelease
    rt_cmsis.o(i.osSemaphoreRelease) refers to rt_cmsis.o(i.svcSemaphoreRelease) for svcSemaphoreRelease
    rt_cmsis.o(i.osSemaphoreWait) refers to rt_cmsis.o(i.svcSemaphoreWait) for svcSemaphoreWait
    rt_cmsis.o(i.osSignalClear) refers to rt_cmsis.o(i.svcSignalClear) for svcSignalClear
    rt_cmsis.o(i.osSignalSet) refers to rt_cmsis.o(i.isrSignalSet) for isrSignalSet
    rt_cmsis.o(i.osSignalSet) refers to rt_cmsis.o(i.svcSignalSet) for svcSignalSet
    rt_cmsis.o(i.osSignalWait) refers to rt_cmsis.o(i.svcSignalWait) for svcSignalWait
    rt_cmsis.o(i.osThreadCreate) refers to rt_cmsis.o(i.svcThreadCreate) for svcThreadCreate
    rt_cmsis.o(i.osThreadCreate) refers to rt_cmsis.o(.data) for .data
    rt_cmsis.o(i.osThreadExit) refers to rt_cmsis.o(i.svcThreadGetId) for svcThreadGetId
    rt_cmsis.o(i.osThreadExit) refers to rt_cmsis.o(i.svcThreadTerminate) for svcThreadTerminate
    rt_cmsis.o(i.osThreadGetId) refers to rt_cmsis.o(i.svcThreadGetId) for svcThreadGetId
    rt_cmsis.o(i.osThreadGetPriority) refers to rt_cmsis.o(i.svcThreadGetPriority) for svcThreadGetPriority
    rt_cmsis.o(i.osThreadSetPriority) refers to rt_cmsis.o(i.svcThreadSetPriority) for svcThreadSetPriority
    rt_cmsis.o(i.osThreadTerminate) refers to rt_cmsis.o(i.svcThreadTerminate) for svcThreadTerminate
    rt_cmsis.o(i.osThreadYield) refers to rt_cmsis.o(i.svcThreadYield) for svcThreadYield
    rt_cmsis.o(i.osTimerCall) refers to rt_cmsis.o(i.svcTimerCall) for svcTimerCall
    rt_cmsis.o(i.osTimerCreate) refers to rt_cmsis.o(i.svcTimerCreate) for svcTimerCreate
    rt_cmsis.o(i.osTimerCreate) refers to rt_cmsis.o(.data) for .data
    rt_cmsis.o(i.osTimerDelete) refers to rt_cmsis.o(i.svcTimerDelete) for svcTimerDelete
    rt_cmsis.o(i.osTimerStart) refers to rt_cmsis.o(i.svcTimerStart) for svcTimerStart
    rt_cmsis.o(i.osTimerStop) refers to rt_cmsis.o(i.svcTimerStop) for svcTimerStop
    rt_cmsis.o(i.osTimerThread) refers to rt_cmsis.o(i.osMessageGet) for osMessageGet
    rt_cmsis.o(i.osTimerThread) refers to rt_cmsis.o(i.osTimerCall) for osTimerCall
    rt_cmsis.o(i.osTimerThread) refers to rtx_conf_cm.o(.data) for osMessageQId_osTimerMessageQ
    rt_cmsis.o(i.os_resume) refers to rt_system.o(i.rt_resume) for rt_resume
    rt_cmsis.o(i.os_suspend) refers to rt_system.o(i.rt_suspend) for rt_suspend
    rt_cmsis.o(i.rt_ms2tick) refers to rtx_conf_cm.o(.constdata) for os_clockrate
    rt_cmsis.o(i.rt_timer_insert) refers to rt_cmsis.o(.data) for .data
    rt_cmsis.o(i.rt_timer_remove) refers to rt_cmsis.o(.data) for .data
    rt_cmsis.o(i.svcDelay) refers to rt_cmsis.o(i.rt_ms2tick) for rt_ms2tick
    rt_cmsis.o(i.svcDelay) refers to rt_time.o(i.rt_dly_wait) for rt_dly_wait
    rt_cmsis.o(i.svcKernelInitialize) refers to rt_memory.o(i.rt_init_mem) for rt_init_mem
    rt_cmsis.o(i.svcKernelInitialize) refers to rt_task.o(i.rt_sys_init) for rt_sys_init
    rt_cmsis.o(i.svcKernelInitialize) refers to rt_cmsis.o(i.svcMessageCreate) for svcMessageCreate
    rt_cmsis.o(i.svcKernelInitialize) refers to rt_cmsis.o(i.svcThreadCreate) for svcThreadCreate
    rt_cmsis.o(i.svcKernelInitialize) refers to rt_cmsis.o(.data) for .data
    rt_cmsis.o(i.svcKernelInitialize) refers to rtx_conf_cm.o(.bss) for os_stack_mem
    rt_cmsis.o(i.svcKernelInitialize) refers to rtx_conf_cm.o(.constdata) for os_stack_sz
    rt_cmsis.o(i.svcKernelInitialize) refers to rt_task.o(.data) for os_tsk
    rt_cmsis.o(i.svcKernelInitialize) refers to rtx_conf_cm.o(.data) for osMessageQId_osTimerMessageQ
    rt_cmsis.o(i.svcKernelRunning) refers to rt_cmsis.o(.data) for .data
    rt_cmsis.o(i.svcKernelStart) refers to rt_task.o(i.rt_tsk_prio) for rt_tsk_prio
    rt_cmsis.o(i.svcKernelStart) refers to rt_task.o(i.rt_sys_start) for rt_sys_start
    rt_cmsis.o(i.svcKernelStart) refers to rt_cmsis.o(.data) for .data
    rt_cmsis.o(i.svcKernelStart) refers to rt_task.o(.data) for os_tsk
    rt_cmsis.o(i.svcKernelSysTick) refers to rt_system.o(i.os_tick_val) for os_tick_val
    rt_cmsis.o(i.svcKernelSysTick) refers to rt_system.o(i.os_tick_ovf) for os_tick_ovf
    rt_cmsis.o(i.svcKernelSysTick) refers to rtx_conf_cm.o(.constdata) for os_trv
    rt_cmsis.o(i.svcKernelSysTick) refers to rt_time.o(.data) for os_time
    rt_cmsis.o(i.svcMailCreate) refers to rt_membox.o(i._init_box) for _init_box
    rt_cmsis.o(i.svcMailCreate) refers to rt_mailbox.o(i.rt_mbx_init) for rt_mbx_init
    rt_cmsis.o(i.svcMessageCreate) refers to rt_mailbox.o(i.rt_mbx_init) for rt_mbx_init
    rt_cmsis.o(i.svcMessageGet) refers to rt_cmsis.o(i.rt_ms2tick) for rt_ms2tick
    rt_cmsis.o(i.svcMessageGet) refers to rt_mailbox.o(i.rt_mbx_wait) for rt_mbx_wait
    rt_cmsis.o(i.svcMessagePut) refers to rt_cmsis.o(i.rt_ms2tick) for rt_ms2tick
    rt_cmsis.o(i.svcMessagePut) refers to rt_mailbox.o(i.rt_mbx_send) for rt_mbx_send
    rt_cmsis.o(i.svcMutexCreate) refers to rt_mutex.o(i.rt_mut_init) for rt_mut_init
    rt_cmsis.o(i.svcMutexDelete) refers to rt_cmsis.o(i.rt_id2obj) for rt_id2obj
    rt_cmsis.o(i.svcMutexDelete) refers to rt_mutex.o(i.rt_mut_delete) for rt_mut_delete
    rt_cmsis.o(i.svcMutexRelease) refers to rt_cmsis.o(i.rt_id2obj) for rt_id2obj
    rt_cmsis.o(i.svcMutexRelease) refers to rt_mutex.o(i.rt_mut_release) for rt_mut_release
    rt_cmsis.o(i.svcMutexWait) refers to rt_cmsis.o(i.rt_id2obj) for rt_id2obj
    rt_cmsis.o(i.svcMutexWait) refers to rt_cmsis.o(i.rt_ms2tick) for rt_ms2tick
    rt_cmsis.o(i.svcMutexWait) refers to rt_mutex.o(i.rt_mut_wait) for rt_mut_wait
    rt_cmsis.o(i.svcPoolCreate) refers to rt_membox.o(i._init_box) for _init_box
    rt_cmsis.o(i.svcSemaphoreCreate) refers to rt_semaphore.o(i.rt_sem_init) for rt_sem_init
    rt_cmsis.o(i.svcSemaphoreDelete) refers to rt_cmsis.o(i.rt_id2obj) for rt_id2obj
    rt_cmsis.o(i.svcSemaphoreDelete) refers to rt_semaphore.o(i.rt_sem_delete) for rt_sem_delete
    rt_cmsis.o(i.svcSemaphoreRelease) refers to rt_cmsis.o(i.rt_id2obj) for rt_id2obj
    rt_cmsis.o(i.svcSemaphoreRelease) refers to rt_semaphore.o(i.rt_sem_send) for rt_sem_send
    rt_cmsis.o(i.svcSemaphoreWait) refers to rt_cmsis.o(i.rt_id2obj) for rt_id2obj
    rt_cmsis.o(i.svcSemaphoreWait) refers to rt_cmsis.o(i.rt_ms2tick) for rt_ms2tick
    rt_cmsis.o(i.svcSemaphoreWait) refers to rt_semaphore.o(i.rt_sem_wait) for rt_sem_wait
    rt_cmsis.o(i.svcSignalClear) refers to rt_cmsis.o(i.rt_tid2ptcb) for rt_tid2ptcb
    rt_cmsis.o(i.svcSignalClear) refers to rt_event.o(i.rt_evt_clr) for rt_evt_clr
    rt_cmsis.o(i.svcSignalSet) refers to rt_cmsis.o(i.rt_tid2ptcb) for rt_tid2ptcb
    rt_cmsis.o(i.svcSignalSet) refers to rt_event.o(i.rt_evt_set) for rt_evt_set
    rt_cmsis.o(i.svcSignalWait) refers to rt_cmsis.o(i.rt_ms2tick) for rt_ms2tick
    rt_cmsis.o(i.svcSignalWait) refers to rt_event.o(i.rt_evt_wait) for rt_evt_wait
    rt_cmsis.o(i.svcSignalWait) refers to rt_task.o(.data) for os_tsk
    rt_cmsis.o(i.svcThreadCreate) refers to rt_memory.o(i.rt_alloc_mem) for rt_alloc_mem
    rt_cmsis.o(i.svcThreadCreate) refers to rt_task.o(i.rt_tsk_create) for rt_tsk_create
    rt_cmsis.o(i.svcThreadCreate) refers to rt_memory.o(i.rt_free_mem) for rt_free_mem
    rt_cmsis.o(i.svcThreadCreate) refers to rtx_conf_cm.o(.bss) for os_stack_mem
    rt_cmsis.o(i.svcThreadCreate) refers to rt_cmsis.o(i.osThreadExit) for osThreadExit
    rt_cmsis.o(i.svcThreadGetId) refers to rt_task.o(i.rt_tsk_self) for rt_tsk_self
    rt_cmsis.o(i.svcThreadGetId) refers to rtx_conf_cm.o(.bss) for os_active_TCB
    rt_cmsis.o(i.svcThreadGetPriority) refers to rt_cmsis.o(i.rt_tid2ptcb) for rt_tid2ptcb
    rt_cmsis.o(i.svcThreadSetPriority) refers to rt_cmsis.o(i.rt_tid2ptcb) for rt_tid2ptcb
    rt_cmsis.o(i.svcThreadSetPriority) refers to rt_task.o(i.rt_tsk_prio) for rt_tsk_prio
    rt_cmsis.o(i.svcThreadTerminate) refers to rt_cmsis.o(i.rt_tid2ptcb) for rt_tid2ptcb
    rt_cmsis.o(i.svcThreadTerminate) refers to rt_task.o(i.rt_tsk_delete) for rt_tsk_delete
    rt_cmsis.o(i.svcThreadTerminate) refers to rt_memory.o(i.rt_free_mem) for rt_free_mem
    rt_cmsis.o(i.svcThreadTerminate) refers to rtx_conf_cm.o(.bss) for os_stack_mem
    rt_cmsis.o(i.svcThreadYield) refers to rt_task.o(i.rt_tsk_pass) for rt_tsk_pass
    rt_cmsis.o(i.svcTimerCall) refers to rt_cmsis.o(i.rt_id2obj) for rt_id2obj
    rt_cmsis.o(i.svcTimerCreate) refers to rtx_conf_cm.o(.data) for osThreadId_osTimerThread
    rt_cmsis.o(i.svcTimerDelete) refers to rt_cmsis.o(i.rt_id2obj) for rt_id2obj
    rt_cmsis.o(i.svcTimerDelete) refers to rt_cmsis.o(i.rt_timer_remove) for rt_timer_remove
    rt_cmsis.o(i.svcTimerStart) refers to rt_cmsis.o(i.rt_id2obj) for rt_id2obj
    rt_cmsis.o(i.svcTimerStart) refers to lludivv7m.o(.text) for __aeabi_uldivmod
    rt_cmsis.o(i.svcTimerStart) refers to rt_cmsis.o(i.rt_timer_remove) for rt_timer_remove
    rt_cmsis.o(i.svcTimerStart) refers to rt_cmsis.o(i.rt_timer_insert) for rt_timer_insert
    rt_cmsis.o(i.svcTimerStart) refers to rtx_conf_cm.o(.constdata) for os_clockrate
    rt_cmsis.o(i.svcTimerStop) refers to rt_cmsis.o(i.rt_id2obj) for rt_id2obj
    rt_cmsis.o(i.svcTimerStop) refers to rt_cmsis.o(i.rt_timer_remove) for rt_timer_remove
    rt_cmsis.o(i.sysMailAlloc) refers to rt_membox.o(i.rt_alloc_box) for rt_alloc_box
    rt_cmsis.o(i.sysMailAlloc) refers to rt_list.o(i.rt_put_prio) for rt_put_prio
    rt_cmsis.o(i.sysMailAlloc) refers to rt_cmsis.o(i.rt_ms2tick) for rt_ms2tick
    rt_cmsis.o(i.sysMailAlloc) refers to rt_task.o(i.rt_block) for rt_block
    rt_cmsis.o(i.sysMailAlloc) refers to rt_task.o(.data) for os_tsk
    rt_cmsis.o(i.sysMailFree) refers to rt_membox.o(i.rt_free_box) for rt_free_box
    rt_cmsis.o(i.sysMailFree) refers to rt_list.o(i.rt_psq_enq) for rt_psq_enq
    rt_cmsis.o(i.sysMailFree) refers to rt_system.o(i.rt_psh_req) for rt_psh_req
    rt_cmsis.o(i.sysMailFree) refers to rt_membox.o(i.rt_alloc_box) for rt_alloc_box
    rt_cmsis.o(i.sysMailFree) refers to rt_list.o(i.rt_get_first) for rt_get_first
    rt_cmsis.o(i.sysMailFree) refers to hal_cm.o(i.rt_ret_val) for rt_ret_val
    rt_cmsis.o(i.sysMailFree) refers to rt_list.o(i.rt_rmv_dly) for rt_rmv_dly
    rt_cmsis.o(i.sysMailFree) refers to rt_task.o(i.rt_dispatch) for rt_dispatch
    rt_cmsis.o(i.sysPoolAlloc) refers to rt_membox.o(i.rt_alloc_box) for rt_alloc_box
    rt_cmsis.o(i.sysPoolFree) refers to rt_membox.o(i.rt_free_box) for rt_free_box
    rt_cmsis.o(i.sysTimerTick) refers to rt_cmsis.o(i.isrMessagePut) for isrMessagePut
    rt_cmsis.o(i.sysTimerTick) refers to rtx_conf_cm.o(.text) for os_error
    rt_cmsis.o(i.sysTimerTick) refers to rt_cmsis.o(i.rt_timer_insert) for rt_timer_insert
    rt_cmsis.o(i.sysTimerTick) refers to rt_cmsis.o(.data) for .data
    rt_cmsis.o(i.sysTimerTick) refers to rtx_conf_cm.o(.data) for osMessageQId_osTimerMessageQ
    rt_cmsis.o(i.sysUserTimerUpdate) refers to rt_cmsis.o(i.sysTimerTick) for sysTimerTick
    rt_cmsis.o(i.sysUserTimerUpdate) refers to rt_cmsis.o(.data) for .data
    rt_cmsis.o(i.sysUserTimerWakeupTime) refers to rt_cmsis.o(.data) for .data
    rt_task.o(i.rt_block) refers to rt_list.o(i.rt_put_dly) for rt_put_dly
    rt_task.o(i.rt_block) refers to rt_list.o(i.rt_get_first) for rt_get_first
    rt_task.o(i.rt_block) refers to rt_task.o(i.rt_switch_req) for rt_switch_req
    rt_task.o(i.rt_block) refers to rt_task.o(.data) for .data
    rt_task.o(i.rt_block) refers to rt_list.o(.bss) for os_rdy
    rt_task.o(i.rt_dispatch) refers to rt_list.o(i.rt_put_rdy_first) for rt_put_rdy_first
    rt_task.o(i.rt_dispatch) refers to rt_task.o(i.rt_switch_req) for rt_switch_req
    rt_task.o(i.rt_dispatch) refers to rt_list.o(i.rt_get_first) for rt_get_first
    rt_task.o(i.rt_dispatch) refers to rt_list.o(i.rt_put_prio) for rt_put_prio
    rt_task.o(i.rt_dispatch) refers to rt_task.o(.data) for .data
    rt_task.o(i.rt_dispatch) refers to rt_list.o(.bss) for os_rdy
    rt_task.o(i.rt_init_context) refers to rt_membox.o(i.rt_alloc_box) for rt_alloc_box
    rt_task.o(i.rt_init_context) refers to hal_cm.o(i.rt_init_stack) for rt_init_stack
    rt_task.o(i.rt_init_context) refers to rtx_conf_cm.o(.bss) for mp_stk
    rt_task.o(i.rt_switch_req) refers to hal_cm.o(i.dbg_task_switch) for dbg_task_switch
    rt_task.o(i.rt_switch_req) refers to rt_task.o(.data) for .data
    rt_task.o(i.rt_switch_req) refers to hal_cm.o(.data) for dbg_msg
    rt_task.o(i.rt_sys_init) refers to hal_cm.o(i.dbg_init) for dbg_init
    rt_task.o(i.rt_sys_init) refers to rt_membox.o(i._init_box) for _init_box
    rt_task.o(i.rt_sys_init) refers to rt_task.o(i.rt_init_context) for rt_init_context
    rt_task.o(i.rt_sys_init) refers to rt_robin.o(i.rt_init_robin) for rt_init_robin
    rt_task.o(i.rt_sys_init) refers to rtx_conf_cm.o(.bss) for os_active_TCB
    rt_task.o(i.rt_sys_init) refers to rtx_conf_cm.o(.constdata) for os_maxtaskrun
    rt_task.o(i.rt_sys_init) refers to rtx_conf_cm.o(.data) for m_tmr
    rt_task.o(i.rt_sys_init) refers to rt_task.o(.bss) for .bss
    rt_task.o(i.rt_sys_init) refers to rtx_conf_cm.o(.text) for os_idle_demon
    rt_task.o(i.rt_sys_init) refers to rt_list.o(.bss) for os_rdy
    rt_task.o(i.rt_sys_init) refers to rt_task.o(.data) for .data
    rt_task.o(i.rt_sys_start) refers to rt_system.o(i.os_tick_init) for os_tick_init
    rt_task.o(i.rt_sys_start) refers to rt_system.o(.data) for os_tick_irqn
    rt_task.o(i.rt_tsk_create) refers to rt_membox.o(i.rt_alloc_box) for rt_alloc_box
    rt_task.o(i.rt_tsk_create) refers to rt_task.o(i.rt_init_context) for rt_init_context
    rt_task.o(i.rt_tsk_create) refers to hal_cm.o(i.dbg_task_notify) for dbg_task_notify
    rt_task.o(i.rt_tsk_create) refers to rt_task.o(i.rt_dispatch) for rt_dispatch
    rt_task.o(i.rt_tsk_create) refers to rtx_conf_cm.o(.bss) for mp_tcb
    rt_task.o(i.rt_tsk_create) refers to rtx_conf_cm.o(.constdata) for os_maxtaskrun
    rt_task.o(i.rt_tsk_create) refers to hal_cm.o(.data) for dbg_msg
    rt_task.o(i.rt_tsk_delete) refers to hal_cm4.o(.emb_text) for rt_get_PSP
    rt_task.o(i.rt_tsk_delete) refers to rt_system.o(i.rt_stk_check) for rt_stk_check
    rt_task.o(i.rt_tsk_delete) refers to rt_list.o(i.rt_get_first) for rt_get_first
    rt_task.o(i.rt_tsk_delete) refers to hal_cm.o(i.rt_ret_val) for rt_ret_val
    rt_task.o(i.rt_tsk_delete) refers to rt_list.o(i.rt_rmv_dly) for rt_rmv_dly
    rt_task.o(i.rt_tsk_delete) refers to rt_list.o(i.rt_put_prio) for rt_put_prio
    rt_task.o(i.rt_tsk_delete) refers to rt_membox.o(i.rt_free_box) for rt_free_box
    rt_task.o(i.rt_tsk_delete) refers to hal_cm.o(i.dbg_task_notify) for dbg_task_notify
    rt_task.o(i.rt_tsk_delete) refers to rt_list.o(i.rt_rmv_list) for rt_rmv_list
    rt_task.o(i.rt_tsk_delete) refers to rt_task.o(i.rt_dispatch) for rt_dispatch
    rt_task.o(i.rt_tsk_delete) refers to hal_cm.o(.data) for dbg_msg
    rt_task.o(i.rt_tsk_delete) refers to rtx_conf_cm.o(.bss) for os_active_TCB
    rt_task.o(i.rt_tsk_delete) refers to rt_task.o(.data) for .data
    rt_task.o(i.rt_tsk_delete) refers to rt_list.o(.bss) for os_rdy
    rt_task.o(i.rt_tsk_delete) refers to rtx_conf_cm.o(.constdata) for os_maxtaskrun
    rt_task.o(i.rt_tsk_pass) refers to rt_list.o(i.rt_get_same_rdy_prio) for rt_get_same_rdy_prio
    rt_task.o(i.rt_tsk_pass) refers to rt_list.o(i.rt_put_prio) for rt_put_prio
    rt_task.o(i.rt_tsk_pass) refers to rt_task.o(i.rt_switch_req) for rt_switch_req
    rt_task.o(i.rt_tsk_pass) refers to rt_task.o(.data) for .data
    rt_task.o(i.rt_tsk_pass) refers to rt_list.o(.bss) for os_rdy
    rt_task.o(i.rt_tsk_prio) refers to rt_list.o(i.rt_put_prio) for rt_put_prio
    rt_task.o(i.rt_tsk_prio) refers to rt_list.o(i.rt_resort_prio) for rt_resort_prio
    rt_task.o(i.rt_tsk_prio) refers to rt_list.o(i.rt_get_first) for rt_get_first
    rt_task.o(i.rt_tsk_prio) refers to rt_task.o(i.rt_dispatch) for rt_dispatch
    rt_task.o(i.rt_tsk_prio) refers to rt_task.o(.data) for .data
    rt_task.o(i.rt_tsk_prio) refers to rtx_conf_cm.o(.constdata) for os_maxtaskrun
    rt_task.o(i.rt_tsk_prio) refers to rtx_conf_cm.o(.bss) for os_active_TCB
    rt_task.o(i.rt_tsk_prio) refers to rt_list.o(.bss) for os_rdy
    rt_task.o(i.rt_tsk_self) refers to rt_task.o(.data) for .data
    rt_mutex.o(i.rt_mut_delete) refers to rt_list.o(i.rt_resort_prio) for rt_resort_prio
    rt_mutex.o(i.rt_mut_delete) refers to rt_list.o(i.rt_get_first) for rt_get_first
    rt_mutex.o(i.rt_mut_delete) refers to hal_cm.o(i.rt_ret_val) for rt_ret_val
    rt_mutex.o(i.rt_mut_delete) refers to rt_list.o(i.rt_rmv_dly) for rt_rmv_dly
    rt_mutex.o(i.rt_mut_delete) refers to rt_list.o(i.rt_put_prio) for rt_put_prio
    rt_mutex.o(i.rt_mut_delete) refers to rt_task.o(i.rt_dispatch) for rt_dispatch
    rt_mutex.o(i.rt_mut_delete) refers to rt_task.o(.data) for os_tsk
    rt_mutex.o(i.rt_mut_delete) refers to rt_list.o(.bss) for os_rdy
    rt_mutex.o(i.rt_mut_release) refers to rt_list.o(i.rt_get_first) for rt_get_first
    rt_mutex.o(i.rt_mut_release) refers to hal_cm.o(i.rt_ret_val) for rt_ret_val
    rt_mutex.o(i.rt_mut_release) refers to rt_list.o(i.rt_rmv_dly) for rt_rmv_dly
    rt_mutex.o(i.rt_mut_release) refers to rt_list.o(i.rt_put_prio) for rt_put_prio
    rt_mutex.o(i.rt_mut_release) refers to rt_task.o(i.rt_dispatch) for rt_dispatch
    rt_mutex.o(i.rt_mut_release) refers to rt_task.o(.data) for os_tsk
    rt_mutex.o(i.rt_mut_release) refers to rt_list.o(.bss) for os_rdy
    rt_mutex.o(i.rt_mut_wait) refers to rt_list.o(i.rt_resort_prio) for rt_resort_prio
    rt_mutex.o(i.rt_mut_wait) refers to rt_list.o(i.rt_put_prio) for rt_put_prio
    rt_mutex.o(i.rt_mut_wait) refers to rt_task.o(i.rt_block) for rt_block
    rt_mutex.o(i.rt_mut_wait) refers to rt_task.o(.data) for os_tsk
    charmap.o(i.GrMapISO8859_10_Unicode) refers to charmap.o(.constdata) for .constdata
    charmap.o(i.GrMapISO8859_13_Unicode) refers to charmap.o(.constdata) for .constdata
    charmap.o(i.GrMapISO8859_14_Unicode) refers to charmap.o(.constdata) for .constdata
    charmap.o(i.GrMapISO8859_16_Unicode) refers to charmap.o(.constdata) for .constdata
    charmap.o(i.GrMapISO8859_2_Unicode) refers to charmap.o(.constdata) for .constdata
    charmap.o(i.GrMapISO8859_3_Unicode) refers to charmap.o(.constdata) for .constdata
    charmap.o(i.GrMapISO8859_4_Unicode) refers to charmap.o(.constdata) for .constdata
    charmap.o(i.GrMapISO8859_7_Unicode) refers to charmap.o(.constdata) for .constdata
    charmap.o(i.GrMapUTF16BE_Unicode) refers to charmap.o(i.GrMapUTF16_Unicode) for GrMapUTF16_Unicode
    charmap.o(i.GrMapUTF16LE_Unicode) refers to charmap.o(i.GrMapUTF16_Unicode) for GrMapUTF16_Unicode
    charmap.o(i.GrMapWIN1250_Unicode) refers to charmap.o(.constdata) for .constdata
    charmap.o(i.GrMapWIN1251_Unicode) refers to charmap.o(.constdata) for .constdata
    charmap.o(i.GrMapWIN1252_Unicode) refers to charmap.o(.constdata) for .constdata
    charmap.o(i.GrMapWIN1253_Unicode) refers to charmap.o(.constdata) for .constdata
    charmap.o(i.GrMapWIN1254_Unicode) refers to charmap.o(.constdata) for .constdata
    rt_system.o(i.os_tick_init) refers to rtx_conf_cm.o(.constdata) for os_trv
    rt_system.o(i.os_tick_val) refers to rtx_conf_cm.o(.constdata) for os_trv
    rt_system.o(i.rt_pop_req) refers to rt_list.o(i.rt_put_rdy_first) for rt_put_rdy_first
    rt_system.o(i.rt_pop_req) refers to rt_semaphore.o(i.rt_sem_psh) for rt_sem_psh
    rt_system.o(i.rt_pop_req) refers to rt_list.o(i.rt_get_first) for rt_get_first
    rt_system.o(i.rt_pop_req) refers to rt_task.o(i.rt_switch_req) for rt_switch_req
    rt_system.o(i.rt_pop_req) refers to rt_event.o(i.rt_evt_psh) for rt_evt_psh
    rt_system.o(i.rt_pop_req) refers to rt_mailbox.o(i.rt_mbx_psh) for rt_mbx_psh
    rt_system.o(i.rt_pop_req) refers to rt_task.o(.data) for os_tsk
    rt_system.o(i.rt_pop_req) refers to rtx_conf_cm.o(.bss) for os_fifo
    rt_system.o(i.rt_pop_req) refers to rt_list.o(.bss) for os_rdy
    rt_system.o(i.rt_psh_req) refers to rt_system.o(.data) for .data
    rt_system.o(i.rt_resume) refers to rt_list.o(i.rt_put_rdy_first) for rt_put_rdy_first
    rt_system.o(i.rt_resume) refers to rt_list.o(i.rt_dec_dly) for rt_dec_dly
    rt_system.o(i.rt_resume) refers to rt_cmsis.o(i.sysUserTimerUpdate) for sysUserTimerUpdate
    rt_system.o(i.rt_resume) refers to rt_list.o(i.rt_get_first) for rt_get_first
    rt_system.o(i.rt_resume) refers to rt_task.o(i.rt_switch_req) for rt_switch_req
    rt_system.o(i.rt_resume) refers to rt_system.o(i.rt_tsk_unlock) for rt_tsk_unlock
    rt_system.o(i.rt_resume) refers to rt_task.o(.data) for os_tsk
    rt_system.o(i.rt_resume) refers to rt_robin.o(.data) for os_robin
    rt_system.o(i.rt_resume) refers to rt_list.o(.bss) for os_dly
    rt_system.o(i.rt_resume) refers to rt_time.o(.data) for os_time
    rt_system.o(i.rt_stk_check) refers to rtx_conf_cm.o(.text) for os_error
    rt_system.o(i.rt_stk_check) refers to rt_task.o(.data) for os_tsk
    rt_system.o(i.rt_suspend) refers to rt_system.o(i.rt_tsk_lock) for rt_tsk_lock
    rt_system.o(i.rt_suspend) refers to rt_cmsis.o(i.sysUserTimerWakeupTime) for sysUserTimerWakeupTime
    rt_system.o(i.rt_suspend) refers to rt_list.o(.bss) for os_dly
    rt_system.o(i.rt_systick) refers to rt_list.o(i.rt_put_rdy_first) for rt_put_rdy_first
    rt_system.o(i.rt_systick) refers to rt_robin.o(i.rt_chk_robin) for rt_chk_robin
    rt_system.o(i.rt_systick) refers to rt_list.o(i.rt_dec_dly) for rt_dec_dly
    rt_system.o(i.rt_systick) refers to rt_cmsis.o(i.sysTimerTick) for sysTimerTick
    rt_system.o(i.rt_systick) refers to rt_list.o(i.rt_get_first) for rt_get_first
    rt_system.o(i.rt_systick) refers to rt_task.o(i.rt_switch_req) for rt_switch_req
    rt_system.o(i.rt_systick) refers to rt_task.o(.data) for os_tsk
    rt_system.o(i.rt_systick) refers to rt_time.o(.data) for os_time
    rt_system.o(i.rt_systick) refers to rt_list.o(.bss) for os_rdy
    rt_system.o(i.rt_tsk_lock) refers to rt_system.o(.data) for .data
    rt_system.o(i.rt_tsk_unlock) refers to rt_system.o(.data) for .data
    rt_event.o(i.isr_evt_set) refers to rt_list.o(i.rt_psq_enq) for rt_psq_enq
    rt_event.o(i.isr_evt_set) refers to rt_system.o(i.rt_psh_req) for rt_psh_req
    rt_event.o(i.isr_evt_set) refers to rtx_conf_cm.o(.bss) for os_active_TCB
    rt_event.o(i.rt_evt_clr) refers to rtx_conf_cm.o(.bss) for os_active_TCB
    rt_event.o(i.rt_evt_get) refers to rt_task.o(.data) for os_tsk
    rt_event.o(i.rt_evt_psh) refers to rt_list.o(i.rt_rmv_dly) for rt_rmv_dly
    rt_event.o(i.rt_evt_psh) refers to hal_cm.o(i.rt_ret_val2) for rt_ret_val2
    rt_event.o(i.rt_evt_psh) refers to rt_list.o(i.rt_put_prio) for rt_put_prio
    rt_event.o(i.rt_evt_psh) refers to rt_list.o(.bss) for os_rdy
    rt_event.o(i.rt_evt_set) refers to rt_list.o(i.rt_rmv_dly) for rt_rmv_dly
    rt_event.o(i.rt_evt_set) refers to hal_cm.o(i.rt_ret_val2) for rt_ret_val2
    rt_event.o(i.rt_evt_set) refers to rt_task.o(i.rt_dispatch) for rt_dispatch
    rt_event.o(i.rt_evt_set) refers to rtx_conf_cm.o(.bss) for os_active_TCB
    rt_event.o(i.rt_evt_wait) refers to rt_task.o(i.rt_block) for rt_block
    rt_event.o(i.rt_evt_wait) refers to rt_task.o(.data) for os_tsk
    rt_list.o(i.rt_dec_dly) refers to rt_list.o(i.rt_put_prio) for rt_put_prio
    rt_list.o(i.rt_dec_dly) refers to rt_list.o(.bss) for .bss
    rt_list.o(i.rt_dec_dly) refers to rt_time.o(.data) for os_time
    rt_list.o(i.rt_get_same_rdy_prio) refers to rt_list.o(.bss) for .bss
    rt_list.o(i.rt_get_same_rdy_prio) refers to rt_task.o(.data) for os_tsk
    rt_list.o(i.rt_psq_enq) refers to rtx_conf_cm.o(.text) for os_error
    rt_list.o(i.rt_psq_enq) refers to rtx_conf_cm.o(.bss) for os_fifo
    rt_list.o(i.rt_put_dly) refers to rt_list.o(.bss) for .bss
    rt_list.o(i.rt_put_rdy_first) refers to rt_list.o(.bss) for .bss
    rt_list.o(i.rt_resort_prio) refers to rt_list.o(i.rt_rmv_list) for rt_rmv_list
    rt_list.o(i.rt_resort_prio) refers to rt_list.o(i.rt_put_prio) for rt_put_prio
    rt_list.o(i.rt_resort_prio) refers to rt_list.o(.bss) for .bss
    rt_list.o(i.rt_rmv_list) refers to rt_list.o(.bss) for .bss
    rt_mailbox.o(i.isr_mbx_receive) refers to rt_list.o(i.rt_psq_enq) for rt_psq_enq
    rt_mailbox.o(i.isr_mbx_receive) refers to rt_system.o(i.rt_psh_req) for rt_psh_req
    rt_mailbox.o(i.isr_mbx_send) refers to rt_list.o(i.rt_psq_enq) for rt_psq_enq
    rt_mailbox.o(i.isr_mbx_send) refers to rt_system.o(i.rt_psh_req) for rt_psh_req
    rt_mailbox.o(i.rt_mbx_psh) refers to rt_membox.o(i.rt_alloc_box) for rt_alloc_box
    rt_mailbox.o(i.rt_mbx_psh) refers to rt_list.o(i.rt_get_first) for rt_get_first
    rt_mailbox.o(i.rt_mbx_psh) refers to hal_cm.o(i.rt_ret_val) for rt_ret_val
    rt_mailbox.o(i.rt_mbx_psh) refers to rt_list.o(i.rt_rmv_dly) for rt_rmv_dly
    rt_mailbox.o(i.rt_mbx_psh) refers to rt_list.o(i.rt_put_prio) for rt_put_prio
    rt_mailbox.o(i.rt_mbx_psh) refers to hal_cm.o(i.rt_ret_val2) for rt_ret_val2
    rt_mailbox.o(i.rt_mbx_psh) refers to rtx_conf_cm.o(.text) for os_error
    rt_mailbox.o(i.rt_mbx_psh) refers to rt_list.o(.bss) for os_rdy
    rt_mailbox.o(i.rt_mbx_send) refers to rt_list.o(i.rt_put_prio) for rt_put_prio
    rt_mailbox.o(i.rt_mbx_send) refers to rt_list.o(i.rt_get_first) for rt_get_first
    rt_mailbox.o(i.rt_mbx_send) refers to hal_cm.o(i.rt_ret_val2) for rt_ret_val2
    rt_mailbox.o(i.rt_mbx_send) refers to rt_list.o(i.rt_rmv_dly) for rt_rmv_dly
    rt_mailbox.o(i.rt_mbx_send) refers to rt_task.o(i.rt_dispatch) for rt_dispatch
    rt_mailbox.o(i.rt_mbx_send) refers to rt_task.o(i.rt_block) for rt_block
    rt_mailbox.o(i.rt_mbx_send) refers to rt_task.o(.data) for os_tsk
    rt_mailbox.o(i.rt_mbx_wait) refers to rt_list.o(i.rt_get_first) for rt_get_first
    rt_mailbox.o(i.rt_mbx_wait) refers to hal_cm.o(i.rt_ret_val) for rt_ret_val
    rt_mailbox.o(i.rt_mbx_wait) refers to rt_list.o(i.rt_rmv_dly) for rt_rmv_dly
    rt_mailbox.o(i.rt_mbx_wait) refers to rt_task.o(i.rt_dispatch) for rt_dispatch
    rt_mailbox.o(i.rt_mbx_wait) refers to rt_list.o(i.rt_put_prio) for rt_put_prio
    rt_mailbox.o(i.rt_mbx_wait) refers to rt_task.o(i.rt_block) for rt_block
    rt_mailbox.o(i.rt_mbx_wait) refers to rt_task.o(.data) for os_tsk
    rt_semaphore.o(i.isr_sem_send) refers to rt_list.o(i.rt_psq_enq) for rt_psq_enq
    rt_semaphore.o(i.isr_sem_send) refers to rt_system.o(i.rt_psh_req) for rt_psh_req
    rt_semaphore.o(i.rt_sem_delete) refers to rt_list.o(i.rt_get_first) for rt_get_first
    rt_semaphore.o(i.rt_sem_delete) refers to hal_cm.o(i.rt_ret_val) for rt_ret_val
    rt_semaphore.o(i.rt_sem_delete) refers to rt_list.o(i.rt_rmv_dly) for rt_rmv_dly
    rt_semaphore.o(i.rt_sem_delete) refers to rt_list.o(i.rt_put_prio) for rt_put_prio
    rt_semaphore.o(i.rt_sem_delete) refers to rt_task.o(i.rt_dispatch) for rt_dispatch
    rt_semaphore.o(i.rt_sem_delete) refers to rt_list.o(.bss) for os_rdy
    rt_semaphore.o(i.rt_sem_delete) refers to rt_task.o(.data) for os_tsk
    rt_semaphore.o(i.rt_sem_psh) refers to rt_list.o(i.rt_get_first) for rt_get_first
    rt_semaphore.o(i.rt_sem_psh) refers to rt_list.o(i.rt_rmv_dly) for rt_rmv_dly
    rt_semaphore.o(i.rt_sem_psh) refers to hal_cm.o(i.rt_ret_val) for rt_ret_val
    rt_semaphore.o(i.rt_sem_psh) refers to rt_list.o(i.rt_put_prio) for rt_put_prio
    rt_semaphore.o(i.rt_sem_psh) refers to rt_list.o(.bss) for os_rdy
    rt_semaphore.o(i.rt_sem_send) refers to rt_list.o(i.rt_get_first) for rt_get_first
    rt_semaphore.o(i.rt_sem_send) refers to hal_cm.o(i.rt_ret_val) for rt_ret_val
    rt_semaphore.o(i.rt_sem_send) refers to rt_list.o(i.rt_rmv_dly) for rt_rmv_dly
    rt_semaphore.o(i.rt_sem_send) refers to rt_task.o(i.rt_dispatch) for rt_dispatch
    rt_semaphore.o(i.rt_sem_wait) refers to rt_list.o(i.rt_put_prio) for rt_put_prio
    rt_semaphore.o(i.rt_sem_wait) refers to rt_task.o(i.rt_block) for rt_block
    rt_semaphore.o(i.rt_sem_wait) refers to rt_task.o(.data) for os_tsk
    rt_time.o(i.rt_dly_wait) refers to rt_task.o(i.rt_block) for rt_block
    rt_time.o(i.rt_itv_set) refers to rt_task.o(.data) for os_tsk
    rt_time.o(i.rt_itv_set) refers to rt_time.o(.data) for .data
    rt_time.o(i.rt_itv_wait) refers to rt_task.o(i.rt_block) for rt_block
    rt_time.o(i.rt_itv_wait) refers to rt_task.o(.data) for os_tsk
    rt_time.o(i.rt_itv_wait) refers to rt_time.o(.data) for .data
    rt_time.o(i.rt_time_get) refers to rt_time.o(.data) for .data
    rt_robin.o(i.rt_chk_robin) refers to rt_list.o(i.rt_get_first) for rt_get_first
    rt_robin.o(i.rt_chk_robin) refers to rt_list.o(i.rt_put_prio) for rt_put_prio
    rt_robin.o(i.rt_chk_robin) refers to rt_robin.o(.data) for .data
    rt_robin.o(i.rt_chk_robin) refers to rt_list.o(.bss) for os_rdy
    rt_robin.o(i.rt_chk_robin) refers to rt_time.o(.data) for os_time
    rt_robin.o(i.rt_init_robin) refers to rt_robin.o(.data) for .data
    rt_robin.o(i.rt_init_robin) refers to rtx_conf_cm.o(.constdata) for os_rrobin
    rt_membox.o(i._calloc_box) refers to hal_cm4.o(.emb_text) for _alloc_box
    hal_cm.o(i.dbg_init) refers to hal_cm.o(.data) for .data
    hal_cm.o(i.rt_init_stack) refers to rtx_conf_cm.o(.constdata) for os_stackinfo
    hal_cm.o(i.rt_ret_val) refers to hal_cm.o(i.rt_ret_regs) for rt_ret_regs
    hal_cm.o(i.rt_ret_val2) refers to hal_cm.o(i.rt_ret_regs) for rt_ret_regs
    hal_cm4.o(.emb_text) refers to rtx_conf_cm.o(.constdata) for os_flags
    hal_cm4.o(.emb_text) refers to rt_membox.o(i.rt_alloc_box) for rt_alloc_box
    hal_cm4.o(.emb_text) refers to rt_membox.o(i.rt_free_box) for rt_free_box
    hal_cm4.o(.emb_text) refers to rt_system.o(i.rt_stk_check) for rt_stk_check
    hal_cm4.o(.emb_text) refers to rt_task.o(.data) for os_tsk
    hal_cm4.o(.emb_text) refers to svc_table.o(SVC_TABLE) for SVC_Count
    hal_cm4.o(.emb_text) refers to rt_system.o(i.rt_pop_req) for rt_pop_req
    hal_cm4.o(.emb_text) refers to rt_system.o(i.rt_systick) for rt_systick
    hal_cm4.o(.emb_text) refers to rt_system.o(i.os_tick_irqack) for os_tick_irqack
    libspace.o(.text) refers to libspace.o(.bss) for __libspace_start
    llsdiv.o(.text) refers to lludivv7m.o(.text) for __aeabi_uldivmod
    exit.o(.text) refers to rtexit.o(.ARM.Collect$$rtexit$$00000000) for __rt_exit
    __main.o(!!!main) refers to __rtentry.o(.ARM.Collect$$rtentry$$00000000) for __rt_entry
    d2f.o(x$fpl$d2f) refers (Special) to usenofp.o(x$fpl$usenofp) for __I$use$fp
    d2f.o(x$fpl$d2f) refers to fretinf.o(x$fpl$fretinf) for __fpl_fretinf
    d2f.o(x$fpl$d2f) refers to dnaninf.o(x$fpl$dnaninf) for __fpl_dnaninf
    daddsub_clz.o(x$fpl$dadd) refers (Special) to usenofp.o(x$fpl$usenofp) for __I$use$fp
    daddsub_clz.o(x$fpl$dadd) refers to daddsub_clz.o(x$fpl$dsub) for _dsub1
    daddsub_clz.o(x$fpl$dadd) refers to dretinf.o(x$fpl$dretinf) for __fpl_dretinf
    daddsub_clz.o(x$fpl$dadd) refers to dnaninf.o(x$fpl$dnaninf) for __fpl_dnaninf
    daddsub_clz.o(x$fpl$drsb) refers (Special) to usenofp.o(x$fpl$usenofp) for __I$use$fp
    daddsub_clz.o(x$fpl$drsb) refers to daddsub_clz.o(x$fpl$dadd) for _dadd1
    daddsub_clz.o(x$fpl$drsb) refers to daddsub_clz.o(x$fpl$dsub) for _dsub1
    daddsub_clz.o(x$fpl$dsub) refers (Special) to usenofp.o(x$fpl$usenofp) for __I$use$fp
    daddsub_clz.o(x$fpl$dsub) refers to daddsub_clz.o(x$fpl$dadd) for _dadd1
    daddsub_clz.o(x$fpl$dsub) refers to dnaninf.o(x$fpl$dnaninf) for __fpl_dnaninf
    ddiv.o(x$fpl$drdiv) refers (Special) to usenofp.o(x$fpl$usenofp) for __I$use$fp
    ddiv.o(x$fpl$drdiv) refers to ddiv.o(x$fpl$ddiv) for ddiv_entry
    ddiv.o(x$fpl$ddiv) refers (Special) to usenofp.o(x$fpl$usenofp) for __I$use$fp
    ddiv.o(x$fpl$ddiv) refers to dretinf.o(x$fpl$dretinf) for __fpl_dretinf
    ddiv.o(x$fpl$ddiv) refers to dnaninf.o(x$fpl$dnaninf) for __fpl_dnaninf
    dfix.o(x$fpl$dfix) refers (Special) to usenofp.o(x$fpl$usenofp) for __I$use$fp
    dfix.o(x$fpl$dfix) refers to dnaninf.o(x$fpl$dnaninf) for __fpl_dnaninf
    dfix.o(x$fpl$dfixr) refers (Special) to usenofp.o(x$fpl$usenofp) for __I$use$fp
    dfix.o(x$fpl$dfixr) refers to dnaninf.o(x$fpl$dnaninf) for __fpl_dnaninf
    dfixu.o(x$fpl$dfixu) refers (Special) to usenofp.o(x$fpl$usenofp) for __I$use$fp
    dfixu.o(x$fpl$dfixu) refers to dnaninf.o(x$fpl$dnaninf) for __fpl_dnaninf
    dfixu.o(x$fpl$dfixur) refers (Special) to usenofp.o(x$fpl$usenofp) for __I$use$fp
    dfixu.o(x$fpl$dfixur) refers to dnaninf.o(x$fpl$dnaninf) for __fpl_dnaninf
    dflt_clz.o(x$fpl$dfltu) refers (Special) to usenofp.o(x$fpl$usenofp) for __I$use$fp
    dflt_clz.o(x$fpl$dflt) refers (Special) to usenofp.o(x$fpl$usenofp) for __I$use$fp
    dflt_clz.o(x$fpl$dfltn) refers (Special) to usenofp.o(x$fpl$usenofp) for __I$use$fp
    dmul.o(x$fpl$dmul) refers (Special) to usenofp.o(x$fpl$usenofp) for __I$use$fp
    dmul.o(x$fpl$dmul) refers to dretinf.o(x$fpl$dretinf) for __fpl_dretinf
    dmul.o(x$fpl$dmul) refers to dnaninf.o(x$fpl$dnaninf) for __fpl_dnaninf
    f2d.o(x$fpl$f2d) refers (Special) to usenofp.o(x$fpl$usenofp) for __I$use$fp
    f2d.o(x$fpl$f2d) refers to fnaninf.o(x$fpl$fnaninf) for __fpl_fnaninf
    f2d.o(x$fpl$f2d) refers to dretinf.o(x$fpl$dretinf) for __fpl_dretinf
    ffixll.o(x$fpl$llsfromf) refers (Special) to usenofp.o(x$fpl$usenofp) for __I$use$fp
    ffixll.o(x$fpl$llsfromf) refers to fnaninf.o(x$fpl$fnaninf) for __fpl_fnaninf
    ffixll.o(x$fpl$llsfromfr) refers (Special) to usenofp.o(x$fpl$usenofp) for __I$use$fp
    ffixll.o(x$fpl$llsfromfr) refers to fnaninf.o(x$fpl$fnaninf) for __fpl_fnaninf
    asin.o(i.__hardfp_asin) refers (Special) to usenofp.o(x$fpl$usenofp) for __I$use$fp
    asin.o(i.__hardfp_asin) refers to dunder.o(i.__mathlib_dbl_infnan) for __mathlib_dbl_infnan
    asin.o(i.__hardfp_asin) refers to dmul.o(x$fpl$dmul) for __aeabi_dmul
    asin.o(i.__hardfp_asin) refers to daddsub_clz.o(x$fpl$dadd) for __aeabi_dadd
    asin.o(i.__hardfp_asin) refers to _rserrno.o(.text) for __set_errno
    asin.o(i.__hardfp_asin) refers to dunder.o(i.__mathlib_dbl_invalid) for __mathlib_dbl_invalid
    asin.o(i.__hardfp_asin) refers to fpclassify.o(i.__ARM_fpclassify) for __ARM_fpclassify
    asin.o(i.__hardfp_asin) refers to dunder.o(i.__mathlib_dbl_underflow) for __mathlib_dbl_underflow
    asin.o(i.__hardfp_asin) refers to poly.o(i.__kernel_poly) for __kernel_poly
    asin.o(i.__hardfp_asin) refers to ddiv.o(x$fpl$ddiv) for __aeabi_ddiv
    asin.o(i.__hardfp_asin) refers to fabs.o(i.fabs) for fabs
    asin.o(i.__hardfp_asin) refers to daddsub_clz.o(x$fpl$drsb) for __aeabi_drsub
    asin.o(i.__hardfp_asin) refers to sqrt.o(i.sqrt) for sqrt
    asin.o(i.__hardfp_asin) refers to daddsub_clz.o(x$fpl$dsub) for __aeabi_dsub
    asin.o(i.__hardfp_asin) refers to basic.o(x$fpl$basic) for __aeabi_dneg
    asin.o(i.__hardfp_asin) refers to asin.o(.constdata) for .constdata
    asin.o(i.__softfp_asin) refers (Special) to usenofp.o(x$fpl$usenofp) for __I$use$fp
    asin.o(i.__softfp_asin) refers to asin.o(i.__hardfp_asin) for __hardfp_asin
    asin.o(i.asin) refers (Special) to usenofp.o(x$fpl$usenofp) for __I$use$fp
    asin.o(i.asin) refers to asin.o(i.__hardfp_asin) for __hardfp_asin
    asin.o(.constdata) refers (Special) to usenofp.o(x$fpl$usenofp) for __I$use$fp
    asin_x.o(i.____hardfp_asin$lsc) refers (Special) to usenofp.o(x$fpl$usenofp) for __I$use$fp
    asin_x.o(i.____hardfp_asin$lsc) refers to dunder.o(i.__mathlib_dbl_infnan) for __mathlib_dbl_infnan
    asin_x.o(i.____hardfp_asin$lsc) refers to dmul.o(x$fpl$dmul) for __aeabi_dmul
    asin_x.o(i.____hardfp_asin$lsc) refers to daddsub_clz.o(x$fpl$dadd) for __aeabi_dadd
    asin_x.o(i.____hardfp_asin$lsc) refers to _rserrno.o(.text) for __set_errno
    asin_x.o(i.____hardfp_asin$lsc) refers to poly.o(i.__kernel_poly) for __kernel_poly
    asin_x.o(i.____hardfp_asin$lsc) refers to ddiv.o(x$fpl$ddiv) for __aeabi_ddiv
    asin_x.o(i.____hardfp_asin$lsc) refers to fabs.o(i.fabs) for fabs
    asin_x.o(i.____hardfp_asin$lsc) refers to daddsub_clz.o(x$fpl$drsb) for __aeabi_drsub
    asin_x.o(i.____hardfp_asin$lsc) refers to sqrt.o(i.sqrt) for sqrt
    asin_x.o(i.____hardfp_asin$lsc) refers to daddsub_clz.o(x$fpl$dsub) for __aeabi_dsub
    asin_x.o(i.____hardfp_asin$lsc) refers to basic.o(x$fpl$basic) for __aeabi_dneg
    asin_x.o(i.____hardfp_asin$lsc) refers to asin_x.o(.constdata) for .constdata
    asin_x.o(i.____softfp_asin$lsc) refers (Special) to usenofp.o(x$fpl$usenofp) for __I$use$fp
    asin_x.o(i.____softfp_asin$lsc) refers to asin_x.o(i.____hardfp_asin$lsc) for ____hardfp_asin$lsc
    asin_x.o(i.__asin$lsc) refers (Special) to usenofp.o(x$fpl$usenofp) for __I$use$fp
    asin_x.o(i.__asin$lsc) refers to asin_x.o(i.____hardfp_asin$lsc) for ____hardfp_asin$lsc
    asin_x.o(.constdata) refers (Special) to usenofp.o(x$fpl$usenofp) for __I$use$fp
    atan.o(i.__hardfp_atan) refers (Special) to usenofp.o(x$fpl$usenofp) for __I$use$fp
    atan.o(i.__hardfp_atan) refers to dunder.o(i.__mathlib_dbl_infnan) for __mathlib_dbl_infnan
    atan.o(i.__hardfp_atan) refers to fpclassify.o(i.__ARM_fpclassify) for __ARM_fpclassify
    atan.o(i.__hardfp_atan) refers to dunder.o(i.__mathlib_dbl_underflow) for __mathlib_dbl_underflow
    atan.o(i.__hardfp_atan) refers to fabs.o(i.fabs) for fabs
    atan.o(i.__hardfp_atan) refers to daddsub_clz.o(x$fpl$dadd) for __aeabi_dadd
    atan.o(i.__hardfp_atan) refers to dmul.o(x$fpl$dmul) for __aeabi_dmul
    atan.o(i.__hardfp_atan) refers to daddsub_clz.o(x$fpl$dsub) for __aeabi_dsub
    atan.o(i.__hardfp_atan) refers to ddiv.o(x$fpl$ddiv) for __aeabi_ddiv
    atan.o(i.__hardfp_atan) refers to poly.o(i.__kernel_poly) for __kernel_poly
    atan.o(i.__hardfp_atan) refers to daddsub_clz.o(x$fpl$drsb) for __aeabi_drsub
    atan.o(i.__hardfp_atan) refers to basic.o(x$fpl$basic) for __aeabi_dneg
    atan.o(i.__hardfp_atan) refers to atan.o(.constdata) for .constdata
    atan.o(i.__softfp_atan) refers (Special) to usenofp.o(x$fpl$usenofp) for __I$use$fp
    atan.o(i.__softfp_atan) refers to atan.o(i.__hardfp_atan) for __hardfp_atan
    atan.o(i.atan) refers (Special) to usenofp.o(x$fpl$usenofp) for __I$use$fp
    atan.o(i.atan) refers to atan.o(i.__hardfp_atan) for __hardfp_atan
    atan.o(.constdata) refers (Special) to usenofp.o(x$fpl$usenofp) for __I$use$fp
    atan_x.o(i.____hardfp_atan$lsc) refers (Special) to usenofp.o(x$fpl$usenofp) for __I$use$fp
    atan_x.o(i.____hardfp_atan$lsc) refers to dunder.o(i.__mathlib_dbl_infnan) for __mathlib_dbl_infnan
    atan_x.o(i.____hardfp_atan$lsc) refers to fabs.o(i.fabs) for fabs
    atan_x.o(i.____hardfp_atan$lsc) refers to daddsub_clz.o(x$fpl$dadd) for __aeabi_dadd
    atan_x.o(i.____hardfp_atan$lsc) refers to dmul.o(x$fpl$dmul) for __aeabi_dmul
    atan_x.o(i.____hardfp_atan$lsc) refers to daddsub_clz.o(x$fpl$dsub) for __aeabi_dsub
    atan_x.o(i.____hardfp_atan$lsc) refers to ddiv.o(x$fpl$ddiv) for __aeabi_ddiv
    atan_x.o(i.____hardfp_atan$lsc) refers to poly.o(i.__kernel_poly) for __kernel_poly
    atan_x.o(i.____hardfp_atan$lsc) refers to daddsub_clz.o(x$fpl$drsb) for __aeabi_drsub
    atan_x.o(i.____hardfp_atan$lsc) refers to basic.o(x$fpl$basic) for __aeabi_dneg
    atan_x.o(i.____hardfp_atan$lsc) refers to atan_x.o(.constdata) for .constdata
    atan_x.o(i.____softfp_atan$lsc) refers (Special) to usenofp.o(x$fpl$usenofp) for __I$use$fp
    atan_x.o(i.____softfp_atan$lsc) refers to atan_x.o(i.____hardfp_atan$lsc) for ____hardfp_atan$lsc
    atan_x.o(i.__atan$lsc) refers (Special) to usenofp.o(x$fpl$usenofp) for __I$use$fp
    atan_x.o(i.__atan$lsc) refers to atan_x.o(i.____hardfp_atan$lsc) for ____hardfp_atan$lsc
    atan_x.o(.constdata) refers (Special) to usenofp.o(x$fpl$usenofp) for __I$use$fp
    sin.o(i.__hardfp_sin) refers (Special) to usenofp.o(x$fpl$usenofp) for __I$use$fp
    sin.o(i.__hardfp_sin) refers to _rserrno.o(.text) for __set_errno
    sin.o(i.__hardfp_sin) refers to dunder.o(i.__mathlib_dbl_invalid) for __mathlib_dbl_invalid
    sin.o(i.__hardfp_sin) refers to dunder.o(i.__mathlib_dbl_infnan) for __mathlib_dbl_infnan
    sin.o(i.__hardfp_sin) refers to rred.o(i.__ieee754_rem_pio2) for __ieee754_rem_pio2
    sin.o(i.__hardfp_sin) refers to cos_i.o(i.__kernel_cos) for __kernel_cos
    sin.o(i.__hardfp_sin) refers to basic.o(x$fpl$basic) for __aeabi_dneg
    sin.o(i.__hardfp_sin) refers to sin_i.o(i.__kernel_sin) for __kernel_sin
    sin.o(i.__softfp_sin) refers (Special) to usenofp.o(x$fpl$usenofp) for __I$use$fp
    sin.o(i.__softfp_sin) refers to sin.o(i.__hardfp_sin) for __hardfp_sin
    sin.o(i.sin) refers (Special) to usenofp.o(x$fpl$usenofp) for __I$use$fp
    sin.o(i.sin) refers to sin.o(i.__hardfp_sin) for __hardfp_sin
    sin_x.o(i.____hardfp_sin$lsc) refers (Special) to usenofp.o(x$fpl$usenofp) for __I$use$fp
    sin_x.o(i.____hardfp_sin$lsc) refers to _rserrno.o(.text) for __set_errno
    sin_x.o(i.____hardfp_sin$lsc) refers to dunder.o(i.__mathlib_dbl_infnan) for __mathlib_dbl_infnan
    sin_x.o(i.____hardfp_sin$lsc) refers to rred.o(i.__ieee754_rem_pio2) for __ieee754_rem_pio2
    sin_x.o(i.____hardfp_sin$lsc) refers to cos_i.o(i.__kernel_cos) for __kernel_cos
    sin_x.o(i.____hardfp_sin$lsc) refers to basic.o(x$fpl$basic) for __aeabi_dneg
    sin_x.o(i.____hardfp_sin$lsc) refers to sin_i.o(i.__kernel_sin) for __kernel_sin
    sin_x.o(i.____softfp_sin$lsc) refers (Special) to usenofp.o(x$fpl$usenofp) for __I$use$fp
    sin_x.o(i.____softfp_sin$lsc) refers to sin_x.o(i.____hardfp_sin$lsc) for ____hardfp_sin$lsc
    sin_x.o(i.__sin$lsc) refers (Special) to usenofp.o(x$fpl$usenofp) for __I$use$fp
    sin_x.o(i.__sin$lsc) refers to sin_x.o(i.____hardfp_sin$lsc) for ____hardfp_sin$lsc
    tan.o(i.__hardfp_tan) refers (Special) to usenofp.o(x$fpl$usenofp) for __I$use$fp
    tan.o(i.__hardfp_tan) refers to _rserrno.o(.text) for __set_errno
    tan.o(i.__hardfp_tan) refers to dunder.o(i.__mathlib_dbl_invalid) for __mathlib_dbl_invalid
    tan.o(i.__hardfp_tan) refers to dunder.o(i.__mathlib_dbl_infnan) for __mathlib_dbl_infnan
    tan.o(i.__hardfp_tan) refers to rred.o(i.__ieee754_rem_pio2) for __ieee754_rem_pio2
    tan.o(i.__hardfp_tan) refers to tan_i.o(i.__kernel_tan) for __kernel_tan
    tan.o(i.__softfp_tan) refers (Special) to usenofp.o(x$fpl$usenofp) for __I$use$fp
    tan.o(i.__softfp_tan) refers to _rserrno.o(.text) for __set_errno
    tan.o(i.__softfp_tan) refers to dunder.o(i.__mathlib_dbl_invalid) for __mathlib_dbl_invalid
    tan.o(i.__softfp_tan) refers to dunder.o(i.__mathlib_dbl_infnan) for __mathlib_dbl_infnan
    tan.o(i.__softfp_tan) refers to rred.o(i.__ieee754_rem_pio2) for __ieee754_rem_pio2
    tan.o(i.__softfp_tan) refers to tan_i.o(i.__kernel_tan) for __kernel_tan
    tan.o(i.tan) refers (Special) to usenofp.o(x$fpl$usenofp) for __I$use$fp
    tan.o(i.tan) refers to _rserrno.o(.text) for __set_errno
    tan.o(i.tan) refers to dunder.o(i.__mathlib_dbl_invalid) for __mathlib_dbl_invalid
    tan.o(i.tan) refers to dunder.o(i.__mathlib_dbl_infnan) for __mathlib_dbl_infnan
    tan.o(i.tan) refers to rred.o(i.__ieee754_rem_pio2) for __ieee754_rem_pio2
    tan.o(i.tan) refers to tan_i.o(i.__kernel_tan) for __kernel_tan
    tan_x.o(i.____hardfp_tan$lsc) refers (Special) to usenofp.o(x$fpl$usenofp) for __I$use$fp
    tan_x.o(i.____hardfp_tan$lsc) refers to _rserrno.o(.text) for __set_errno
    tan_x.o(i.____hardfp_tan$lsc) refers to dunder.o(i.__mathlib_dbl_infnan) for __mathlib_dbl_infnan
    tan_x.o(i.____hardfp_tan$lsc) refers to rred.o(i.__ieee754_rem_pio2) for __ieee754_rem_pio2
    tan_x.o(i.____hardfp_tan$lsc) refers to tan_i.o(i.__kernel_tan) for __kernel_tan
    tan_x.o(i.____softfp_tan$lsc) refers (Special) to usenofp.o(x$fpl$usenofp) for __I$use$fp
    tan_x.o(i.____softfp_tan$lsc) refers to _rserrno.o(.text) for __set_errno
    tan_x.o(i.____softfp_tan$lsc) refers to dunder.o(i.__mathlib_dbl_infnan) for __mathlib_dbl_infnan
    tan_x.o(i.____softfp_tan$lsc) refers to rred.o(i.__ieee754_rem_pio2) for __ieee754_rem_pio2
    tan_x.o(i.____softfp_tan$lsc) refers to tan_i.o(i.__kernel_tan) for __kernel_tan
    tan_x.o(i.__tan$lsc) refers (Special) to usenofp.o(x$fpl$usenofp) for __I$use$fp
    tan_x.o(i.__tan$lsc) refers to _rserrno.o(.text) for __set_errno
    tan_x.o(i.__tan$lsc) refers to dunder.o(i.__mathlib_dbl_infnan) for __mathlib_dbl_infnan
    tan_x.o(i.__tan$lsc) refers to rred.o(i.__ieee754_rem_pio2) for __ieee754_rem_pio2
    tan_x.o(i.__tan$lsc) refers to tan_i.o(i.__kernel_tan) for __kernel_tan
    __rtentry.o(.ARM.Collect$$rtentry$$00000000) refers (Special) to __rtentry2.o(.ARM.Collect$$rtentry$$0000000A) for __rt_entry_li
    __rtentry.o(.ARM.Collect$$rtentry$$00000000) refers (Special) to __rtentry2.o(.ARM.Collect$$rtentry$$0000000D) for __rt_entry_main
    __rtentry.o(.ARM.Collect$$rtentry$$00000000) refers (Special) to __rtentry2.o(.ARM.Collect$$rtentry$$0000000B) for __rt_entry_postli_1
    __rtentry.o(.ARM.Collect$$rtentry$$00000000) refers (Special) to __rtentry2.o(.ARM.Collect$$rtentry$$00000009) for __rt_entry_postsh_1
    __rtentry.o(.ARM.Collect$$rtentry$$00000000) refers (Special) to __rtentry2.o(.ARM.Collect$$rtentry$$00000002) for __rt_entry_presh_1
    __rtentry.o(.ARM.Collect$$rtentry$$00000000) refers (Special) to __rtentry4.o(.ARM.Collect$$rtentry$$00000004) for __rt_entry_sh
    rtexit.o(.ARM.Collect$$rtexit$$00000000) refers (Special) to rtexit2.o(.ARM.Collect$$rtexit$$00000004) for __rt_exit_exit
    rtexit.o(.ARM.Collect$$rtexit$$00000000) refers (Special) to rtexit2.o(.ARM.Collect$$rtexit$$00000003) for __rt_exit_ls
    rtexit.o(.ARM.Collect$$rtexit$$00000000) refers (Special) to rtexit2.o(.ARM.Collect$$rtexit$$00000002) for __rt_exit_prels_1
    rtexit.o(.ARM.exidx) refers (Special) to rtexit2.o(.ARM.Collect$$rtexit$$00000004) for __rt_exit_exit
    rtexit.o(.ARM.exidx) refers (Special) to rtexit2.o(.ARM.Collect$$rtexit$$00000003) for __rt_exit_ls
    rtexit.o(.ARM.exidx) refers (Special) to rtexit2.o(.ARM.Collect$$rtexit$$00000002) for __rt_exit_prels_1
    rtexit.o(.ARM.exidx) refers to rtexit.o(.ARM.Collect$$rtexit$$00000000) for .ARM.Collect$$rtexit$$00000000
    aeabi_ldiv0_sigfpe.o(.text) refers to rt_div0.o(.text) for __rt_div0
    _rserrno.o(.text) refers to rt_errno_addr_twolibspace.o(.text) for __aeabi_errno_addr
    basic.o(x$fpl$basic) refers (Special) to usenofp.o(x$fpl$usenofp) for __I$use$fp
    dnaninf.o(x$fpl$dnaninf) refers (Special) to usenofp.o(x$fpl$usenofp) for __I$use$fp
    dretinf.o(x$fpl$dretinf) refers (Special) to usenofp.o(x$fpl$usenofp) for __I$use$fp
    fnaninf.o(x$fpl$fnaninf) refers (Special) to usenofp.o(x$fpl$usenofp) for __I$use$fp
    fretinf.o(x$fpl$fretinf) refers (Special) to usenofp.o(x$fpl$usenofp) for __I$use$fp
    cos_i.o(i.__kernel_cos) refers (Special) to usenofp.o(x$fpl$usenofp) for __I$use$fp
    cos_i.o(i.__kernel_cos) refers to dfix.o(x$fpl$dfix) for __aeabi_d2iz
    cos_i.o(i.__kernel_cos) refers to dmul.o(x$fpl$dmul) for __aeabi_dmul
    cos_i.o(i.__kernel_cos) refers to poly.o(i.__kernel_poly) for __kernel_poly
    cos_i.o(i.__kernel_cos) refers to daddsub_clz.o(x$fpl$dsub) for __aeabi_dsub
    cos_i.o(i.__kernel_cos) refers to daddsub_clz.o(x$fpl$drsb) for __aeabi_drsub
    cos_i.o(i.__kernel_cos) refers to cos_i.o(.constdata) for .constdata
    cos_i.o(.constdata) refers (Special) to usenofp.o(x$fpl$usenofp) for __I$use$fp
    dunder.o(i.__mathlib_dbl_divzero) refers to ddiv.o(x$fpl$ddiv) for __aeabi_ddiv
    dunder.o(i.__mathlib_dbl_infnan) refers to daddsub_clz.o(x$fpl$dadd) for __aeabi_dadd
    dunder.o(i.__mathlib_dbl_infnan2) refers to daddsub_clz.o(x$fpl$dadd) for __aeabi_dadd
    dunder.o(i.__mathlib_dbl_invalid) refers to ddiv.o(x$fpl$ddiv) for __aeabi_ddiv
    dunder.o(i.__mathlib_dbl_overflow) refers to dmul.o(x$fpl$dmul) for __aeabi_dmul
    dunder.o(i.__mathlib_dbl_posinfnan) refers to dmul.o(x$fpl$dmul) for __aeabi_dmul
    dunder.o(i.__mathlib_dbl_underflow) refers to dmul.o(x$fpl$dmul) for __aeabi_dmul
    fabs.o(i.__hardfp_fabs) refers (Special) to usenofp.o(x$fpl$usenofp) for __I$use$fp
    fabs.o(i.__softfp_fabs) refers (Special) to usenofp.o(x$fpl$usenofp) for __I$use$fp
    fabs.o(i.fabs) refers (Special) to usenofp.o(x$fpl$usenofp) for __I$use$fp
    fpclassify.o(i.__ARM_fpclassify) refers (Special) to usenofp.o(x$fpl$usenofp) for __I$use$fp
    poly.o(i.__kernel_poly) refers (Special) to usenofp.o(x$fpl$usenofp) for __I$use$fp
    poly.o(i.__kernel_poly) refers to dmul.o(x$fpl$dmul) for __aeabi_dmul
    poly.o(i.__kernel_poly) refers to daddsub_clz.o(x$fpl$dadd) for __aeabi_dadd
    rred.o(i.__ieee754_rem_pio2) refers (Special) to usenofp.o(x$fpl$usenofp) for __I$use$fp
    rred.o(i.__ieee754_rem_pio2) refers to daddsub_clz.o(x$fpl$dsub) for __aeabi_dsub
    rred.o(i.__ieee754_rem_pio2) refers to daddsub_clz.o(x$fpl$dadd) for __aeabi_dadd
    rred.o(i.__ieee754_rem_pio2) refers to fabs.o(i.fabs) for fabs
    rred.o(i.__ieee754_rem_pio2) refers to dmul.o(x$fpl$dmul) for __aeabi_dmul
    rred.o(i.__ieee754_rem_pio2) refers to dfix.o(x$fpl$dfix) for __aeabi_d2iz
    rred.o(i.__ieee754_rem_pio2) refers to dflt_clz.o(x$fpl$dflt) for __aeabi_i2d
    rred.o(i.__ieee754_rem_pio2) refers to daddsub_clz.o(x$fpl$drsb) for __aeabi_drsub
    rred.o(i.__ieee754_rem_pio2) refers to basic.o(x$fpl$basic) for __aeabi_dneg
    rred.o(i.__ieee754_rem_pio2) refers to dflt_clz.o(x$fpl$dfltu) for __aeabi_ui2d
    rred.o(i.__ieee754_rem_pio2) refers to rred.o(.constdata) for .constdata
    rred.o(i.__use_accurate_range_reduction) refers (Special) to usenofp.o(x$fpl$usenofp) for __I$use$fp
    rred.o(.constdata) refers (Special) to usenofp.o(x$fpl$usenofp) for __I$use$fp
    sin_i.o(i.__kernel_sin) refers (Special) to usenofp.o(x$fpl$usenofp) for __I$use$fp
    sin_i.o(i.__kernel_sin) refers to fpclassify.o(i.__ARM_fpclassify) for __ARM_fpclassify
    sin_i.o(i.__kernel_sin) refers to dunder.o(i.__mathlib_dbl_underflow) for __mathlib_dbl_underflow
    sin_i.o(i.__kernel_sin) refers to dmul.o(x$fpl$dmul) for __aeabi_dmul
    sin_i.o(i.__kernel_sin) refers to poly.o(i.__kernel_poly) for __kernel_poly
    sin_i.o(i.__kernel_sin) refers to daddsub_clz.o(x$fpl$dsub) for __aeabi_dsub
    sin_i.o(i.__kernel_sin) refers to daddsub_clz.o(x$fpl$drsb) for __aeabi_drsub
    sin_i.o(i.__kernel_sin) refers to daddsub_clz.o(x$fpl$dadd) for __aeabi_dadd
    sin_i.o(i.__kernel_sin) refers to sin_i.o(.constdata) for .constdata
    sin_i.o(.constdata) refers (Special) to usenofp.o(x$fpl$usenofp) for __I$use$fp
    sin_i_x.o(i.____kernel_sin$lsc) refers (Special) to usenofp.o(x$fpl$usenofp) for __I$use$fp
    sin_i_x.o(i.____kernel_sin$lsc) refers to dmul.o(x$fpl$dmul) for __aeabi_dmul
    sin_i_x.o(i.____kernel_sin$lsc) refers to poly.o(i.__kernel_poly) for __kernel_poly
    sin_i_x.o(i.____kernel_sin$lsc) refers to daddsub_clz.o(x$fpl$dsub) for __aeabi_dsub
    sin_i_x.o(i.____kernel_sin$lsc) refers to daddsub_clz.o(x$fpl$drsb) for __aeabi_drsub
    sin_i_x.o(i.____kernel_sin$lsc) refers to daddsub_clz.o(x$fpl$dadd) for __aeabi_dadd
    sin_i_x.o(i.____kernel_sin$lsc) refers to sin_i_x.o(.constdata) for .constdata
    sin_i_x.o(.constdata) refers (Special) to usenofp.o(x$fpl$usenofp) for __I$use$fp
    sqrt.o(i.__hardfp_sqrt) refers (Special) to usenofp.o(x$fpl$usenofp) for __I$use$fp
    sqrt.o(i.__hardfp_sqrt) refers to dsqrt_umaal.o(x$fpl$dsqrt) for _dsqrt
    sqrt.o(i.__hardfp_sqrt) refers to _rserrno.o(.text) for __set_errno
    sqrt.o(i.__softfp_sqrt) refers (Special) to usenofp.o(x$fpl$usenofp) for __I$use$fp
    sqrt.o(i.__softfp_sqrt) refers to dsqrt_umaal.o(x$fpl$dsqrt) for _dsqrt
    sqrt.o(i.__softfp_sqrt) refers to _rserrno.o(.text) for __set_errno
    sqrt.o(i.sqrt) refers (Special) to usenofp.o(x$fpl$usenofp) for __I$use$fp
    sqrt.o(i.sqrt) refers to dsqrt_umaal.o(x$fpl$dsqrt) for _dsqrt
    sqrt.o(i.sqrt) refers to _rserrno.o(.text) for __set_errno
    sqrt_x.o(i.____hardfp_sqrt$lsc) refers (Special) to usenofp.o(x$fpl$usenofp) for __I$use$fp
    sqrt_x.o(i.____hardfp_sqrt$lsc) refers to dleqf.o(x$fpl$dleqf) for __aeabi_cdcmple
    sqrt_x.o(i.____hardfp_sqrt$lsc) refers to _rserrno.o(.text) for __set_errno
    sqrt_x.o(i.____hardfp_sqrt$lsc) refers to dsqrt_umaal.o(x$fpl$dsqrt) for _dsqrt
    sqrt_x.o(i.____softfp_sqrt$lsc) refers (Special) to usenofp.o(x$fpl$usenofp) for __I$use$fp
    sqrt_x.o(i.____softfp_sqrt$lsc) refers to dleqf.o(x$fpl$dleqf) for __aeabi_cdcmple
    sqrt_x.o(i.____softfp_sqrt$lsc) refers to _rserrno.o(.text) for __set_errno
    sqrt_x.o(i.____softfp_sqrt$lsc) refers to dsqrt_umaal.o(x$fpl$dsqrt) for _dsqrt
    sqrt_x.o(i.__sqrt$lsc) refers (Special) to usenofp.o(x$fpl$usenofp) for __I$use$fp
    sqrt_x.o(i.__sqrt$lsc) refers to dleqf.o(x$fpl$dleqf) for __aeabi_cdcmple
    sqrt_x.o(i.__sqrt$lsc) refers to _rserrno.o(.text) for __set_errno
    sqrt_x.o(i.__sqrt$lsc) refers to dsqrt_umaal.o(x$fpl$dsqrt) for _dsqrt
    tan_i.o(i.__kernel_tan) refers (Special) to usenofp.o(x$fpl$usenofp) for __I$use$fp
    tan_i.o(i.__kernel_tan) refers to dfix.o(x$fpl$dfix) for __aeabi_d2iz
    tan_i.o(i.__kernel_tan) refers to basic.o(x$fpl$basic) for __aeabi_dneg
    tan_i.o(i.__kernel_tan) refers to daddsub_clz.o(x$fpl$drsb) for __aeabi_drsub
    tan_i.o(i.__kernel_tan) refers to daddsub_clz.o(x$fpl$dsub) for __aeabi_dsub
    tan_i.o(i.__kernel_tan) refers to daddsub_clz.o(x$fpl$dadd) for __aeabi_dadd
    tan_i.o(i.__kernel_tan) refers to dmul.o(x$fpl$dmul) for __aeabi_dmul
    tan_i.o(i.__kernel_tan) refers to poly.o(i.__kernel_poly) for __kernel_poly
    tan_i.o(i.__kernel_tan) refers to dflt_clz.o(x$fpl$dflt) for __aeabi_i2d
    tan_i.o(i.__kernel_tan) refers to ddiv.o(x$fpl$ddiv) for __aeabi_ddiv
    tan_i.o(i.__kernel_tan) refers to fabs.o(i.fabs) for fabs
    tan_i.o(i.__kernel_tan) refers to fpclassify.o(i.__ARM_fpclassify) for __ARM_fpclassify
    tan_i.o(i.__kernel_tan) refers to dunder.o(i.__mathlib_dbl_underflow) for __mathlib_dbl_underflow
    tan_i.o(i.__kernel_tan) refers to tan_i.o(.constdata) for .constdata
    tan_i.o(.constdata) refers (Special) to usenofp.o(x$fpl$usenofp) for __I$use$fp
    tan_i_x.o(i.____kernel_tan$lsc) refers (Special) to usenofp.o(x$fpl$usenofp) for __I$use$fp
    tan_i_x.o(i.____kernel_tan$lsc) refers to dfix.o(x$fpl$dfix) for __aeabi_d2iz
    tan_i_x.o(i.____kernel_tan$lsc) refers to basic.o(x$fpl$basic) for __aeabi_dneg
    tan_i_x.o(i.____kernel_tan$lsc) refers to daddsub_clz.o(x$fpl$drsb) for __aeabi_drsub
    tan_i_x.o(i.____kernel_tan$lsc) refers to daddsub_clz.o(x$fpl$dsub) for __aeabi_dsub
    tan_i_x.o(i.____kernel_tan$lsc) refers to daddsub_clz.o(x$fpl$dadd) for __aeabi_dadd
    tan_i_x.o(i.____kernel_tan$lsc) refers to dmul.o(x$fpl$dmul) for __aeabi_dmul
    tan_i_x.o(i.____kernel_tan$lsc) refers to poly.o(i.__kernel_poly) for __kernel_poly
    tan_i_x.o(i.____kernel_tan$lsc) refers to dflt_clz.o(x$fpl$dflt) for __aeabi_i2d
    tan_i_x.o(i.____kernel_tan$lsc) refers to ddiv.o(x$fpl$ddiv) for __aeabi_ddiv
    tan_i_x.o(i.____kernel_tan$lsc) refers to fabs.o(i.fabs) for fabs
    tan_i_x.o(i.____kernel_tan$lsc) refers to tan_i_x.o(.constdata) for .constdata
    tan_i_x.o(.constdata) refers (Special) to usenofp.o(x$fpl$usenofp) for __I$use$fp
    __rtentry2.o(.ARM.Collect$$rtentry$$00000008) refers to boardinit2.o(.text) for _platform_post_stackheap_init
    __rtentry2.o(.ARM.Collect$$rtentry$$0000000A) refers to libinit.o(.ARM.Collect$$libinit$$00000000) for __rt_lib_init
    __rtentry2.o(.ARM.Collect$$rtentry$$0000000B) refers to rtx_conf_cm.o(.emb_text) for _platform_post_lib_init
    __rtentry2.o(.ARM.Collect$$rtentry$$0000000D) refers to __thread.o(.text) for main
    __rtentry2.o(.ARM.Collect$$rtentry$$0000000D) refers to exit.o(.text) for exit
    __rtentry2.o(.ARM.exidx) refers to __rtentry2.o(.ARM.Collect$$rtentry$$00000001) for .ARM.Collect$$rtentry$$00000001
    __rtentry2.o(.ARM.exidx) refers to __rtentry2.o(.ARM.Collect$$rtentry$$00000008) for .ARM.Collect$$rtentry$$00000008
    __rtentry2.o(.ARM.exidx) refers to __rtentry2.o(.ARM.Collect$$rtentry$$0000000A) for .ARM.Collect$$rtentry$$0000000A
    __rtentry2.o(.ARM.exidx) refers to __rtentry2.o(.ARM.Collect$$rtentry$$0000000B) for .ARM.Collect$$rtentry$$0000000B
    __rtentry2.o(.ARM.exidx) refers to __rtentry2.o(.ARM.Collect$$rtentry$$0000000D) for .ARM.Collect$$rtentry$$0000000D
    __rtentry4.o(.ARM.Collect$$rtentry$$00000004) refers to sys_stackheap_outer.o(.text) for __user_setup_stackheap
    __rtentry4.o(.ARM.exidx) refers to __rtentry4.o(.ARM.Collect$$rtentry$$00000004) for .ARM.Collect$$rtentry$$00000004
    rtexit2.o(.ARM.Collect$$rtexit$$00000003) refers to libshutdown.o(.ARM.Collect$$libshutdown$$00000000) for __rt_lib_shutdown
    rtexit2.o(.ARM.Collect$$rtexit$$00000004) refers to sys_exit.o(.text) for _sys_exit
    rtexit2.o(.ARM.exidx) refers to rtexit2.o(.ARM.Collect$$rtexit$$00000001) for .ARM.Collect$$rtexit$$00000001
    rtexit2.o(.ARM.exidx) refers to rtexit2.o(.ARM.Collect$$rtexit$$00000003) for .ARM.Collect$$rtexit$$00000003
    rtexit2.o(.ARM.exidx) refers to rtexit2.o(.ARM.Collect$$rtexit$$00000004) for .ARM.Collect$$rtexit$$00000004
    rt_div0.o(.text) refers to defsig_fpe_outer.o(.text) for __rt_SIGFPE
    rt_errno_addr.o(.text) refers to rt_errno_addr.o(.bss) for __aeabi_errno_addr_data
    rt_errno_addr_intlibspace.o(.text) refers to libspace.o(.bss) for __libspace_start
    rt_errno_addr_twolibspace.o(.text) refers to rtx_conf_cm.o(.text) for __user_perthread_libspace
    dleqf.o(x$fpl$dleqf) refers (Special) to usenofp.o(x$fpl$usenofp) for __I$use$fp
    dleqf.o(x$fpl$dleqf) refers to dnaninf.o(x$fpl$dnaninf) for __fpl_dnaninf
    dleqf.o(x$fpl$dleqf) refers to dcmpi.o(x$fpl$dcmpinf) for __fpl_dcmp_Inf
    dsqrt_umaal.o(x$fpl$dsqrt) refers (Special) to usenofp.o(x$fpl$usenofp) for __I$use$fp
    dsqrt_umaal.o(x$fpl$dsqrt) refers to dnaninf.o(x$fpl$dnaninf) for __fpl_dnaninf
    sys_exit.o(.text) refers (Special) to use_no_semi.o(.text) for __I$use$semihosting
    sys_exit.o(.text) refers (Special) to indicate_semi.o(.text) for __semihosting_library_function
    sys_stackheap_outer.o(.text) refers to libspace.o(.text) for __user_perproc_libspace
    sys_stackheap_outer.o(.text) refers to startup_tm4c129.o(.text) for __user_initial_stackheap
    defsig_fpe_outer.o(.text) refers to defsig_fpe_inner.o(.text) for __rt_SIGFPE_inner
    defsig_fpe_outer.o(.text) refers to defsig_exit.o(.text) for __sig_exit
    defsig_fpe_formal.o(.text) refers to rt_raise.o(.text) for __rt_raise
    libinit.o(.ARM.Collect$$libinit$$00000000) refers (Special) to libinit2.o(.ARM.Collect$$libinit$$0000002E) for __rt_lib_init_alloca_1
    libinit.o(.ARM.Collect$$libinit$$00000000) refers (Special) to libinit2.o(.ARM.Collect$$libinit$$0000002C) for __rt_lib_init_argv_1
    libinit.o(.ARM.Collect$$libinit$$00000000) refers (Special) to libinit2.o(.ARM.Collect$$libinit$$0000001B) for __rt_lib_init_atexit_1
    libinit.o(.ARM.Collect$$libinit$$00000000) refers (Special) to libinit2.o(.ARM.Collect$$libinit$$00000021) for __rt_lib_init_clock_1
    libinit.o(.ARM.Collect$$libinit$$00000000) refers (Special) to libinit2.o(.ARM.Collect$$libinit$$00000032) for __rt_lib_init_cpp_1
    libinit.o(.ARM.Collect$$libinit$$00000000) refers (Special) to libinit2.o(.ARM.Collect$$libinit$$00000030) for __rt_lib_init_exceptions_1
    libinit.o(.ARM.Collect$$libinit$$00000000) refers (Special) to libinit2.o(.ARM.Collect$$libinit$$00000001) for __rt_lib_init_fp_1
    libinit.o(.ARM.Collect$$libinit$$00000000) refers (Special) to libinit2.o(.ARM.Collect$$libinit$$0000001F) for __rt_lib_init_fp_trap_1
    libinit.o(.ARM.Collect$$libinit$$00000000) refers (Special) to libinit2.o(.ARM.Collect$$libinit$$00000023) for __rt_lib_init_getenv_1
    libinit.o(.ARM.Collect$$libinit$$00000000) refers (Special) to libinit2.o(.ARM.Collect$$libinit$$0000000A) for __rt_lib_init_heap_1
    libinit.o(.ARM.Collect$$libinit$$00000000) refers (Special) to libinit2.o(.ARM.Collect$$libinit$$00000011) for __rt_lib_init_lc_collate_1
    libinit.o(.ARM.Collect$$libinit$$00000000) refers (Special) to libinit2.o(.ARM.Collect$$libinit$$00000013) for __rt_lib_init_lc_ctype_1
    libinit.o(.ARM.Collect$$libinit$$00000000) refers (Special) to libinit2.o(.ARM.Collect$$libinit$$00000015) for __rt_lib_init_lc_monetary_1
    libinit.o(.ARM.Collect$$libinit$$00000000) refers (Special) to libinit2.o(.ARM.Collect$$libinit$$00000017) for __rt_lib_init_lc_numeric_1
    libinit.o(.ARM.Collect$$libinit$$00000000) refers (Special) to libinit2.o(.ARM.Collect$$libinit$$00000019) for __rt_lib_init_lc_time_1
    libinit.o(.ARM.Collect$$libinit$$00000000) refers (Special) to libinit2.o(.ARM.Collect$$libinit$$00000004) for __rt_lib_init_preinit_1
    libinit.o(.ARM.Collect$$libinit$$00000000) refers (Special) to libinit2.o(.ARM.Collect$$libinit$$0000000E) for __rt_lib_init_rand_1
    libinit.o(.ARM.Collect$$libinit$$00000000) refers (Special) to libinit2.o(.ARM.Collect$$libinit$$00000033) for __rt_lib_init_return
    libinit.o(.ARM.Collect$$libinit$$00000000) refers (Special) to libinit2.o(.ARM.Collect$$libinit$$0000001D) for __rt_lib_init_signal_1
    libinit.o(.ARM.Collect$$libinit$$00000000) refers (Special) to libinit2.o(.ARM.Collect$$libinit$$00000025) for __rt_lib_init_stdio_1
    libinit.o(.ARM.Collect$$libinit$$00000000) refers (Special) to libinit2.o(.ARM.Collect$$libinit$$0000000C) for __rt_lib_init_user_alloc_1
    libshutdown.o(.ARM.Collect$$libshutdown$$00000000) refers (Special) to libshutdown2.o(.ARM.Collect$$libshutdown$$00000002) for __rt_lib_shutdown_cpp_1
    libshutdown.o(.ARM.Collect$$libshutdown$$00000000) refers (Special) to libshutdown2.o(.ARM.Collect$$libshutdown$$00000007) for __rt_lib_shutdown_fp_trap_1
    libshutdown.o(.ARM.Collect$$libshutdown$$00000000) refers (Special) to libshutdown2.o(.ARM.Collect$$libshutdown$$0000000F) for __rt_lib_shutdown_heap_1
    libshutdown.o(.ARM.Collect$$libshutdown$$00000000) refers (Special) to libshutdown2.o(.ARM.Collect$$libshutdown$$00000010) for __rt_lib_shutdown_return
    libshutdown.o(.ARM.Collect$$libshutdown$$00000000) refers (Special) to libshutdown2.o(.ARM.Collect$$libshutdown$$0000000A) for __rt_lib_shutdown_signal_1
    libshutdown.o(.ARM.Collect$$libshutdown$$00000000) refers (Special) to libshutdown2.o(.ARM.Collect$$libshutdown$$00000004) for __rt_lib_shutdown_stdio_1
    libshutdown.o(.ARM.Collect$$libshutdown$$00000000) refers (Special) to libshutdown2.o(.ARM.Collect$$libshutdown$$0000000C) for __rt_lib_shutdown_user_alloc_1
    dcmpi.o(x$fpl$dcmpinf) refers (Special) to usenofp.o(x$fpl$usenofp) for __I$use$fp
    rt_raise.o(.text) refers to __raise.o(.text) for __raise
    rt_raise.o(.text) refers to sys_exit.o(.text) for _sys_exit
    defsig_exit.o(.text) refers to sys_exit.o(.text) for _sys_exit
    defsig_fpe_inner.o(.text) refers to defsig_general.o(.text) for __default_signal_display
    libinit2.o(.ARM.Collect$$libinit$$00000001) refers to fpinit.o(x$fpl$fpinit) for _fp_init
    libinit2.o(.ARM.Collect$$libinit$$00000010) refers to libinit2.o(.ARM.Collect$$libinit$$0000000F) for .ARM.Collect$$libinit$$0000000F
    libinit2.o(.ARM.Collect$$libinit$$00000012) refers to libinit2.o(.ARM.Collect$$libinit$$0000000F) for .ARM.Collect$$libinit$$0000000F
    libinit2.o(.ARM.Collect$$libinit$$00000014) refers to libinit2.o(.ARM.Collect$$libinit$$0000000F) for .ARM.Collect$$libinit$$0000000F
    libinit2.o(.ARM.Collect$$libinit$$00000016) refers to libinit2.o(.ARM.Collect$$libinit$$0000000F) for .ARM.Collect$$libinit$$0000000F
    libinit2.o(.ARM.Collect$$libinit$$00000018) refers to libinit2.o(.ARM.Collect$$libinit$$0000000F) for .ARM.Collect$$libinit$$0000000F
    libinit2.o(.ARM.Collect$$libinit$$00000026) refers to argv_veneer.o(.emb_text) for __ARM_argv_veneer
    libinit2.o(.ARM.Collect$$libinit$$00000027) refers to argv_veneer.o(.emb_text) for __ARM_argv_veneer
    __raise.o(.text) refers to defsig.o(CL$$defsig) for __default_signal_handler
    defsig_general.o(.text) refers to sys_wrch.o(.text) for _ttywrch
    argv_veneer.o(.emb_text) refers to no_argv.o(.text) for __ARM_get_argv
    sys_wrch.o(.text) refers (Special) to use_no_semi.o(.text) for __I$use$semihosting
    sys_wrch.o(.text) refers (Special) to indicate_semi.o(.text) for __semihosting_library_function
    defsig.o(CL$$defsig) refers to defsig_fpe_inner.o(.text) for __rt_SIGFPE_inner
    defsig.o(CL$$defsig) refers to defsig_rtmem_inner.o(.text) for __rt_SIGRTMEM_inner
    _get_argv_nomalloc.o(.text) refers (Special) to hrguard.o(.text) for __heap_region$guard
    _get_argv_nomalloc.o(.text) refers to defsig_rtmem_outer.o(.text) for __rt_SIGRTMEM
    _get_argv_nomalloc.o(.text) refers to sys_command.o(.text) for _sys_command_string
    sys_command.o(.text) refers (Special) to use_no_semi.o(.text) for __I$use$semihosting
    sys_command.o(.text) refers (Special) to indicate_semi.o(.text) for __semihosting_library_function
    defsig_abrt_inner.o(.text) refers to defsig_general.o(.text) for __default_signal_display
    defsig_rtred_inner.o(.text) refers to defsig_general.o(.text) for __default_signal_display
    defsig_rtmem_inner.o(.text) refers to defsig_general.o(.text) for __default_signal_display
    defsig_rtmem_outer.o(.text) refers to defsig_rtmem_inner.o(.text) for __rt_SIGRTMEM_inner
    defsig_rtmem_outer.o(.text) refers to defsig_exit.o(.text) for __sig_exit
    defsig_rtmem_formal.o(.text) refers to rt_raise.o(.text) for __rt_raise
    defsig_stak_inner.o(.text) refers to defsig_general.o(.text) for __default_signal_display
    defsig_pvfn_inner.o(.text) refers to defsig_general.o(.text) for __default_signal_display
    defsig_cppl_inner.o(.text) refers to defsig_general.o(.text) for __default_signal_display
    defsig_segv_inner.o(.text) refers to defsig_general.o(.text) for __default_signal_display
    defsig_other.o(.text) refers to defsig_general.o(.text) for __default_signal_display


==============================================================================

Removing Unused input sections from the image.

    Removing uart.o(.rev16_text), (4 bytes).
    Removing uart.o(.revsh_text), (4 bytes).
    Removing uart.o(.rrx_text), (6 bytes).
    Removing __thread.o(.rev16_text), (4 bytes).
    Removing __thread.o(.revsh_text), (4 bytes).
    Removing __thread.o(.rrx_text), (6 bytes).
    Removing buttons.o(.text), (88 bytes).
    Removing led.o(.rev16_text), (4 bytes).
    Removing led.o(.revsh_text), (4 bytes).
    Removing led.o(.rrx_text), (6 bytes).
    Removing opt.o(.text), (1592 bytes).
    Removing opt.o(.data), (15 bytes).
    Removing rgb.o(.text), (648 bytes).
    Removing rgb.o(.data), (7 bytes).
    Removing servo.o(.text), (260 bytes).
    Removing servo.o(.data), (8 bytes).
    Removing system_tm4c129.o(.rev16_text), (4 bytes).
    Removing system_tm4c129.o(.revsh_text), (4 bytes).
    Removing system_tm4c129.o(.rrx_text), (6 bytes).
    Removing gpio.o(i.GPIOADCTriggerDisable), (14 bytes).
    Removing gpio.o(i.GPIOADCTriggerEnable), (12 bytes).
    Removing gpio.o(i.GPIODMATriggerDisable), (14 bytes).
    Removing gpio.o(i.GPIODMATriggerEnable), (12 bytes).
    Removing gpio.o(i.GPIODirModeGet), (34 bytes).
    Removing gpio.o(i.GPIOIntClear), (6 bytes).
    Removing gpio.o(i.GPIOIntDisable), (14 bytes).
    Removing gpio.o(i.GPIOIntEnable), (12 bytes).
    Removing gpio.o(i.GPIOIntRegister), (26 bytes).
    Removing gpio.o(i.GPIOIntRegisterPin), (30 bytes).
    Removing gpio.o(i.GPIOIntStatus), (14 bytes).
    Removing gpio.o(i.GPIOIntTypeGet), (68 bytes).
    Removing gpio.o(i.GPIOIntTypeSet), (80 bytes).
    Removing gpio.o(i.GPIOIntUnregister), (22 bytes).
    Removing gpio.o(i.GPIOIntUnregisterPin), (26 bytes).
    Removing gpio.o(i.GPIOPadConfigGet), (204 bytes).
    Removing gpio.o(i.GPIOPinRead), (6 bytes).
    Removing gpio.o(i.GPIOPinTypeADC), (28 bytes).
    Removing gpio.o(i.GPIOPinTypeCAN), (28 bytes).
    Removing gpio.o(i.GPIOPinTypeComparator), (28 bytes).
    Removing gpio.o(i.GPIOPinTypeComparatorOutput), (28 bytes).
    Removing gpio.o(i.GPIOPinTypeDIVSCLK), (28 bytes).
    Removing gpio.o(i.GPIOPinTypeEPI), (28 bytes).
    Removing gpio.o(i.GPIOPinTypeEthernetLED), (28 bytes).
    Removing gpio.o(i.GPIOPinTypeEthernetMII), (28 bytes).
    Removing gpio.o(i.GPIOPinTypeGPIOInput), (28 bytes).
    Removing gpio.o(i.GPIOPinTypeGPIOOutput), (28 bytes).
    Removing gpio.o(i.GPIOPinTypeGPIOOutputOD), (28 bytes).
    Removing gpio.o(i.GPIOPinTypeHibernateRTCCLK), (28 bytes).
    Removing gpio.o(i.GPIOPinTypeI2C), (28 bytes).
    Removing gpio.o(i.GPIOPinTypeI2CSCL), (28 bytes).
    Removing gpio.o(i.GPIOPinTypeLCD), (28 bytes).
    Removing gpio.o(i.GPIOPinTypeOneWire), (28 bytes).
    Removing gpio.o(i.GPIOPinTypeQEI), (28 bytes).
    Removing gpio.o(i.GPIOPinTypeSSI), (28 bytes).
    Removing gpio.o(i.GPIOPinTypeTimer), (28 bytes).
    Removing gpio.o(i.GPIOPinTypeTrace), (28 bytes).
    Removing gpio.o(i.GPIOPinTypeUSBAnalog), (28 bytes).
    Removing gpio.o(i.GPIOPinTypeUSBDigital), (28 bytes).
    Removing gpio.o(i.GPIOPinTypeWakeHigh), (30 bytes).
    Removing gpio.o(i.GPIOPinTypeWakeLow), (30 bytes).
    Removing gpio.o(i.GPIOPinWakeStatus), (6 bytes).
    Removing gpio.o(i.GPIOPinWrite), (6 bytes).
    Removing gpio.o(i._GPIOIntNumberGet), (80 bytes).
    Removing i2c.o(i.I2CFIFODataGet), (16 bytes).
    Removing i2c.o(i.I2CFIFODataGetNonBlocking), (24 bytes).
    Removing i2c.o(i.I2CFIFODataPut), (16 bytes).
    Removing i2c.o(i.I2CFIFODataPutNonBlocking), (20 bytes).
    Removing i2c.o(i.I2CFIFOStatus), (6 bytes).
    Removing i2c.o(i.I2CIntRegister), (96 bytes).
    Removing i2c.o(i.I2CIntUnregister), (96 bytes).
    Removing i2c.o(i.I2CLoopbackEnable), (10 bytes).
    Removing i2c.o(i.I2CMasterBurstCountGet), (4 bytes).
    Removing i2c.o(i.I2CMasterBurstLengthSet), (4 bytes).
    Removing i2c.o(i.I2CMasterBusBusy), (12 bytes).
    Removing i2c.o(i.I2CMasterBusy), (12 bytes).
    Removing i2c.o(i.I2CMasterControl), (4 bytes).
    Removing i2c.o(i.I2CMasterDataGet), (4 bytes).
    Removing i2c.o(i.I2CMasterDataPut), (4 bytes).
    Removing i2c.o(i.I2CMasterDisable), (10 bytes).
    Removing i2c.o(i.I2CMasterEnable), (10 bytes).
    Removing i2c.o(i.I2CMasterErr), (24 bytes).
    Removing i2c.o(i.I2CMasterGlitchFilterConfigSet), (84 bytes).
    Removing i2c.o(i.I2CMasterInitExpClk), (84 bytes).
    Removing i2c.o(i.I2CMasterIntClear), (8 bytes).
    Removing i2c.o(i.I2CMasterIntClearEx), (4 bytes).
    Removing i2c.o(i.I2CMasterIntDisable), (6 bytes).
    Removing i2c.o(i.I2CMasterIntDisableEx), (10 bytes).
    Removing i2c.o(i.I2CMasterIntEnable), (6 bytes).
    Removing i2c.o(i.I2CMasterIntEnableEx), (8 bytes).
    Removing i2c.o(i.I2CMasterIntStatus), (24 bytes).
    Removing i2c.o(i.I2CMasterIntStatusEx), (10 bytes).
    Removing i2c.o(i.I2CMasterLineStateGet), (4 bytes).
    Removing i2c.o(i.I2CMasterSlaveAddrSet), (8 bytes).
    Removing i2c.o(i.I2CMasterTimeoutSet), (4 bytes).
    Removing i2c.o(i.I2CRxFIFOConfigSet), (22 bytes).
    Removing i2c.o(i.I2CRxFIFOFlush), (14 bytes).
    Removing i2c.o(i.I2CSlaveACKOverride), (22 bytes).
    Removing i2c.o(i.I2CSlaveACKValueSet), (22 bytes).
    Removing i2c.o(i.I2CSlaveAddressSet), (24 bytes).
    Removing i2c.o(i.I2CSlaveDataGet), (6 bytes).
    Removing i2c.o(i.I2CSlaveDataPut), (6 bytes).
    Removing i2c.o(i.I2CSlaveDisable), (16 bytes).
    Removing i2c.o(i.I2CSlaveEnable), (16 bytes).
    Removing i2c.o(i.I2CSlaveFIFODisable), (8 bytes).
    Removing i2c.o(i.I2CSlaveFIFOEnable), (10 bytes).
    Removing i2c.o(i.I2CSlaveInit), (20 bytes).
    Removing i2c.o(i.I2CSlaveIntClear), (8 bytes).
    Removing i2c.o(i.I2CSlaveIntClearEx), (6 bytes).
    Removing i2c.o(i.I2CSlaveIntDisable), (14 bytes).
    Removing i2c.o(i.I2CSlaveIntDisableEx), (14 bytes).
    Removing i2c.o(i.I2CSlaveIntEnable), (14 bytes).
    Removing i2c.o(i.I2CSlaveIntEnableEx), (12 bytes).
    Removing i2c.o(i.I2CSlaveIntStatus), (28 bytes).
    Removing i2c.o(i.I2CSlaveIntStatusEx), (14 bytes).
    Removing i2c.o(i.I2CSlaveStatus), (6 bytes).
    Removing i2c.o(i.I2CTxFIFOConfigSet), (24 bytes).
    Removing i2c.o(i.I2CTxFIFOFlush), (14 bytes).
    Removing i2c.o(.constdata), (128 bytes).
    Removing interrupt.o(i.IntDisable), (100 bytes).
    Removing interrupt.o(i.IntIsEnabled), (96 bytes).
    Removing interrupt.o(i.IntMasterDisable), (14 bytes).
    Removing interrupt.o(i.IntPendClear), (68 bytes).
    Removing interrupt.o(i.IntPendSet), (84 bytes).
    Removing interrupt.o(i.IntPriorityGet), (28 bytes).
    Removing interrupt.o(i.IntPriorityGroupingGet), (36 bytes).
    Removing interrupt.o(i.IntPriorityGroupingSet), (28 bytes).
    Removing interrupt.o(i.IntPriorityMaskGet), (4 bytes).
    Removing interrupt.o(i.IntPriorityMaskSet), (4 bytes).
    Removing interrupt.o(i.IntPrioritySet), (40 bytes).
    Removing interrupt.o(i.IntRegister), (52 bytes).
    Removing interrupt.o(i.IntTrigger), (12 bytes).
    Removing interrupt.o(i.IntUnregister), (20 bytes).
    Removing interrupt.o(i._IntDefaultHandler), (2 bytes).
    Removing interrupt.o(vtable), (620 bytes).
    Removing pwm.o(i.PWMClockGet), (26 bytes).
    Removing pwm.o(i.PWMDeadBandDisable), (12 bytes).
    Removing pwm.o(i.PWMDeadBandEnable), (16 bytes).
    Removing pwm.o(i.PWMFaultIntClear), (8 bytes).
    Removing pwm.o(i.PWMFaultIntClearExt), (4 bytes).
    Removing pwm.o(i.PWMFaultIntRegister), (96 bytes).
    Removing pwm.o(i.PWMFaultIntUnregister), (88 bytes).
    Removing pwm.o(i.PWMGenDisable), (10 bytes).
    Removing pwm.o(i.PWMGenFaultClear), (18 bytes).
    Removing pwm.o(i.PWMGenFaultConfigure), (18 bytes).
    Removing pwm.o(i.PWMGenFaultStatus), (18 bytes).
    Removing pwm.o(i.PWMGenFaultTriggerGet), (12 bytes).
    Removing pwm.o(i.PWMGenFaultTriggerSet), (12 bytes).
    Removing pwm.o(i.PWMGenIntClear), (6 bytes).
    Removing pwm.o(i.PWMGenIntRegister), (26 bytes).
    Removing pwm.o(i.PWMGenIntStatus), (12 bytes).
    Removing pwm.o(i.PWMGenIntTrigDisable), (10 bytes).
    Removing pwm.o(i.PWMGenIntTrigEnable), (10 bytes).
    Removing pwm.o(i.PWMGenIntUnregister), (22 bytes).
    Removing pwm.o(i.PWMIntDisable), (10 bytes).
    Removing pwm.o(i.PWMIntEnable), (8 bytes).
    Removing pwm.o(i.PWMIntStatus), (10 bytes).
    Removing pwm.o(i.PWMOutputFault), (16 bytes).
    Removing pwm.o(i.PWMOutputFaultLevel), (16 bytes).
    Removing pwm.o(i.PWMOutputUpdateMode), (62 bytes).
    Removing pwm.o(i.PWMPulseWidthGet), (32 bytes).
    Removing pwm.o(i.PWMSyncTimeBase), (4 bytes).
    Removing pwm.o(i.PWMSyncUpdate), (4 bytes).
    Removing pwm.o(i._PWMGenIntNumberGet), (224 bytes).
    Removing sysctl.o(i.SysCtlAltClkConfig), (12 bytes).
    Removing sysctl.o(i.SysCtlClockOutConfig), (20 bytes).
    Removing sysctl.o(i.SysCtlClockSet), (288 bytes).
    Removing sysctl.o(i.SysCtlDeepSleep), (32 bytes).
    Removing sysctl.o(i.SysCtlDeepSleepClockConfigSet), (112 bytes).
    Removing sysctl.o(i.SysCtlDeepSleepClockSet), (12 bytes).
    Removing sysctl.o(i.SysCtlDeepSleepPowerSet), (12 bytes).
    Removing sysctl.o(i.SysCtlFlashSectorSizeGet), (56 bytes).
    Removing sysctl.o(i.SysCtlFlashSizeGet), (56 bytes).
    Removing sysctl.o(i.SysCtlGPIOAHBDisable), (28 bytes).
    Removing sysctl.o(i.SysCtlGPIOAHBEnable), (24 bytes).
    Removing sysctl.o(i.SysCtlIntClear), (12 bytes).
    Removing sysctl.o(i.SysCtlIntDisable), (16 bytes).
    Removing sysctl.o(i.SysCtlIntEnable), (16 bytes).
    Removing sysctl.o(i.SysCtlIntRegister), (20 bytes).
    Removing sysctl.o(i.SysCtlIntStatus), (16 bytes).
    Removing sysctl.o(i.SysCtlIntUnregister), (18 bytes).
    Removing sysctl.o(i.SysCtlLDODeepSleepGet), (12 bytes).
    Removing sysctl.o(i.SysCtlLDODeepSleepSet), (12 bytes).
    Removing sysctl.o(i.SysCtlLDOSleepGet), (12 bytes).
    Removing sysctl.o(i.SysCtlLDOSleepSet), (12 bytes).
    Removing sysctl.o(i.SysCtlMOSCConfigSet), (12 bytes).
    Removing sysctl.o(i.SysCtlNMIClear), (16 bytes).
    Removing sysctl.o(i.SysCtlNMIStatus), (12 bytes).
    Removing sysctl.o(i.SysCtlPIOSCCalibrate), (76 bytes).
    Removing sysctl.o(i.SysCtlPWMClockGet), (24 bytes).
    Removing sysctl.o(i.SysCtlPWMClockSet), (20 bytes).
    Removing sysctl.o(i.SysCtlPeripheralClockGating), (68 bytes).
    Removing sysctl.o(i.SysCtlPeripheralDeepSleepDisable), (40 bytes).
    Removing sysctl.o(i.SysCtlPeripheralDeepSleepEnable), (40 bytes).
    Removing sysctl.o(i.SysCtlPeripheralDisable), (40 bytes).
    Removing sysctl.o(i.SysCtlPeripheralPowerOff), (40 bytes).
    Removing sysctl.o(i.SysCtlPeripheralPowerOn), (40 bytes).
    Removing sysctl.o(i.SysCtlPeripheralPresent), (44 bytes).
    Removing sysctl.o(i.SysCtlPeripheralReset), (60 bytes).
    Removing sysctl.o(i.SysCtlPeripheralSleepDisable), (40 bytes).
    Removing sysctl.o(i.SysCtlPeripheralSleepEnable), (40 bytes).
    Removing sysctl.o(i.SysCtlReset), (16 bytes).
    Removing sysctl.o(i.SysCtlResetBehaviorGet), (12 bytes).
    Removing sysctl.o(i.SysCtlResetBehaviorSet), (12 bytes).
    Removing sysctl.o(i.SysCtlResetCauseClear), (16 bytes).
    Removing sysctl.o(i.SysCtlResetCauseGet), (12 bytes).
    Removing sysctl.o(i.SysCtlSRAMSizeGet), (16 bytes).
    Removing sysctl.o(i.SysCtlSleep), (4 bytes).
    Removing sysctl.o(i.SysCtlSleepPowerSet), (12 bytes).
    Removing sysctl.o(i.SysCtlUSBPLLDisable), (16 bytes).
    Removing sysctl.o(i.SysCtlUSBPLLEnable), (16 bytes).
    Removing sysctl.o(i.SysCtlVCOGet), (120 bytes).
    Removing sysctl.o(i.SysCtlVoltageEventClear), (16 bytes).
    Removing sysctl.o(i.SysCtlVoltageEventConfig), (12 bytes).
    Removing sysctl.o(i.SysCtlVoltageEventStatus), (12 bytes).
    Removing timer.o(i.TimerADCEventGet), (4 bytes).
    Removing timer.o(i.TimerADCEventSet), (4 bytes).
    Removing timer.o(i.TimerClockSourceGet), (6 bytes).
    Removing timer.o(i.TimerClockSourceSet), (6 bytes).
    Removing timer.o(i.TimerControlEvent), (18 bytes).
    Removing timer.o(i.TimerControlLevel), (22 bytes).
    Removing timer.o(i.TimerControlStall), (22 bytes).
    Removing timer.o(i.TimerControlTrigger), (80 bytes).
    Removing timer.o(i.TimerControlWaitOnTrigger), (48 bytes).
    Removing timer.o(i.TimerDMAEventGet), (4 bytes).
    Removing timer.o(i.TimerDMAEventSet), (4 bytes).
    Removing timer.o(i.TimerDisable), (16 bytes).
    Removing timer.o(i.TimerIntDisable), (10 bytes).
    Removing timer.o(i.TimerIntRegister), (104 bytes).
    Removing timer.o(i.TimerIntStatus), (10 bytes).
    Removing timer.o(i.TimerIntUnregister), (104 bytes).
    Removing timer.o(i.TimerLoadGet), (10 bytes).
    Removing timer.o(i.TimerLoadGet64), (14 bytes).
    Removing timer.o(i.TimerLoadSet64), (6 bytes).
    Removing timer.o(i.TimerMatchGet), (10 bytes).
    Removing timer.o(i.TimerMatchGet64), (14 bytes).
    Removing timer.o(i.TimerMatchSet), (18 bytes).
    Removing timer.o(i.TimerMatchSet64), (6 bytes).
    Removing timer.o(i.TimerPrescaleGet), (10 bytes).
    Removing timer.o(i.TimerPrescaleMatchGet), (10 bytes).
    Removing timer.o(i.TimerPrescaleMatchSet), (18 bytes).
    Removing timer.o(i.TimerPrescaleSet), (18 bytes).
    Removing timer.o(i.TimerRTCDisable), (10 bytes).
    Removing timer.o(i.TimerRTCEnable), (10 bytes).
    Removing timer.o(i.TimerSynchronize), (4 bytes).
    Removing timer.o(i.TimerUpdateMode), (42 bytes).
    Removing timer.o(i.TimerValueGet), (10 bytes).
    Removing timer.o(i.TimerValueGet64), (14 bytes).
    Removing timer.o(.constdata), (160 bytes).
    Removing uart.o(i.UART9BitAddrSend), (38 bytes).
    Removing uart.o(i.UART9BitAddrSet), (10 bytes).
    Removing uart.o(i.UART9BitDisable), (14 bytes).
    Removing uart.o(i.UART9BitEnable), (14 bytes).
    Removing uart.o(i.UARTBreakCtl), (18 bytes).
    Removing uart.o(i.UARTBusy), (8 bytes).
    Removing uart.o(i.UARTCharGet), (12 bytes).
    Removing uart.o(i.UARTCharGetNonBlocking), (16 bytes).
    Removing uart.o(i.UARTCharPut), (12 bytes).
    Removing uart.o(i.UARTCharPutNonBlocking), (16 bytes).
    Removing uart.o(i.UARTCharsAvail), (10 bytes).
    Removing uart.o(i.UARTClockSourceGet), (6 bytes).
    Removing uart.o(i.UARTClockSourceSet), (6 bytes).
    Removing uart.o(i.UARTConfigGetExpClk), (46 bytes).
    Removing uart.o(i.UARTDMADisable), (10 bytes).
    Removing uart.o(i.UARTDMAEnable), (8 bytes).
    Removing uart.o(i.UARTDisable), (30 bytes).
    Removing uart.o(i.UARTDisableSIR), (10 bytes).
    Removing uart.o(i.UARTEnableSIR), (18 bytes).
    Removing uart.o(i.UARTFIFODisable), (10 bytes).
    Removing uart.o(i.UARTFIFOEnable), (10 bytes).
    Removing uart.o(i.UARTFIFOLevelGet), (16 bytes).
    Removing uart.o(i.UARTFIFOLevelSet), (6 bytes).
    Removing uart.o(i.UARTFlowControlGet), (8 bytes).
    Removing uart.o(i.UARTFlowControlSet), (12 bytes).
    Removing uart.o(i.UARTIntClear), (4 bytes).
    Removing uart.o(i.UARTIntDisable), (10 bytes).
    Removing uart.o(i.UARTIntEnable), (8 bytes).
    Removing uart.o(i.UARTIntRegister), (88 bytes).
    Removing uart.o(i.UARTIntStatus), (10 bytes).
    Removing uart.o(i.UARTIntUnregister), (88 bytes).
    Removing uart.o(i.UARTLoopbackEnable), (10 bytes).
    Removing uart.o(i.UARTModemControlClear), (14 bytes).
    Removing uart.o(i.UARTModemControlGet), (8 bytes).
    Removing uart.o(i.UARTModemControlSet), (12 bytes).
    Removing uart.o(i.UARTModemStatusGet), (10 bytes).
    Removing uart.o(i.UARTParityModeGet), (8 bytes).
    Removing uart.o(i.UARTParityModeSet), (12 bytes).
    Removing uart.o(i.UARTRxErrorClear), (6 bytes).
    Removing uart.o(i.UARTRxErrorGet), (8 bytes).
    Removing uart.o(i.UARTSmartCardDisable), (10 bytes).
    Removing uart.o(i.UARTSmartCardEnable), (22 bytes).
    Removing uart.o(i.UARTSpaceAvail), (10 bytes).
    Removing uart.o(i.UARTTxIntModeGet), (8 bytes).
    Removing uart.o(i.UARTTxIntModeSet), (12 bytes).
    Removing uart.o(.constdata), (128 bytes).
    Removing context.o(i.GrContextClipRegionSet), (112 bytes).
    Removing context.o(i.GrLibInit), (12 bytes).
    Removing line.o(i.GrLineDraw), (638 bytes).
    Removing string.o(i.GrCodepageMapTableSet), (10 bytes).
    Removing string.o(i.GrFontBaselineGet), (44 bytes).
    Removing string.o(i.GrFontBlockCodepointsGet), (84 bytes).
    Removing string.o(i.GrFontCodepageGet), (32 bytes).
    Removing string.o(i.GrFontHeightGet), (44 bytes).
    Removing string.o(i.GrFontInfoGet), (48 bytes).
    Removing string.o(i.GrFontMaxWidthGet), (44 bytes).
    Removing string.o(i.GrFontNumBlocksGet), (32 bytes).
    Removing string.o(i.GrStringCodepageSet), (6 bytes).
    Removing string.o(i.GrStringGet), (596 bytes).
    Removing string.o(i.GrStringLanguageSet), (48 bytes).
    Removing string.o(i.GrStringNextCharGet), (52 bytes).
    Removing string.o(i.GrStringTableSet), (36 bytes).
    Removing string.o(i.GrStringWidthGet), (192 bytes).
    Removing string.o(.data), (20 bytes).
    Removing rt_cmsis.o(.rev16_text), (4 bytes).
    Removing rt_cmsis.o(.revsh_text), (4 bytes).
    Removing rt_cmsis.o(.rrx_text), (6 bytes).
    Removing rt_cmsis.o(i.isrSemaphoreRelease), (40 bytes).
    Removing rt_cmsis.o(i.osKernelRunning), (36 bytes).
    Removing rt_cmsis.o(i.osMutexCreate), (44 bytes).
    Removing rt_cmsis.o(i.osMutexDelete), (24 bytes).
    Removing rt_cmsis.o(i.osMutexRelease), (24 bytes).
    Removing rt_cmsis.o(i.osMutexWait), (24 bytes).
    Removing rt_cmsis.o(i.osPoolAlloc), (32 bytes).
    Removing rt_cmsis.o(i.osPoolCAlloc), (52 bytes).
    Removing rt_cmsis.o(i.osPoolCreate), (44 bytes).
    Removing rt_cmsis.o(i.osPoolFree), (32 bytes).
    Removing rt_cmsis.o(i.osSemaphoreCreate), (44 bytes).
    Removing rt_cmsis.o(i.osSemaphoreDelete), (24 bytes).
    Removing rt_cmsis.o(i.osSemaphoreRelease), (24 bytes).
    Removing rt_cmsis.o(i.osSemaphoreWait), (24 bytes).
    Removing rt_cmsis.o(i.osThreadGetId), (24 bytes).
    Removing rt_cmsis.o(i.osThreadGetPriority), (24 bytes).
    Removing rt_cmsis.o(i.osThreadSetPriority), (24 bytes).
    Removing rt_cmsis.o(i.osThreadTerminate), (24 bytes).
    Removing rt_cmsis.o(i.osThreadYield), (24 bytes).
    Removing rt_cmsis.o(i.osTimerDelete), (24 bytes).
    Removing rt_cmsis.o(i.osTimerStart), (24 bytes).
    Removing rt_cmsis.o(i.osTimerStop), (24 bytes).
    Removing rt_cmsis.o(i.osWait), (4 bytes).
    Removing rt_cmsis.o(i.os_resume), (12 bytes).
    Removing rt_cmsis.o(i.os_suspend), (12 bytes).
    Removing rt_cmsis.o(i.rt_timer_remove), (60 bytes).
    Removing rt_cmsis.o(i.svcKernelRunning), (12 bytes).
    Removing rt_cmsis.o(i.svcMutexCreate), (28 bytes).
    Removing rt_cmsis.o(i.svcMutexDelete), (26 bytes).
    Removing rt_cmsis.o(i.svcMutexRelease), (34 bytes).
    Removing rt_cmsis.o(i.svcMutexWait), (58 bytes).
    Removing rt_cmsis.o(i.svcPoolCreate), (40 bytes).
    Removing rt_cmsis.o(i.svcSemaphoreCreate), (36 bytes).
    Removing rt_cmsis.o(i.svcSemaphoreDelete), (26 bytes).
    Removing rt_cmsis.o(i.svcSemaphoreRelease), (40 bytes).
    Removing rt_cmsis.o(i.svcSemaphoreWait), (50 bytes).
    Removing rt_cmsis.o(i.svcThreadGetPriority), (18 bytes).
    Removing rt_cmsis.o(i.svcThreadSetPriority), (46 bytes).
    Removing rt_cmsis.o(i.svcThreadYield), (10 bytes).
    Removing rt_cmsis.o(i.svcTimerDelete), (40 bytes).
    Removing rt_cmsis.o(i.svcTimerStart), (100 bytes).
    Removing rt_cmsis.o(i.svcTimerStop), (36 bytes).
    Removing rt_cmsis.o(i.sysPoolAlloc), (10 bytes).
    Removing rt_cmsis.o(i.sysPoolFree), (20 bytes).
    Removing rt_cmsis.o(i.sysUserTimerUpdate), (48 bytes).
    Removing rt_cmsis.o(i.sysUserTimerWakeupTime), (20 bytes).
    Removing rt_task.o(i.rt_tsk_pass), (48 bytes).
    Removing rt_mutex.o(i.rt_mut_delete), (176 bytes).
    Removing charmap.o(i.GrMapISO8859_10_Unicode), (32 bytes).
    Removing charmap.o(i.GrMapISO8859_11_Unicode), (16 bytes).
    Removing charmap.o(i.GrMapISO8859_13_Unicode), (32 bytes).
    Removing charmap.o(i.GrMapISO8859_14_Unicode), (96 bytes).
    Removing charmap.o(i.GrMapISO8859_15_Unicode), (88 bytes).
    Removing charmap.o(i.GrMapISO8859_16_Unicode), (32 bytes).
    Removing charmap.o(i.GrMapISO8859_2_Unicode), (32 bytes).
    Removing charmap.o(i.GrMapISO8859_3_Unicode), (32 bytes).
    Removing charmap.o(i.GrMapISO8859_4_Unicode), (32 bytes).
    Removing charmap.o(i.GrMapISO8859_5_Unicode), (16 bytes).
    Removing charmap.o(i.GrMapISO8859_6_Unicode), (22 bytes).
    Removing charmap.o(i.GrMapISO8859_7_Unicode), (44 bytes).
    Removing charmap.o(i.GrMapISO8859_8_Unicode), (38 bytes).
    Removing charmap.o(i.GrMapISO8859_9_Unicode), (68 bytes).
    Removing charmap.o(i.GrMapUTF16BE_Unicode), (6 bytes).
    Removing charmap.o(i.GrMapUTF16LE_Unicode), (6 bytes).
    Removing charmap.o(i.GrMapUTF16_Unicode), (120 bytes).
    Removing charmap.o(i.GrMapUTF8_Unicode), (146 bytes).
    Removing charmap.o(i.GrMapUnicode_Unicode), (22 bytes).
    Removing charmap.o(i.GrMapWIN1250_Unicode), (32 bytes).
    Removing charmap.o(i.GrMapWIN1251_Unicode), (48 bytes).
    Removing charmap.o(i.GrMapWIN1252_Unicode), (40 bytes).
    Removing charmap.o(i.GrMapWIN1253_Unicode), (48 bytes).
    Removing charmap.o(i.GrMapWIN1254_Unicode), (96 bytes).
    Removing charmap.o(.constdata), (1900 bytes).
    Removing rt_system.o(.emb_text), (0 bytes).
    Removing rt_system.o(i.rt_resume), (136 bytes).
    Removing rt_system.o(i.rt_suspend), (36 bytes).
    Removing rt_system.o(i.rt_tsk_lock), (80 bytes).
    Removing rt_system.o(i.rt_tsk_unlock), (80 bytes).
    Removing rt_event.o(i.rt_evt_get), (12 bytes).
    Removing rt_list.o(i.rt_get_same_rdy_prio), (36 bytes).
    Removing rt_semaphore.o(i.isr_sem_send), (16 bytes).
    Removing rt_semaphore.o(i.rt_sem_delete), (92 bytes).
    Removing rt_semaphore.o(i.rt_sem_init), (12 bytes).
    Removing rt_semaphore.o(i.rt_sem_send), (42 bytes).
    Removing rt_semaphore.o(i.rt_sem_wait), (64 bytes).
    Removing rt_time.o(i.rt_itv_set), (24 bytes).
    Removing rt_time.o(i.rt_itv_wait), (40 bytes).
    Removing rt_time.o(i.rt_time_get), (12 bytes).
    Removing rt_membox.o(i._calloc_box), (30 bytes).

404 unused section(s) (total 18042 bytes) removed from the image.

==============================================================================

Image Symbol Table

    Local Symbols

    Symbol Name                              Value     Ov Type        Size  Object(Section)

    RESET                                    0x00000000   Section      512  startup_tm4c129.o(RESET)
    ../clib/angel/boardlib.s                 0x00000000   Number         0  boardinit1.o ABSOLUTE
    ../clib/angel/boardlib.s                 0x00000000   Number         0  boardinit2.o ABSOLUTE
    ../clib/angel/boardlib.s                 0x00000000   Number         0  boardshut.o ABSOLUTE
    ../clib/angel/handlers.s                 0x00000000   Number         0  __scatter_copy.o ABSOLUTE
    ../clib/angel/handlers.s                 0x00000000   Number         0  __scatter_zi.o ABSOLUTE
    ../clib/angel/kernel.s                   0x00000000   Number         0  __rtentry4.o ABSOLUTE
    ../clib/angel/kernel.s                   0x00000000   Number         0  __rtentry.o ABSOLUTE
    ../clib/angel/kernel.s                   0x00000000   Number         0  __rtentry2.o ABSOLUTE
    ../clib/angel/kernel.s                   0x00000000   Number         0  rtexit.o ABSOLUTE
    ../clib/angel/kernel.s                   0x00000000   Number         0  rtexit2.o ABSOLUTE
    ../clib/angel/rt.s                       0x00000000   Number         0  aeabi_ldiv0.o ABSOLUTE
    ../clib/angel/rt.s                       0x00000000   Number         0  aeabi_ldiv0_sigfpe.o ABSOLUTE
    ../clib/angel/rt.s                       0x00000000   Number         0  rt_raise.o ABSOLUTE
    ../clib/angel/rt.s                       0x00000000   Number         0  rt_errno_addr_twolibspace.o ABSOLUTE
    ../clib/angel/rt.s                       0x00000000   Number         0  rt_errno_addr_intlibspace.o ABSOLUTE
    ../clib/angel/rt.s                       0x00000000   Number         0  rt_errno_addr.o ABSOLUTE
    ../clib/angel/rt.s                       0x00000000   Number         0  rt_div0.o ABSOLUTE
    ../clib/angel/scatter.s                  0x00000000   Number         0  __scatter.o ABSOLUTE
    ../clib/angel/startup.s                  0x00000000   Number         0  __main.o ABSOLUTE
    ../clib/angel/sys.s                      0x00000000   Number         0  libspace.o ABSOLUTE
    ../clib/angel/sys.s                      0x00000000   Number         0  indicate_semi.o ABSOLUTE
    ../clib/angel/sys.s                      0x00000000   Number         0  use_no_semi.o ABSOLUTE
    ../clib/angel/sys.s                      0x00000000   Number         0  sys_stackheap_outer.o ABSOLUTE
    ../clib/angel/sysapp.c                   0x00000000   Number         0  sys_command.o ABSOLUTE
    ../clib/angel/sysapp.c                   0x00000000   Number         0  sys_exit.o ABSOLUTE
    ../clib/angel/sysapp.c                   0x00000000   Number         0  sys_wrch.o ABSOLUTE
    ../clib/armsys.c                         0x00000000   Number         0  no_argv.o ABSOLUTE
    ../clib/armsys.c                         0x00000000   Number         0  _get_argv_nomalloc.o ABSOLUTE
    ../clib/armsys.c                         0x00000000   Number         0  argv_veneer.o ABSOLUTE
    ../clib/armsys.c                         0x00000000   Number         0  argv_veneer.o ABSOLUTE
    ../clib/fenv.c                           0x00000000   Number         0  _rserrno.o ABSOLUTE
    ../clib/heapalloc.c                      0x00000000   Number         0  hrguard.o ABSOLUTE
    ../clib/heapaux.c                        0x00000000   Number         0  heapauxi.o ABSOLUTE
    ../clib/libinit.s                        0x00000000   Number         0  libshutdown.o ABSOLUTE
    ../clib/libinit.s                        0x00000000   Number         0  libinit.o ABSOLUTE
    ../clib/libinit.s                        0x00000000   Number         0  libshutdown2.o ABSOLUTE
    ../clib/libinit.s                        0x00000000   Number         0  libinit2.o ABSOLUTE
    ../clib/longlong.s                       0x00000000   Number         0  lludivv7m.o ABSOLUTE
    ../clib/longlong.s                       0x00000000   Number         0  llsdiv.o ABSOLUTE
    ../clib/signal.c                         0x00000000   Number         0  defsig_general.o ABSOLUTE
    ../clib/signal.c                         0x00000000   Number         0  defsig_abrt_inner.o ABSOLUTE
    ../clib/signal.c                         0x00000000   Number         0  __raise.o ABSOLUTE
    ../clib/signal.c                         0x00000000   Number         0  defsig_exit.o ABSOLUTE
    ../clib/signal.c                         0x00000000   Number         0  defsig_other.o ABSOLUTE
    ../clib/signal.c                         0x00000000   Number         0  defsig_segv_inner.o ABSOLUTE
    ../clib/signal.c                         0x00000000   Number         0  defsig_fpe_outer.o ABSOLUTE
    ../clib/signal.c                         0x00000000   Number         0  defsig_rtred_inner.o ABSOLUTE
    ../clib/signal.c                         0x00000000   Number         0  defsig_fpe_formal.o ABSOLUTE
    ../clib/signal.c                         0x00000000   Number         0  defsig_cppl_inner.o ABSOLUTE
    ../clib/signal.c                         0x00000000   Number         0  defsig_pvfn_inner.o ABSOLUTE
    ../clib/signal.c                         0x00000000   Number         0  defsig_fpe_inner.o ABSOLUTE
    ../clib/signal.c                         0x00000000   Number         0  defsig_stak_inner.o ABSOLUTE
    ../clib/signal.c                         0x00000000   Number         0  defsig_rtmem_formal.o ABSOLUTE
    ../clib/signal.c                         0x00000000   Number         0  defsig_rtmem_outer.o ABSOLUTE
    ../clib/signal.c                         0x00000000   Number         0  defsig_rtmem_inner.o ABSOLUTE
    ../clib/signal.s                         0x00000000   Number         0  defsig.o ABSOLUTE
    ../clib/stdlib.c                         0x00000000   Number         0  exit.o ABSOLUTE
    ../fplib/basic.s                         0x00000000   Number         0  basic.o ABSOLUTE
    ../fplib/d2f.s                           0x00000000   Number         0  d2f.o ABSOLUTE
    ../fplib/daddsub.s                       0x00000000   Number         0  daddsub_clz.o ABSOLUTE
    ../fplib/dcmpi.s                         0x00000000   Number         0  dcmpi.o ABSOLUTE
    ../fplib/ddiv.s                          0x00000000   Number         0  ddiv.o ABSOLUTE
    ../fplib/dfix.s                          0x00000000   Number         0  dfix.o ABSOLUTE
    ../fplib/dfixu.s                         0x00000000   Number         0  dfixu.o ABSOLUTE
    ../fplib/dflt.s                          0x00000000   Number         0  dflt_clz.o ABSOLUTE
    ../fplib/dleqf.s                         0x00000000   Number         0  dleqf.o ABSOLUTE
    ../fplib/dmul.s                          0x00000000   Number         0  dmul.o ABSOLUTE
    ../fplib/dnaninf.s                       0x00000000   Number         0  dnaninf.o ABSOLUTE
    ../fplib/dretinf.s                       0x00000000   Number         0  dretinf.o ABSOLUTE
    ../fplib/dsqrt.s                         0x00000000   Number         0  dsqrt_umaal.o ABSOLUTE
    ../fplib/f2d.s                           0x00000000   Number         0  f2d.o ABSOLUTE
    ../fplib/ffixll.s                        0x00000000   Number         0  ffixll.o ABSOLUTE
    ../fplib/fnaninf.s                       0x00000000   Number         0  fnaninf.o ABSOLUTE
    ../fplib/fpinit.s                        0x00000000   Number         0  fpinit.o ABSOLUTE
    ../fplib/fretinf.s                       0x00000000   Number         0  fretinf.o ABSOLUTE
    ../fplib/usenofp.s                       0x00000000   Number         0  usenofp.o ABSOLUTE
    ../mathlib/asin.c                        0x00000000   Number         0  asin.o ABSOLUTE
    ../mathlib/asin.c                        0x00000000   Number         0  asin_x.o ABSOLUTE
    ../mathlib/atan.c                        0x00000000   Number         0  atan.o ABSOLUTE
    ../mathlib/atan.c                        0x00000000   Number         0  atan_x.o ABSOLUTE
    ../mathlib/cos_i.c                       0x00000000   Number         0  cos_i.o ABSOLUTE
    ../mathlib/dunder.c                      0x00000000   Number         0  dunder.o ABSOLUTE
    ../mathlib/fabs.c                        0x00000000   Number         0  fabs.o ABSOLUTE
    ../mathlib/fpclassify.c                  0x00000000   Number         0  fpclassify.o ABSOLUTE
    ../mathlib/poly.c                        0x00000000   Number         0  poly.o ABSOLUTE
    ../mathlib/rred.c                        0x00000000   Number         0  rred.o ABSOLUTE
    ../mathlib/sin.c                         0x00000000   Number         0  sin_x.o ABSOLUTE
    ../mathlib/sin.c                         0x00000000   Number         0  sin.o ABSOLUTE
    ../mathlib/sin_i.c                       0x00000000   Number         0  sin_i_x.o ABSOLUTE
    ../mathlib/sin_i.c                       0x00000000   Number         0  sin_i.o ABSOLUTE
    ../mathlib/sqrt.c                        0x00000000   Number         0  sqrt_x.o ABSOLUTE
    ../mathlib/sqrt.c                        0x00000000   Number         0  sqrt.o ABSOLUTE
    ../mathlib/tan.c                         0x00000000   Number         0  tan_x.o ABSOLUTE
    ../mathlib/tan.c                         0x00000000   Number         0  tan.o ABSOLUTE
    ../mathlib/tan_i.c                       0x00000000   Number         0  tan_i_x.o ABSOLUTE
    ../mathlib/tan_i.c                       0x00000000   Number         0  tan_i.o ABSOLUTE
    ..\HAL_CM.c                              0x00000000   Number         0  hal_cm.o ABSOLUTE
    ..\\rt_CMSIS.c                           0x00000000   Number         0  rt_cmsis.o ABSOLUTE
    ..\\rt_System.c                          0x00000000   Number         0  rt_system.o ABSOLUTE
    ..\rt_CMSIS.c                            0x00000000   Number         0  rt_cmsis.o ABSOLUTE
    ..\rt_Event.c                            0x00000000   Number         0  rt_event.o ABSOLUTE
    ..\rt_List.c                             0x00000000   Number         0  rt_list.o ABSOLUTE
    ..\rt_Mailbox.c                          0x00000000   Number         0  rt_mailbox.o ABSOLUTE
    ..\rt_MemBox.c                           0x00000000   Number         0  rt_membox.o ABSOLUTE
    ..\rt_Memory.c                           0x00000000   Number         0  rt_memory.o ABSOLUTE
    ..\rt_Mutex.c                            0x00000000   Number         0  rt_mutex.o ABSOLUTE
    ..\rt_Robin.c                            0x00000000   Number         0  rt_robin.o ABSOLUTE
    ..\rt_Semaphore.c                        0x00000000   Number         0  rt_semaphore.o ABSOLUTE
    ..\rt_System.c                           0x00000000   Number         0  rt_system.o ABSOLUTE
    ..\rt_Task.c                             0x00000000   Number         0  rt_task.o ABSOLUTE
    ..\rt_Time.c                             0x00000000   Number         0  rt_time.o ABSOLUTE
    HAL_CM4.c                                0x00000000   Number         0  hal_cm4.o ABSOLUTE
    HAL_CM4.c                                0x00000000   Number         0  hal_cm4.o ABSOLUTE
    RTE\CMSIS\RTX_Conf_CM.c                  0x00000000   Number         0  rtx_conf_cm.o ABSOLUTE
    RTE\Device\TM4C1294NCPDT\startup_TM4C129.s 0x00000000   Number         0  startup_tm4c129.o ABSOLUTE
    RTE\Device\TM4C1294NCPDT\system_TM4C129.c 0x00000000   Number         0  system_tm4c129.o ABSOLUTE
    RTE\\CMSIS\\RTX_Conf_CM.c                0x00000000   Number         0  rtx_conf_cm.o ABSOLUTE
    RTE\\Device\\TM4C1294NCPDT\\system_TM4C129.c 0x00000000   Number         0  system_tm4c129.o ABSOLUTE
    SVC_Table.s                              0x00000000   Number         0  svc_table.o ABSOLUTE
    __thread.c                               0x00000000   Number         0  __thread.o ABSOLUTE
    __thread.c                               0x00000000   Number         0  __thread.o ABSOLUTE
    buttons.c                                0x00000000   Number         0  buttons.o ABSOLUTE
    buzzer.c                                 0x00000000   Number         0  buzzer.o ABSOLUTE
    cfaf128x128x16.c                         0x00000000   Number         0  cfaf128x128x16.o ABSOLUTE
    charmap.c                                0x00000000   Number         0  charmap.o ABSOLUTE
    context.c                                0x00000000   Number         0  context.o ABSOLUTE
    cpu.c                                    0x00000000   Number         0  cpu.o ABSOLUTE
    cpu.c                                    0x00000000   Number         0  cpu.o ABSOLUTE
    dc.s                                     0x00000000   Number         0  dc.o ABSOLUTE
    display.c                                0x00000000   Number         0  display.o ABSOLUTE
    fonts\fontfixed6x8.c                     0x00000000   Number         0  fontfixed6x8.o ABSOLUTE
    gpio.c                                   0x00000000   Number         0  gpio.o ABSOLUTE
    i2c.c                                    0x00000000   Number         0  i2c.o ABSOLUTE
    interrupt.c                              0x00000000   Number         0  interrupt.o ABSOLUTE
    led.c                                    0x00000000   Number         0  led.o ABSOLUTE
    led.c                                    0x00000000   Number         0  led.o ABSOLUTE
    line.c                                   0x00000000   Number         0  line.o ABSOLUTE
    opt.c                                    0x00000000   Number         0  opt.o ABSOLUTE
    pwm.c                                    0x00000000   Number         0  pwm.o ABSOLUTE
    pwm.c                                    0x00000000   Number         0  pwm.o ABSOLUTE
    rgb.c                                    0x00000000   Number         0  rgb.o ABSOLUTE
    servo.c                                  0x00000000   Number         0  servo.o ABSOLUTE
    string.c                                 0x00000000   Number         0  string.o ABSOLUTE
    sysctl.c                                 0x00000000   Number         0  sysctl.o ABSOLUTE
    sysctl.c                                 0x00000000   Number         0  sysctl.o ABSOLUTE
    timer.c                                  0x00000000   Number         0  timer.o ABSOLUTE
    uart.c                                   0x00000000   Number         0  uart.o ABSOLUTE
    uart.c                                   0x00000000   Number         0  uart.o ABSOLUTE
    uart.c                                   0x00000000   Number         0  uart.o ABSOLUTE
    !!!main                                  0x00000200   Section        8  __main.o(!!!main)
    !!!scatter                               0x00000208   Section       52  __scatter.o(!!!scatter)
    !!handler_copy                           0x0000023c   Section       26  __scatter_copy.o(!!handler_copy)
    !!handler_zi                             0x00000258   Section       28  __scatter_zi.o(!!handler_zi)
    .ARM.Collect$$libinit$$00000000          0x00000274   Section        2  libinit.o(.ARM.Collect$$libinit$$00000000)
    .ARM.Collect$$libinit$$00000001          0x00000276   Section        4  libinit2.o(.ARM.Collect$$libinit$$00000001)
    .ARM.Collect$$libinit$$00000004          0x0000027a   Section        0  libinit2.o(.ARM.Collect$$libinit$$00000004)
    .ARM.Collect$$libinit$$0000000A          0x0000027a   Section        0  libinit2.o(.ARM.Collect$$libinit$$0000000A)
    .ARM.Collect$$libinit$$0000000C          0x0000027a   Section        0  libinit2.o(.ARM.Collect$$libinit$$0000000C)
    .ARM.Collect$$libinit$$0000000E          0x0000027a   Section        0  libinit2.o(.ARM.Collect$$libinit$$0000000E)
    .ARM.Collect$$libinit$$00000011          0x0000027a   Section        0  libinit2.o(.ARM.Collect$$libinit$$00000011)
    .ARM.Collect$$libinit$$00000013          0x0000027a   Section        0  libinit2.o(.ARM.Collect$$libinit$$00000013)
    .ARM.Collect$$libinit$$00000015          0x0000027a   Section        0  libinit2.o(.ARM.Collect$$libinit$$00000015)
    .ARM.Collect$$libinit$$00000017          0x0000027a   Section        0  libinit2.o(.ARM.Collect$$libinit$$00000017)
    .ARM.Collect$$libinit$$00000019          0x0000027a   Section        0  libinit2.o(.ARM.Collect$$libinit$$00000019)
    .ARM.Collect$$libinit$$0000001B          0x0000027a   Section        0  libinit2.o(.ARM.Collect$$libinit$$0000001B)
    .ARM.Collect$$libinit$$0000001D          0x0000027a   Section        0  libinit2.o(.ARM.Collect$$libinit$$0000001D)
    .ARM.Collect$$libinit$$0000001F          0x0000027a   Section        0  libinit2.o(.ARM.Collect$$libinit$$0000001F)
    .ARM.Collect$$libinit$$00000021          0x0000027a   Section        0  libinit2.o(.ARM.Collect$$libinit$$00000021)
    .ARM.Collect$$libinit$$00000023          0x0000027a   Section        0  libinit2.o(.ARM.Collect$$libinit$$00000023)
    .ARM.Collect$$libinit$$00000025          0x0000027a   Section        0  libinit2.o(.ARM.Collect$$libinit$$00000025)
    .ARM.Collect$$libinit$$0000002C          0x0000027a   Section        0  libinit2.o(.ARM.Collect$$libinit$$0000002C)
    .ARM.Collect$$libinit$$0000002E          0x0000027a   Section        0  libinit2.o(.ARM.Collect$$libinit$$0000002E)
    .ARM.Collect$$libinit$$00000030          0x0000027a   Section        0  libinit2.o(.ARM.Collect$$libinit$$00000030)
    .ARM.Collect$$libinit$$00000032          0x0000027a   Section        0  libinit2.o(.ARM.Collect$$libinit$$00000032)
    .ARM.Collect$$libinit$$00000033          0x0000027a   Section        2  libinit2.o(.ARM.Collect$$libinit$$00000033)
    .ARM.Collect$$libshutdown$$00000000      0x0000027c   Section        2  libshutdown.o(.ARM.Collect$$libshutdown$$00000000)
    .ARM.Collect$$libshutdown$$00000002      0x0000027e   Section        0  libshutdown2.o(.ARM.Collect$$libshutdown$$00000002)
    .ARM.Collect$$libshutdown$$00000004      0x0000027e   Section        0  libshutdown2.o(.ARM.Collect$$libshutdown$$00000004)
    .ARM.Collect$$libshutdown$$00000007      0x0000027e   Section        0  libshutdown2.o(.ARM.Collect$$libshutdown$$00000007)
    .ARM.Collect$$libshutdown$$0000000A      0x0000027e   Section        0  libshutdown2.o(.ARM.Collect$$libshutdown$$0000000A)
    .ARM.Collect$$libshutdown$$0000000C      0x0000027e   Section        0  libshutdown2.o(.ARM.Collect$$libshutdown$$0000000C)
    .ARM.Collect$$libshutdown$$0000000F      0x0000027e   Section        0  libshutdown2.o(.ARM.Collect$$libshutdown$$0000000F)
    .ARM.Collect$$libshutdown$$00000010      0x0000027e   Section        2  libshutdown2.o(.ARM.Collect$$libshutdown$$00000010)
    .ARM.Collect$$rtentry$$00000000          0x00000280   Section        0  __rtentry.o(.ARM.Collect$$rtentry$$00000000)
    .ARM.Collect$$rtentry$$00000002          0x00000280   Section        0  __rtentry2.o(.ARM.Collect$$rtentry$$00000002)
    .ARM.Collect$$rtentry$$00000004          0x00000280   Section        6  __rtentry4.o(.ARM.Collect$$rtentry$$00000004)
    .ARM.Collect$$rtentry$$00000009          0x00000286   Section        0  __rtentry2.o(.ARM.Collect$$rtentry$$00000009)
    .ARM.Collect$$rtentry$$0000000A          0x00000286   Section        4  __rtentry2.o(.ARM.Collect$$rtentry$$0000000A)
    .ARM.Collect$$rtentry$$0000000B          0x0000028a   Section        8  __rtentry2.o(.ARM.Collect$$rtentry$$0000000B)
    .ARM.Collect$$rtentry$$0000000D          0x00000292   Section        8  __rtentry2.o(.ARM.Collect$$rtentry$$0000000D)
    .ARM.Collect$$rtexit$$00000000           0x0000029a   Section        2  rtexit.o(.ARM.Collect$$rtexit$$00000000)
    .ARM.Collect$$rtexit$$00000002           0x0000029c   Section        0  rtexit2.o(.ARM.Collect$$rtexit$$00000002)
    .ARM.Collect$$rtexit$$00000003           0x0000029c   Section        4  rtexit2.o(.ARM.Collect$$rtexit$$00000003)
    .ARM.Collect$$rtexit$$00000004           0x000002a0   Section        6  rtexit2.o(.ARM.Collect$$rtexit$$00000004)
    .emb_text                                0x000002a8   Section       28  rtx_conf_cm.o(.emb_text)
    $v0                                      0x000002a8   Number         0  rtx_conf_cm.o(.emb_text)
    .emb_text                                0x000002c4   Section        6  sysctl.o(.emb_text)
    $v0                                      0x000002c4   Number         0  sysctl.o(.emb_text)
    .emb_text                                0x000002cc   Section       38  cpu.o(.emb_text)
    $v0                                      0x000002cc   Number         0  cpu.o(.emb_text)
    .emb_text                                0x000002f4   Section      408  hal_cm4.o(.emb_text)
    $v0                                      0x000002f4   Number         0  hal_cm4.o(.emb_text)
    .text                                    0x0000048c   Section        0  uart.o(.text)
    .text                                    0x000007c8   Section        0  __thread.o(.text)
    intToString                              0x00000817   Thumb Code   262  __thread.o(.text)
    floatToString                            0x0000091d   Thumb Code   234  __thread.o(.text)
    .text                                    0x000017a0   Section        0  pwm.o(.text)
    .text                                    0x000018dc   Section        0  display.o(.text)
    .text                                    0x00001cf4   Section        0  buzzer.o(.text)
    buzzer_div_set                           0x00001cf5   Thumb Code   106  buzzer.o(.text)
    .text                                    0x00001e7c   Section        0  led.o(.text)
    .text                                    0x00002000   Section        0  cfaf128x128x16.o(.text)
    swap_ui16                                0x00002001   Thumb Code    10  cfaf128x128x16.o(.text)
    swap_i32                                 0x0000200b   Thumb Code    10  cfaf128x128x16.o(.text)
    cfaf128x128x16SsiTransfer                0x00002015   Thumb Code    56  cfaf128x128x16.o(.text)
    cfaf128x128x16WriteCommand               0x0000204d   Thumb Code    60  cfaf128x128x16.o(.text)
    cfaf128x128x16WriteData                  0x00002089   Thumb Code    74  cfaf128x128x16.o(.text)
    cfaf128x128x16WriteRegister              0x000020d3   Thumb Code    20  cfaf128x128x16.o(.text)
    cfaf128x128x16SetWindow                  0x000020e7   Thumb Code   206  cfaf128x128x16.o(.text)
    cfaf128x128x16PixelDraw                  0x000022a5   Thumb Code    28  cfaf128x128x16.o(.text)
    cfaf128x128x16PixelDrawMultiple          0x000022c1   Thumb Code   490  cfaf128x128x16.o(.text)
    cfaf128x128x16LineDrawH                  0x000024ab   Thumb Code    48  cfaf128x128x16.o(.text)
    cfaf128x128x16LineDrawV                  0x000024db   Thumb Code    48  cfaf128x128x16.o(.text)
    cfaf128x128x16RectFill                   0x0000250b   Thumb Code   100  cfaf128x128x16.o(.text)
    cfaf128x128x16ColorTranslate             0x0000256f   Thumb Code    24  cfaf128x128x16.o(.text)
    cfaf128x128x16Flush                      0x00002587   Thumb Code     2  cfaf128x128x16.o(.text)
    ssiSetDataMode                           0x00002601   Thumb Code    22  cfaf128x128x16.o(.text)
    ssiSetClockDivider                       0x00002617   Thumb Code     6  cfaf128x128x16.o(.text)
    .text                                    0x000028a0   Section        0  rtx_conf_cm.o(.text)
    __tagsym$$used                           0x00002907   Number         0  rtx_conf_cm.o(.text)
    __tagsym$$used                           0x0000291d   Number         0  rtx_conf_cm.o(.text)
    .text                                    0x0000294c   Section      300  startup_tm4c129.o(.text)
    $v0                                      0x0000294c   Number         0  startup_tm4c129.o(.text)
    .text                                    0x00002a78   Section        0  system_tm4c129.o(.text)
    .text                                    0x00002aa0   Section        8  libspace.o(.text)
    .text                                    0x00002aa8   Section      238  lludivv7m.o(.text)
    .text                                    0x00002b96   Section       72  llsdiv.o(.text)
    .text                                    0x00002bde   Section        0  exit.o(.text)
    .text                                    0x00002bf0   Section        0  heapauxi.o(.text)
    .text                                    0x00002bf6   Section        0  _rserrno.o(.text)
    .text                                    0x00002c0c   Section        4  rt_errno_addr_twolibspace.o(.text)
    .text                                    0x00002c10   Section        0  sys_exit.o(.text)
    .text                                    0x00002c1c   Section       74  sys_stackheap_outer.o(.text)
    .text                                    0x00002c66   Section        2  use_no_semi.o(.text)
    .text                                    0x00002c68   Section        0  indicate_semi.o(.text)
    SVC_TABLE                                0x00002c68   Section        4  svc_table.o(SVC_TABLE)
    i.GPIODirModeSet                         0x00002c6c   Section        0  gpio.o(i.GPIODirModeSet)
    i.GPIOPadConfigSet                       0x00002c94   Section        0  gpio.o(i.GPIOPadConfigSet)
    i.GPIOPinConfigure                       0x00002dcc   Section        0  gpio.o(i.GPIOPinConfigure)
    i.GPIOPinTypePWM                         0x00002e10   Section        0  gpio.o(i.GPIOPinTypePWM)
    i.GPIOPinTypeUART                        0x00002e2c   Section        0  gpio.o(i.GPIOPinTypeUART)
    i.GrContextFontSet                       0x00002e48   Section        0  string.o(i.GrContextFontSet)
    i.GrContextInit                          0x00002e50   Section        0  context.o(i.GrContextInit)
    i.GrDefaultStringRenderer                0x00002eb4   Section        0  string.o(i.GrDefaultStringRenderer)
    i.GrFontGlyphDataGet                     0x00002fcc   Section        0  string.o(i.GrFontGlyphDataGet)
    i.GrFontGlyphRender                      0x00003072   Section        0  string.o(i.GrFontGlyphRender)
    i.GrLineDrawH                            0x000032fa   Section        0  line.o(i.GrLineDrawH)
    i.GrLineDrawV                            0x00003346   Section        0  line.o(i.GrLineDrawV)
    i.GrMapISO8859_1_Unicode                 0x00003392   Section        0  charmap.o(i.GrMapISO8859_1_Unicode)
    i.GrStringDraw                           0x0000339a   Section        0  string.o(i.GrStringDraw)
    i.IntEnable                              0x000033bc   Section        0  interrupt.o(i.IntEnable)
    i.IntMasterEnable                        0x00003420   Section        0  interrupt.o(i.IntMasterEnable)
    i.PWMClockSet                            0x0000342e   Section        0  pwm.o(i.PWMClockSet)
    i.PWMGenConfigure                        0x00003442   Section        0  pwm.o(i.PWMGenConfigure)
    i.PWMGenEnable                           0x00003468   Section        0  pwm.o(i.PWMGenEnable)
    i.PWMGenPeriodGet                        0x00003472   Section        0  pwm.o(i.PWMGenPeriodGet)
    i.PWMGenPeriodSet                        0x00003484   Section        0  pwm.o(i.PWMGenPeriodSet)
    i.PWMOutputInvert                        0x00003496   Section        0  pwm.o(i.PWMOutputInvert)
    i.PWMOutputState                         0x000034a6   Section        0  pwm.o(i.PWMOutputState)
    i.PWMPulseWidthSet                       0x000034b6   Section        0  pwm.o(i.PWMPulseWidthSet)
    i.SysCtlClockFreqSet                     0x000034d8   Section        0  sysctl.o(i.SysCtlClockFreqSet)
    i.SysCtlClockGet                         0x000037c4   Section        0  sysctl.o(i.SysCtlClockGet)
    i.SysCtlPeripheralEnable                 0x00003918   Section        0  sysctl.o(i.SysCtlPeripheralEnable)
    i.SysCtlPeripheralReady                  0x00003940   Section        0  sysctl.o(i.SysCtlPeripheralReady)
    i.TimerConfigure                         0x0000396c   Section        0  timer.o(i.TimerConfigure)
    i.TimerEnable                            0x000039cc   Section        0  timer.o(i.TimerEnable)
    i.TimerIntClear                          0x000039da   Section        0  timer.o(i.TimerIntClear)
    i.TimerIntEnable                         0x000039de   Section        0  timer.o(i.TimerIntEnable)
    i.TimerLoadSet                           0x000039e6   Section        0  timer.o(i.TimerLoadSet)
    i.UARTConfigSetExpClk                    0x000039f8   Section        0  uart.o(i.UARTConfigSetExpClk)
    i.UARTEnable                             0x00003a66   Section        0  uart.o(i.UARTEnable)
    i.UpdateContextCharMapping               0x00003a7a   Section        0  string.o(i.UpdateContextCharMapping)
    UpdateContextCharMapping                 0x00003a7b   Thumb Code   108  string.o(i.UpdateContextCharMapping)
    i.__ARM_fpclassify                       0x00003ae6   Section        0  fpclassify.o(i.__ARM_fpclassify)
    i.__hardfp_asin                          0x00003b18   Section        0  asin.o(i.__hardfp_asin)
    i.__hardfp_atan                          0x00003e78   Section        0  atan.o(i.__hardfp_atan)
    i.__hardfp_sin                           0x00004150   Section        0  sin.o(i.__hardfp_sin)
    i.__hardfp_tan                           0x00004218   Section        0  tan.o(i.__hardfp_tan)
    i.__ieee754_rem_pio2                     0x00004298   Section        0  rred.o(i.__ieee754_rem_pio2)
    i.__kernel_cos                           0x000046d0   Section        0  cos_i.o(i.__kernel_cos)
    i.__kernel_poly                          0x00004840   Section        0  poly.o(i.__kernel_poly)
    i.__kernel_sin                           0x00004938   Section        0  sin_i.o(i.__kernel_sin)
    i.__kernel_tan                           0x00004a68   Section        0  tan_i.o(i.__kernel_tan)
    i.__mathlib_dbl_infnan                   0x00004db8   Section        0  dunder.o(i.__mathlib_dbl_infnan)
    i.__mathlib_dbl_invalid                  0x00004dd0   Section        0  dunder.o(i.__mathlib_dbl_invalid)
    i.__mathlib_dbl_underflow                0x00004df0   Section        0  dunder.o(i.__mathlib_dbl_underflow)
    i._init_box                              0x00004e10   Section        0  rt_membox.o(i._init_box)
    i.dbg_init                               0x00004e58   Section        0  hal_cm.o(i.dbg_init)
    i.dbg_task_notify                        0x00004e88   Section        0  hal_cm.o(i.dbg_task_notify)
    i.dbg_task_switch                        0x00004ea8   Section        0  hal_cm.o(i.dbg_task_switch)
    i.fabs                                   0x00004eb8   Section        0  fabs.o(i.fabs)
    i.isrMessageGet                          0x00004ed0   Section        0  rt_cmsis.o(i.isrMessageGet)
    i.isrMessagePut                          0x00004efa   Section        0  rt_cmsis.o(i.isrMessagePut)
    i.isrSignalSet                           0x00004f26   Section        0  rt_cmsis.o(i.isrSignalSet)
    i.isr_evt_set                            0x00004f4c   Section        0  rt_event.o(i.isr_evt_set)
    i.isr_mbx_receive                        0x00004f74   Section        0  rt_mailbox.o(i.isr_mbx_receive)
    i.isr_mbx_send                           0x00004fca   Section        0  rt_mailbox.o(i.isr_mbx_send)
    i.osDelay                                0x00004fd8   Section        0  rt_cmsis.o(i.osDelay)
    i.osKernelInitialize                     0x00004ff0   Section        0  rt_cmsis.o(i.osKernelInitialize)
    i.osKernelStart                          0x00005014   Section        0  rt_cmsis.o(i.osKernelStart)
    i.osKernelSysTick                        0x00005080   Section        0  rt_cmsis.o(i.osKernelSysTick)
    i.osMailAlloc                            0x00005098   Section        0  rt_cmsis.o(i.osMailAlloc)
    i.osMailCAlloc                           0x000050b4   Section        0  rt_cmsis.o(i.osMailCAlloc)
    i.osMailCreate                           0x000050e4   Section        0  rt_cmsis.o(i.osMailCreate)
    i.osMailFree                             0x00005110   Section        0  rt_cmsis.o(i.osMailFree)
    i.osMailGet                              0x0000512c   Section        0  rt_cmsis.o(i.osMailGet)
    i.osMailPut                              0x00005142   Section        0  rt_cmsis.o(i.osMailPut)
    i.osMessageCreate                        0x00005158   Section        0  rt_cmsis.o(i.osMessageCreate)
    i.osMessageGet                           0x00005184   Section        0  rt_cmsis.o(i.osMessageGet)
    i.osMessagePut                           0x0000519c   Section        0  rt_cmsis.o(i.osMessagePut)
    i.osSignalClear                          0x000051b4   Section        0  rt_cmsis.o(i.osSignalClear)
    i.osSignalSet                            0x000051cc   Section        0  rt_cmsis.o(i.osSignalSet)
    i.osSignalWait                           0x000051e4   Section        0  rt_cmsis.o(i.osSignalWait)
    i.osThreadCreate                         0x000051fc   Section        0  rt_cmsis.o(i.osThreadCreate)
    i.osThreadExit                           0x00005228   Section        0  rt_cmsis.o(i.osThreadExit)
    i.osTimerCall                            0x00005240   Section        0  rt_cmsis.o(i.osTimerCall)
    i.osTimerCreate                          0x0000524c   Section        0  rt_cmsis.o(i.osTimerCreate)
    i.osTimerThread                          0x00005278   Section        0  rt_cmsis.o(i.osTimerThread)
    i.os_tick_init                           0x000052a4   Section        0  rt_system.o(i.os_tick_init)
    i.os_tick_irqack                         0x000052cc   Section        0  rt_system.o(i.os_tick_irqack)
    i.os_tick_ovf                            0x000052d0   Section        0  rt_system.o(i.os_tick_ovf)
    i.os_tick_val                            0x000052e0   Section        0  rt_system.o(i.os_tick_val)
    i.rt_alloc_box                           0x000052f4   Section        0  rt_membox.o(i.rt_alloc_box)
    i.rt_alloc_mem                           0x0000530e   Section        0  rt_memory.o(i.rt_alloc_mem)
    i.rt_block                               0x0000534c   Section        0  rt_task.o(i.rt_block)
    i.rt_chk_robin                           0x00005384   Section        0  rt_robin.o(i.rt_chk_robin)
    i.rt_clr_box                             0x000053cc   Section        0  rt_cmsis.o(i.rt_clr_box)
    rt_clr_box                               0x000053cd   Thumb Code    24  rt_cmsis.o(i.rt_clr_box)
    i.rt_dec_dly                             0x000053e4   Section        0  rt_list.o(i.rt_dec_dly)
    i.rt_dispatch                            0x00005454   Section        0  rt_task.o(i.rt_dispatch)
    i.rt_dly_wait                            0x00005498   Section        0  rt_time.o(i.rt_dly_wait)
    i.rt_evt_clr                             0x000054a0   Section        0  rt_event.o(i.rt_evt_clr)
    i.rt_evt_psh                             0x000054bc   Section        0  rt_event.o(i.rt_evt_psh)
    i.rt_evt_set                             0x0000550c   Section        0  rt_event.o(i.rt_evt_set)
    i.rt_evt_wait                            0x00005568   Section        0  rt_event.o(i.rt_evt_wait)
    i.rt_free_box                            0x000055a4   Section        0  rt_membox.o(i.rt_free_box)
    i.rt_free_mem                            0x000055d0   Section        0  rt_memory.o(i.rt_free_mem)
    i.rt_get_first                           0x000055f8   Section        0  rt_list.o(i.rt_get_first)
    i.rt_id2obj                              0x00005620   Section        0  rt_cmsis.o(i.rt_id2obj)
    rt_id2obj                                0x00005621   Thumb Code     8  rt_cmsis.o(i.rt_id2obj)
    i.rt_init_context                        0x00005628   Section        0  rt_task.o(i.rt_init_context)
    rt_init_context                          0x00005629   Thumb Code    66  rt_task.o(i.rt_init_context)
    i.rt_init_mem                            0x00005670   Section        0  rt_memory.o(i.rt_init_mem)
    i.rt_init_robin                          0x0000568c   Section        0  rt_robin.o(i.rt_init_robin)
    i.rt_init_stack                          0x000056a4   Section        0  hal_cm.o(i.rt_init_stack)
    i.rt_mbx_check                           0x00005724   Section        0  rt_mailbox.o(i.rt_mbx_check)
    i.rt_mbx_init                            0x0000572c   Section        0  rt_mailbox.o(i.rt_mbx_init)
    i.rt_mbx_psh                             0x00005748   Section        0  rt_mailbox.o(i.rt_mbx_psh)
    i.rt_mbx_send                            0x00005838   Section        0  rt_mailbox.o(i.rt_mbx_send)
    i.rt_mbx_wait                            0x000058d0   Section        0  rt_mailbox.o(i.rt_mbx_wait)
    i.rt_ms2tick                             0x00005984   Section        0  rt_cmsis.o(i.rt_ms2tick)
    rt_ms2tick                               0x00005985   Thumb Code    58  rt_cmsis.o(i.rt_ms2tick)
    i.rt_mut_init                            0x000059c8   Section        0  rt_mutex.o(i.rt_mut_init)
    i.rt_mut_release                         0x000059d8   Section        0  rt_mutex.o(i.rt_mut_release)
    i.rt_mut_wait                            0x00005ab0   Section        0  rt_mutex.o(i.rt_mut_wait)
    i.rt_pop_req                             0x00005b28   Section        0  rt_system.o(i.rt_pop_req)
    i.rt_psh_req                             0x00005ba4   Section        0  rt_system.o(i.rt_psh_req)
    i.rt_psq_enq                             0x00005bc4   Section        0  rt_list.o(i.rt_psq_enq)
    i.rt_put_dly                             0x00005c20   Section        0  rt_list.o(i.rt_put_dly)
    i.rt_put_prio                            0x00005c68   Section        0  rt_list.o(i.rt_put_prio)
    i.rt_put_rdy_first                       0x00005ca0   Section        0  rt_list.o(i.rt_put_rdy_first)
    i.rt_resort_prio                         0x00005cb4   Section        0  rt_list.o(i.rt_resort_prio)
    i.rt_ret_regs                            0x00005ce8   Section        0  hal_cm.o(i.rt_ret_regs)
    rt_ret_regs                              0x00005ce9   Thumb Code    16  hal_cm.o(i.rt_ret_regs)
    i.rt_ret_val                             0x00005cf8   Section        0  hal_cm.o(i.rt_ret_val)
    i.rt_ret_val2                            0x00005d04   Section        0  hal_cm.o(i.rt_ret_val2)
    i.rt_rmv_dly                             0x00005d14   Section        0  rt_list.o(i.rt_rmv_dly)
    i.rt_rmv_list                            0x00005d3c   Section        0  rt_list.o(i.rt_rmv_list)
    i.rt_sem_psh                             0x00005d6c   Section        0  rt_semaphore.o(i.rt_sem_psh)
    i.rt_stk_check                           0x00005da0   Section        0  rt_system.o(i.rt_stk_check)
    i.rt_switch_req                          0x00005dc4   Section        0  rt_task.o(i.rt_switch_req)
    i.rt_sys_init                            0x00005dec   Section        0  rt_task.o(i.rt_sys_init)
    i.rt_sys_start                           0x00005eb8   Section        0  rt_task.o(i.rt_sys_start)
    i.rt_systick                             0x00005f30   Section        0  rt_system.o(i.rt_systick)
    i.rt_tid2ptcb                            0x00005f70   Section        0  rt_cmsis.o(i.rt_tid2ptcb)
    rt_tid2ptcb                              0x00005f71   Thumb Code    18  rt_cmsis.o(i.rt_tid2ptcb)
    i.rt_timer_insert                        0x00005f84   Section        0  rt_cmsis.o(i.rt_timer_insert)
    rt_timer_insert                          0x00005f85   Thumb Code    48  rt_cmsis.o(i.rt_timer_insert)
    i.rt_tsk_create                          0x00005fb8   Section        0  rt_task.o(i.rt_tsk_create)
    i.rt_tsk_delete                          0x00006040   Section        0  rt_task.o(i.rt_tsk_delete)
    i.rt_tsk_prio                            0x000061bc   Section        0  rt_task.o(i.rt_tsk_prio)
    i.rt_tsk_self                            0x00006238   Section        0  rt_task.o(i.rt_tsk_self)
    i.sqrt                                   0x00006248   Section        0  sqrt.o(i.sqrt)
    i.svcDelay                               0x000062b6   Section        0  rt_cmsis.o(i.svcDelay)
    i.svcKernelInitialize                    0x000062c8   Section        0  rt_cmsis.o(i.svcKernelInitialize)
    i.svcKernelStart                         0x00006338   Section        0  rt_cmsis.o(i.svcKernelStart)
    i.svcKernelSysTick                       0x00006380   Section        0  rt_cmsis.o(i.svcKernelSysTick)
    i.svcMailCreate                          0x000063b8   Section        0  rt_cmsis.o(i.svcMailCreate)
    i.svcMessageCreate                       0x000063fa   Section        0  rt_cmsis.o(i.svcMessageCreate)
    i.svcMessageGet                          0x0000641e   Section        0  rt_cmsis.o(i.svcMessageGet)
    i.svcMessagePut                          0x00006458   Section        0  rt_cmsis.o(i.svcMessagePut)
    i.svcSignalClear                         0x0000648e   Section        0  rt_cmsis.o(i.svcSignalClear)
    i.svcSignalSet                           0x000064b2   Section        0  rt_cmsis.o(i.svcSignalSet)
    i.svcSignalWait                          0x000064d8   Section        0  rt_cmsis.o(i.svcSignalWait)
    i.svcThreadCreate                        0x0000652c   Section        0  rt_cmsis.o(i.svcThreadCreate)
    i.svcThreadGetId                         0x00006598   Section        0  rt_cmsis.o(i.svcThreadGetId)
    i.svcThreadTerminate                     0x000065b4   Section        0  rt_cmsis.o(i.svcThreadTerminate)
    i.svcTimerCall                           0x000065ec   Section        0  rt_cmsis.o(i.svcTimerCall)
    i.svcTimerCreate                         0x00006604   Section        0  rt_cmsis.o(i.svcTimerCreate)
    i.sysMailAlloc                           0x0000663c   Section        0  rt_cmsis.o(i.sysMailAlloc)
    i.sysMailFree                            0x00006694   Section        0  rt_cmsis.o(i.sysMailFree)
    i.sysTimerTick                           0x000066f4   Section        0  rt_cmsis.o(i.sysTimerTick)
    x$fpl$basic                              0x00006750   Section       24  basic.o(x$fpl$basic)
    $v0                                      0x00006750   Number         0  basic.o(x$fpl$basic)
    x$fpl$d2f                                0x00006768   Section       98  d2f.o(x$fpl$d2f)
    $v0                                      0x00006768   Number         0  d2f.o(x$fpl$d2f)
    x$fpl$dadd                               0x000067cc   Section      336  daddsub_clz.o(x$fpl$dadd)
    $v0                                      0x000067cc   Number         0  daddsub_clz.o(x$fpl$dadd)
    _dadd1                                   0x000067dd   Thumb Code     0  daddsub_clz.o(x$fpl$dadd)
    x$fpl$ddiv                               0x0000691c   Section      688  ddiv.o(x$fpl$ddiv)
    $v0                                      0x0000691c   Number         0  ddiv.o(x$fpl$ddiv)
    ddiv_entry                               0x00006923   Thumb Code     0  ddiv.o(x$fpl$ddiv)
    x$fpl$dfix                               0x00006bcc   Section       94  dfix.o(x$fpl$dfix)
    $v0                                      0x00006bcc   Number         0  dfix.o(x$fpl$dfix)
    x$fpl$dfixu                              0x00006c2c   Section       90  dfixu.o(x$fpl$dfixu)
    $v0                                      0x00006c2c   Number         0  dfixu.o(x$fpl$dfixu)
    x$fpl$dflt                               0x00006c86   Section       46  dflt_clz.o(x$fpl$dflt)
    $v0                                      0x00006c86   Number         0  dflt_clz.o(x$fpl$dflt)
    x$fpl$dfltu                              0x00006cb4   Section       38  dflt_clz.o(x$fpl$dfltu)
    $v0                                      0x00006cb4   Number         0  dflt_clz.o(x$fpl$dfltu)
    x$fpl$dmul                               0x00006cdc   Section      340  dmul.o(x$fpl$dmul)
    $v0                                      0x00006cdc   Number         0  dmul.o(x$fpl$dmul)
    x$fpl$dnaninf                            0x00006e30   Section      156  dnaninf.o(x$fpl$dnaninf)
    $v0                                      0x00006e30   Number         0  dnaninf.o(x$fpl$dnaninf)
    x$fpl$dretinf                            0x00006ecc   Section       12  dretinf.o(x$fpl$dretinf)
    $v0                                      0x00006ecc   Number         0  dretinf.o(x$fpl$dretinf)
    x$fpl$drsb                               0x00006ed8   Section       22  daddsub_clz.o(x$fpl$drsb)
    $v0                                      0x00006ed8   Number         0  daddsub_clz.o(x$fpl$drsb)
    x$fpl$dsqrt                              0x00006ef0   Section      408  dsqrt_umaal.o(x$fpl$dsqrt)
    $v0                                      0x00006ef0   Number         0  dsqrt_umaal.o(x$fpl$dsqrt)
    x$fpl$dsub                               0x00007088   Section      468  daddsub_clz.o(x$fpl$dsub)
    $v0                                      0x00007088   Number         0  daddsub_clz.o(x$fpl$dsub)
    _dsub1                                   0x00007099   Thumb Code     0  daddsub_clz.o(x$fpl$dsub)
    x$fpl$f2d                                0x0000725c   Section       86  f2d.o(x$fpl$f2d)
    $v0                                      0x0000725c   Number         0  f2d.o(x$fpl$f2d)
    x$fpl$fnaninf                            0x000072b2   Section      140  fnaninf.o(x$fpl$fnaninf)
    $v0                                      0x000072b2   Number         0  fnaninf.o(x$fpl$fnaninf)
    x$fpl$fpinit                             0x0000733e   Section       10  fpinit.o(x$fpl$fpinit)
    $v0                                      0x0000733e   Number         0  fpinit.o(x$fpl$fpinit)
    x$fpl$fretinf                            0x00007348   Section       10  fretinf.o(x$fpl$fretinf)
    $v0                                      0x00007348   Number         0  fretinf.o(x$fpl$fretinf)
    x$fpl$llsfromf                           0x00007354   Section      134  ffixll.o(x$fpl$llsfromf)
    $v0                                      0x00007354   Number         0  ffixll.o(x$fpl$llsfromf)
    x$fpl$usenofp                            0x000073da   Section        0  usenofp.o(x$fpl$usenofp)
    .constdata                               0x000073dc   Section       24  uart.o(.constdata)
    g_ulUARTBase                             0x000073dc   Data          12  uart.o(.constdata)
    g_ulUARTPeriph                           0x000073e8   Data          12  uart.o(.constdata)
    .constdata                               0x000073f4   Section      144  __thread.o(.constdata)
    .constdata                               0x00007484   Section       16  led.o(.constdata)
    .constdata                               0x00007494   Section       64  cfaf128x128x16.o(.constdata)
    .constdata                               0x000074d4   Section      104  rtx_conf_cm.o(.constdata)
    __tagsym$$used                           0x000074f0   Number         0  rtx_conf_cm.o(.constdata)
    __tagsym$$used                           0x000074f4   Number         0  rtx_conf_cm.o(.constdata)
    __tagsym$$used                           0x000074f8   Number         0  rtx_conf_cm.o(.constdata)
    __tagsym$$used                           0x000074fc   Number         0  rtx_conf_cm.o(.constdata)
    .constdata                               0x0000753c   Section      552  gpio.o(.constdata)
    g_ppui32GPIOIntMapBlizzard               0x0000753c   Data         192  gpio.o(.constdata)
    g_ppui32GPIOIntMapSnowflake              0x000075fc   Data         216  gpio.o(.constdata)
    g_pui32GPIOBaseAddrs                     0x000076d4   Data         144  gpio.o(.constdata)
    .constdata                               0x00007764   Section      268  interrupt.o(.constdata)
    g_pui32Priority                          0x00007764   Data          32  interrupt.o(.constdata)
    g_pui32Regs                              0x00007784   Data         156  interrupt.o(.constdata)
    g_pui32EnRegs                            0x00007820   Data          20  interrupt.o(.constdata)
    g_pui32Dii16Regs                         0x00007834   Data          20  interrupt.o(.constdata)
    g_pui32PendRegs                          0x00007848   Data          20  interrupt.o(.constdata)
    g_pui32UnpendRegs                        0x0000785c   Data          20  interrupt.o(.constdata)
    .constdata                               0x00007870   Section      596  sysctl.o(.constdata)
    g_pui32VCOFrequencies                    0x00007870   Data           8  sysctl.o(.constdata)
    g_pui32Xtals                             0x00007878   Data         108  sysctl.o(.constdata)
    g_pppui32XTALtoVCO                       0x000078e4   Data         432  sysctl.o(.constdata)
    g_sXTALtoMEMTIM                          0x00007a94   Data          48  sysctl.o(.constdata)
    .constdata                               0x00007ac4   Section       16  context.o(.constdata)
    .constdata                               0x00007ad4   Section      760  fontfixed6x8.o(.constdata)
    g_pui8FontFixed6x8Data                   0x00007ad4   Data         760  fontfixed6x8.o(.constdata)
    .constdata                               0x00007dcc   Section      200  fontfixed6x8.o(.constdata)
    .constdata                               0x00007e98   Section       80  asin.o(.constdata)
    pS                                       0x00007e98   Data          48  asin.o(.constdata)
    qS                                       0x00007ec8   Data          32  asin.o(.constdata)
    .constdata                               0x00007ee8   Section      152  atan.o(.constdata)
    atanhi                                   0x00007ee8   Data          32  atan.o(.constdata)
    atanlo                                   0x00007f08   Data          32  atan.o(.constdata)
    aTodd                                    0x00007f28   Data          40  atan.o(.constdata)
    aTeven                                   0x00007f50   Data          48  atan.o(.constdata)
    .constdata                               0x00007f80   Section       48  cos_i.o(.constdata)
    C                                        0x00007f80   Data          48  cos_i.o(.constdata)
    .constdata                               0x00007fb0   Section      200  rred.o(.constdata)
    pio2s                                    0x00007fb0   Data          48  rred.o(.constdata)
    twooverpi                                0x00007fe0   Data         152  rred.o(.constdata)
    .constdata                               0x00008078   Section       40  sin_i.o(.constdata)
    S                                        0x00008078   Data          40  sin_i.o(.constdata)
    .constdata                               0x000080a0   Section       96  tan_i.o(.constdata)
    Todd                                     0x000080a0   Data          48  tan_i.o(.constdata)
    Teven                                    0x000080d0   Data          48  tan_i.o(.constdata)
    .conststring                             0x00008100   Section      156  uart.o(.conststring)
    .conststring                             0x0000819c   Section       37  __thread.o(.conststring)
    .data                                    0x20000000   Section        4  uart.o(.data)
    g_ulBase                                 0x20000000   Data           4  uart.o(.data)
    .data                                    0x20000004   Section       76  __thread.o(.data)
    pAscii                                   0x20000048   Data           4  __thread.o(.data)
    pAscii                                   0x2000004c   Data           4  __thread.o(.data)
    .data                                    0x20000050   Section       11  pwm.o(.data)
    g_ui32SysClock                           0x20000050   Data           4  pwm.o(.data)
    g_current_amp                            0x20000054   Data           4  pwm.o(.data)
    g_current_per                            0x20000058   Data           2  pwm.o(.data)
    g_current_state                          0x2000005a   Data           1  pwm.o(.data)
    .data                                    0x2000005c   Section        7  display.o(.data)
    .data                                    0x20000064   Section       11  buzzer.o(.data)
    g_ui32SysClock                           0x20000064   Data           4  buzzer.o(.data)
    g_current_vol                            0x20000068   Data           4  buzzer.o(.data)
    g_current_per                            0x2000006c   Data           2  buzzer.o(.data)
    g_current_state                          0x2000006e   Data           1  buzzer.o(.data)
    .data                                    0x20000070   Section        5  cfaf128x128x16.o(.data)
    g_ui32SysClock                           0x20000070   Data           4  cfaf128x128x16.o(.data)
    _orientation                             0x20000074   Data           1  cfaf128x128x16.o(.data)
    .data                                    0x20000078   Section       20  rtx_conf_cm.o(.data)
    nr_mutex                                 0x20000088   Data           4  rtx_conf_cm.o(.data)
    .data                                    0x2000008c   Section        4  system_tm4c129.o(.data)
    .data                                    0x20000090   Section        4  context.o(.data)
    g_psGrLibDefaults                        0x20000090   Data           4  context.o(.data)
    .data                                    0x20000094   Section        8  rt_cmsis.o(.data)
    .data                                    0x2000009c   Section        8  rt_task.o(.data)
    .data                                    0x200000a4   Section        8  rt_system.o(.data)
    os_lock                                  0x200000a4   Data           1  rt_system.o(.data)
    os_psh_flag                              0x200000a5   Data           1  rt_system.o(.data)
    pend_flags                               0x200000a6   Data           1  rt_system.o(.data)
    .data                                    0x200000ac   Section        4  rt_time.o(.data)
    .data                                    0x200000b0   Section        8  rt_robin.o(.data)
    .data                                    0x200000b8   Section        1  hal_cm.o(.data)
    .bss                                     0x200000bc   Section      376  __thread.o(.bss)
    .bss                                     0x20000234   Section       44  display.o(.bss)
    .bss                                     0x20000260   Section    12928  rtx_conf_cm.o(.bss)
    std_libspace                             0x20002f80   Data        1248  rtx_conf_cm.o(.bss)
    std_libmutex                             0x20003460   Data         128  rtx_conf_cm.o(.bss)
    .bss                                     0x200034e0   Section       52  rt_task.o(.bss)
    .bss                                     0x20003514   Section       48  rt_list.o(.bss)
    .bss                                     0x20003544   Section       96  libspace.o(.bss)
    HEAP                                     0x200035a8   Section        0  startup_tm4c129.o(HEAP)
    STACK                                    0x200035a8   Section      512  startup_tm4c129.o(STACK)
    Heap_Mem                                 0x200035a8   Data           0  startup_tm4c129.o(HEAP)
    Stack_Mem                                0x200035a8   Data         512  startup_tm4c129.o(STACK)
    __initial_sp                             0x200037a8   Data           0  startup_tm4c129.o(STACK)

    Global Symbols

    Symbol Name                              Value     Ov Type        Size  Object(Section)

    BuildAttributes$$THM_ISAv4$E$P$D$K$B$S$7EM$VFPi3$EXTD16$VFPS$VFMA$PE$A:L22UL41UL21$X:L11$S22US41US21$IEEE1$IW$USESV6$~STKCKD$USESV7$~SHL$OTIME$ROPI$IEEEX$EBA8$UX$STANDARDLIB$REQ8$PRES8$EABIv2 0x00000000   Number         0  anon$$obj.o ABSOLUTE
    __ARM_use_no_argv                        0x00000000   Number         0  __thread.o ABSOLUTE
    __Vectors                                0x00000000   Data           4  startup_tm4c129.o(RESET)
    __ARM_exceptions_init                     - Undefined Weak Reference
    __alloca_initialize                       - Undefined Weak Reference
    __arm_preinit_                            - Undefined Weak Reference
    __cpp_initialize__aeabi_                  - Undefined Weak Reference
    __cxa_finalize                            - Undefined Weak Reference
    __rt_locale                               - Undefined Weak Reference
    __sigvec_lookup                           - Undefined Weak Reference
    _atexit_init                              - Undefined Weak Reference
    _call_atexit_fns                          - Undefined Weak Reference
    _clock_init                               - Undefined Weak Reference
    _fp_trap_init                             - Undefined Weak Reference
    _fp_trap_shutdown                         - Undefined Weak Reference
    _get_lc_collate                           - Undefined Weak Reference
    _get_lc_ctype                             - Undefined Weak Reference
    _get_lc_monetary                          - Undefined Weak Reference
    _get_lc_numeric                           - Undefined Weak Reference
    _get_lc_time                              - Undefined Weak Reference
    _getenv_init                              - Undefined Weak Reference
    _handle_redirection                       - Undefined Weak Reference
    _init_alloc                               - Undefined Weak Reference
    _init_user_alloc                          - Undefined Weak Reference
    _initio                                   - Undefined Weak Reference
    _rand_init                                - Undefined Weak Reference
    _signal_finish                            - Undefined Weak Reference
    _signal_init                              - Undefined Weak Reference
    _terminate_alloc                          - Undefined Weak Reference
    _terminate_user_alloc                     - Undefined Weak Reference
    _terminateio                              - Undefined Weak Reference
    __Vectors_End                            0x00000200   Data           0  startup_tm4c129.o(RESET)
    __Vectors_Size                           0x00000200   Number         0  startup_tm4c129.o ABSOLUTE
    __main                                   0x00000201   Thumb Code     8  __main.o(!!!main)
    __scatterload                            0x00000209   Thumb Code     0  __scatter.o(!!!scatter)
    __scatterload_rt2                        0x00000209   Thumb Code    44  __scatter.o(!!!scatter)
    __scatterload_rt2_thumb_only             0x00000209   Thumb Code     0  __scatter.o(!!!scatter)
    __scatterload_null                       0x00000217   Thumb Code     0  __scatter.o(!!!scatter)
    __scatterload_copy                       0x0000023d   Thumb Code    26  __scatter_copy.o(!!handler_copy)
    __scatterload_zeroinit                   0x00000259   Thumb Code    28  __scatter_zi.o(!!handler_zi)
    __rt_lib_init                            0x00000275   Thumb Code     0  libinit.o(.ARM.Collect$$libinit$$00000000)
    __rt_lib_init_fp_1                       0x00000277   Thumb Code     0  libinit2.o(.ARM.Collect$$libinit$$00000001)
    __rt_lib_init_alloca_1                   0x0000027b   Thumb Code     0  libinit2.o(.ARM.Collect$$libinit$$0000002E)
    __rt_lib_init_argv_1                     0x0000027b   Thumb Code     0  libinit2.o(.ARM.Collect$$libinit$$0000002C)
    __rt_lib_init_atexit_1                   0x0000027b   Thumb Code     0  libinit2.o(.ARM.Collect$$libinit$$0000001B)
    __rt_lib_init_clock_1                    0x0000027b   Thumb Code     0  libinit2.o(.ARM.Collect$$libinit$$00000021)
    __rt_lib_init_cpp_1                      0x0000027b   Thumb Code     0  libinit2.o(.ARM.Collect$$libinit$$00000032)
    __rt_lib_init_exceptions_1               0x0000027b   Thumb Code     0  libinit2.o(.ARM.Collect$$libinit$$00000030)
    __rt_lib_init_fp_trap_1                  0x0000027b   Thumb Code     0  libinit2.o(.ARM.Collect$$libinit$$0000001F)
    __rt_lib_init_getenv_1                   0x0000027b   Thumb Code     0  libinit2.o(.ARM.Collect$$libinit$$00000023)
    __rt_lib_init_heap_1                     0x0000027b   Thumb Code     0  libinit2.o(.ARM.Collect$$libinit$$0000000A)
    __rt_lib_init_lc_collate_1               0x0000027b   Thumb Code     0  libinit2.o(.ARM.Collect$$libinit$$00000011)
    __rt_lib_init_lc_ctype_1                 0x0000027b   Thumb Code     0  libinit2.o(.ARM.Collect$$libinit$$00000013)
    __rt_lib_init_lc_monetary_1              0x0000027b   Thumb Code     0  libinit2.o(.ARM.Collect$$libinit$$00000015)
    __rt_lib_init_lc_numeric_1               0x0000027b   Thumb Code     0  libinit2.o(.ARM.Collect$$libinit$$00000017)
    __rt_lib_init_lc_time_1                  0x0000027b   Thumb Code     0  libinit2.o(.ARM.Collect$$libinit$$00000019)
    __rt_lib_init_preinit_1                  0x0000027b   Thumb Code     0  libinit2.o(.ARM.Collect$$libinit$$00000004)
    __rt_lib_init_rand_1                     0x0000027b   Thumb Code     0  libinit2.o(.ARM.Collect$$libinit$$0000000E)
    __rt_lib_init_return                     0x0000027b   Thumb Code     0  libinit2.o(.ARM.Collect$$libinit$$00000033)
    __rt_lib_init_signal_1                   0x0000027b   Thumb Code     0  libinit2.o(.ARM.Collect$$libinit$$0000001D)
    __rt_lib_init_stdio_1                    0x0000027b   Thumb Code     0  libinit2.o(.ARM.Collect$$libinit$$00000025)
    __rt_lib_init_user_alloc_1               0x0000027b   Thumb Code     0  libinit2.o(.ARM.Collect$$libinit$$0000000C)
    __rt_lib_shutdown                        0x0000027d   Thumb Code     0  libshutdown.o(.ARM.Collect$$libshutdown$$00000000)
    __rt_lib_shutdown_cpp_1                  0x0000027f   Thumb Code     0  libshutdown2.o(.ARM.Collect$$libshutdown$$00000002)
    __rt_lib_shutdown_fp_trap_1              0x0000027f   Thumb Code     0  libshutdown2.o(.ARM.Collect$$libshutdown$$00000007)
    __rt_lib_shutdown_heap_1                 0x0000027f   Thumb Code     0  libshutdown2.o(.ARM.Collect$$libshutdown$$0000000F)
    __rt_lib_shutdown_return                 0x0000027f   Thumb Code     0  libshutdown2.o(.ARM.Collect$$libshutdown$$00000010)
    __rt_lib_shutdown_signal_1               0x0000027f   Thumb Code     0  libshutdown2.o(.ARM.Collect$$libshutdown$$0000000A)
    __rt_lib_shutdown_stdio_1                0x0000027f   Thumb Code     0  libshutdown2.o(.ARM.Collect$$libshutdown$$00000004)
    __rt_lib_shutdown_user_alloc_1           0x0000027f   Thumb Code     0  libshutdown2.o(.ARM.Collect$$libshutdown$$0000000C)
    __rt_entry                               0x00000281   Thumb Code     0  __rtentry.o(.ARM.Collect$$rtentry$$00000000)
    __rt_entry_presh_1                       0x00000281   Thumb Code     0  __rtentry2.o(.ARM.Collect$$rtentry$$00000002)
    __rt_entry_sh                            0x00000281   Thumb Code     0  __rtentry4.o(.ARM.Collect$$rtentry$$00000004)
    __rt_entry_li                            0x00000287   Thumb Code     0  __rtentry2.o(.ARM.Collect$$rtentry$$0000000A)
    __rt_entry_postsh_1                      0x00000287   Thumb Code     0  __rtentry2.o(.ARM.Collect$$rtentry$$00000009)
    __rt_entry_postli_1                      0x0000028b   Thumb Code     0  __rtentry2.o(.ARM.Collect$$rtentry$$0000000B)
    __rt_entry_main                          0x00000293   Thumb Code     0  __rtentry2.o(.ARM.Collect$$rtentry$$0000000D)
    __rt_exit                                0x0000029b   Thumb Code     0  rtexit.o(.ARM.Collect$$rtexit$$00000000)
    __rt_exit_ls                             0x0000029d   Thumb Code     0  rtexit2.o(.ARM.Collect$$rtexit$$00000003)
    __rt_exit_prels_1                        0x0000029d   Thumb Code     0  rtexit2.o(.ARM.Collect$$rtexit$$00000002)
    __rt_exit_exit                           0x000002a1   Thumb Code     0  rtexit2.o(.ARM.Collect$$rtexit$$00000004)
    _platform_post_lib_init                  0x000002a9   Thumb Code    24  rtx_conf_cm.o(.emb_text)
    SysCtlDelay                              0x000002c5   Thumb Code     6  sysctl.o(.emb_text)
    CPUcpsid                                 0x000002cd   Thumb Code     8  cpu.o(.emb_text)
    CPUprimask                               0x000002d5   Thumb Code     6  cpu.o(.emb_text)
    CPUcpsie                                 0x000002db   Thumb Code     8  cpu.o(.emb_text)
    CPUwfi                                   0x000002e3   Thumb Code     4  cpu.o(.emb_text)
    CPUbasepriSet                            0x000002e7   Thumb Code     6  cpu.o(.emb_text)
    CPUbasepriGet                            0x000002ed   Thumb Code     6  cpu.o(.emb_text)
    rt_set_PSP                               0x000002f5   Thumb Code     6  hal_cm4.o(.emb_text)
    rt_get_PSP                               0x000002fb   Thumb Code     6  hal_cm4.o(.emb_text)
    os_set_env                               0x00000301   Thumb Code    24  hal_cm4.o(.emb_text)
    _alloc_box                               0x0000031d   Thumb Code    28  hal_cm4.o(.emb_text)
    _free_box                                0x0000033d   Thumb Code    28  hal_cm4.o(.emb_text)
    SVC_Handler                              0x0000035d   Thumb Code   168  hal_cm4.o(.emb_text)
    PendSV_Handler                           0x00000415   Thumb Code    96  hal_cm4.o(.emb_text)
    SysTick_Handler                          0x00000479   Thumb Code     8  hal_cm4.o(.emb_text)
    OS_Tick_Handler                          0x00000481   Thumb Code    12  hal_cm4.o(.emb_text)
    __RL_RTX_VER                             0x00000482   Number         0  rt_system.o ABSOLUTE
    printchar                                0x0000048d   Thumb Code    20  uart.o(.text)
    UARTprintstring                          0x000004a1   Thumb Code    22  uart.o(.text)
    readchar                                 0x000004b7   Thumb Code    22  uart.o(.text)
    UART_printMenu                           0x000004cd   Thumb Code   112  uart.o(.text)
    inicia_UART                              0x0000053d   Thumb Code   216  uart.o(.text)
    UART_InString                            0x00000615   Thumb Code    66  uart.o(.text)
    UART_printMenu_A                         0x00000657   Thumb Code    76  uart.o(.text)
    UART_printMenu_BC                        0x000006a3   Thumb Code    40  uart.o(.text)
    timer_callback                           0x000007c9   Thumb Code     2  __thread.o(.text)
    TIMER0A_Handler                          0x000007cb   Thumb Code    12  __thread.o(.text)
    Timer_Init                               0x000007d7   Thumb Code    62  __thread.o(.text)
    DWT_Config                               0x00000815   Thumb Code     2  __thread.o(.text)
    UART0_Handler                            0x00000a07   Thumb Code   110  __thread.o(.text)
    init_all                                 0x00000a75   Thumb Code    28  __thread.o(.text)
    Init_Thread                              0x00000a91   Thumb Code   102  __thread.o(.text)
    UART                                     0x00000af7   Thumb Code  1066  __thread.o(.text)
    generateSignal                           0x00000f21   Thumb Code  1598  __thread.o(.text)
    PWM                                      0x0000155f   Thumb Code    92  __thread.o(.text)
    Display                                  0x000015bb   Thumb Code   366  __thread.o(.text)
    main                                     0x00001729   Thumb Code    46  __thread.o(.text)
    PWM_enable                               0x000017a1   Thumb Code    36  pwm.o(.text)
    PWM_amplitude_set                        0x000017c5   Thumb Code    64  pwm.o(.text)
    PWM_per_set                              0x00001805   Thumb Code    52  pwm.o(.text)
    PWM_function_init                        0x00001839   Thumb Code   126  pwm.o(.text)
    initScreen                               0x000018dd   Thumb Code    38  display.o(.text)
    drawFunction                             0x00001903   Thumb Code   162  display.o(.text)
    drawEixo                                 0x000019a5   Thumb Code    64  display.o(.text)
    drawFreqAmp                              0x000019e5   Thumb Code   190  display.o(.text)
    drawWaveType                             0x00001aa3   Thumb Code   304  display.o(.text)
    som                                      0x00001bd3   Thumb Code    34  display.o(.text)
    buzzer_write                             0x00001d5f   Thumb Code    20  buzzer.o(.text)
    buzzer_vol_set                           0x00001d73   Thumb Code    58  buzzer.o(.text)
    buzzer_per_set                           0x00001dad   Thumb Code    52  buzzer.o(.text)
    buzzer_init                              0x00001de1   Thumb Code   116  buzzer.o(.text)
    led_init                                 0x00001e7d   Thumb Code    94  led.o(.text)
    led_on                                   0x00001edb   Thumb Code   112  led.o(.text)
    led_off                                  0x00001f4b   Thumb Code   112  led.o(.text)
    led_write                                0x00001fbb   Thumb Code    38  led.o(.text)
    cfaf128x128x16Rect                       0x000021b5   Thumb Code   134  cfaf128x128x16.o(.text)
    cfaf128x128x16LineVer                    0x0000223b   Thumb Code    38  cfaf128x128x16.o(.text)
    cfaf128x128x16LineHor                    0x00002261   Thumb Code    38  cfaf128x128x16.o(.text)
    cfaf128x128x16Dot                        0x00002287   Thumb Code    30  cfaf128x128x16.o(.text)
    cfaf128x128x16SetOrientation             0x00002589   Thumb Code    74  cfaf128x128x16.o(.text)
    cfaf128x128x16ClearColor                 0x000025d3   Thumb Code    36  cfaf128x128x16.o(.text)
    cfaf128x128x16Clear                      0x000025f7   Thumb Code    10  cfaf128x128x16.o(.text)
    InitSSICom                               0x0000261d   Thumb Code   178  cfaf128x128x16.o(.text)
    cfaf128x128x16Init                       0x000026cf   Thumb Code   384  cfaf128x128x16.o(.text)
    os_idle_demon                            0x000028a1   Thumb Code     4  rtx_conf_cm.o(.text)
    os_error                                 0x000028a5   Thumb Code    32  rtx_conf_cm.o(.text)
    __user_perthread_libspace                0x000028c5   Thumb Code    32  rtx_conf_cm.o(.text)
    _mutex_initialize                        0x000028e5   Thumb Code    34  rtx_conf_cm.o(.text)
    _mutex_acquire                           0x00002907   Thumb Code    22  rtx_conf_cm.o(.text)
    _mutex_release                           0x0000291d   Thumb Code    18  rtx_conf_cm.o(.text)
    Reset_Handler                            0x0000294d   Thumb Code     8  startup_tm4c129.o(.text)
    NMI_Handler                              0x00002955   Thumb Code     2  startup_tm4c129.o(.text)
    HardFault_Handler                        0x00002957   Thumb Code     2  startup_tm4c129.o(.text)
    MemManage_Handler                        0x00002959   Thumb Code     2  startup_tm4c129.o(.text)
    BusFault_Handler                         0x0000295b   Thumb Code     2  startup_tm4c129.o(.text)
    UsageFault_Handler                       0x0000295d   Thumb Code     2  startup_tm4c129.o(.text)
    DebugMon_Handler                         0x00002961   Thumb Code     2  startup_tm4c129.o(.text)
    GPIOA_Handler                            0x00002967   Thumb Code     2  startup_tm4c129.o(.text)
    GPIOB_Handler                            0x00002969   Thumb Code     2  startup_tm4c129.o(.text)
    GPIOC_Handler                            0x0000296b   Thumb Code     2  startup_tm4c129.o(.text)
    GPIOD_Handler                            0x0000296d   Thumb Code     2  startup_tm4c129.o(.text)
    GPIOE_Handler                            0x0000296f   Thumb Code     2  startup_tm4c129.o(.text)
    UART1_Handler                            0x00002973   Thumb Code     2  startup_tm4c129.o(.text)
    SSI0_Handler                             0x00002975   Thumb Code     2  startup_tm4c129.o(.text)
    I2C0_Handler                             0x00002977   Thumb Code     2  startup_tm4c129.o(.text)
    PMW0_FAULT_Handler                       0x00002979   Thumb Code     2  startup_tm4c129.o(.text)
    PWM0_0_Handler                           0x0000297b   Thumb Code     2  startup_tm4c129.o(.text)
    PWM0_1_Handler                           0x0000297d   Thumb Code     2  startup_tm4c129.o(.text)
    PWM0_2_Handler                           0x0000297f   Thumb Code     2  startup_tm4c129.o(.text)
    QEI0_Handler                             0x00002981   Thumb Code     2  startup_tm4c129.o(.text)
    ADC0SS0_Handler                          0x00002983   Thumb Code     2  startup_tm4c129.o(.text)
    ADC0SS1_Handler                          0x00002985   Thumb Code     2  startup_tm4c129.o(.text)
    ADC0SS2_Handler                          0x00002987   Thumb Code     2  startup_tm4c129.o(.text)
    ADC0SS3_Handler                          0x00002989   Thumb Code     2  startup_tm4c129.o(.text)
    WDT0_Handler                             0x0000298b   Thumb Code     2  startup_tm4c129.o(.text)
    TIMER0B_Handler                          0x0000298f   Thumb Code     2  startup_tm4c129.o(.text)
    TIMER1A_Handler                          0x00002991   Thumb Code     2  startup_tm4c129.o(.text)
    TIMER1B_Handler                          0x00002993   Thumb Code     2  startup_tm4c129.o(.text)
    TIMER2A_Handler                          0x00002995   Thumb Code     2  startup_tm4c129.o(.text)
    TIMER2B_Handler                          0x00002997   Thumb Code     2  startup_tm4c129.o(.text)
    COMP0_Handler                            0x00002999   Thumb Code     2  startup_tm4c129.o(.text)
    COMP1_Handler                            0x0000299b   Thumb Code     2  startup_tm4c129.o(.text)
    COMP2_Handler                            0x0000299d   Thumb Code     2  startup_tm4c129.o(.text)
    SYSCTL_Handler                           0x0000299f   Thumb Code     2  startup_tm4c129.o(.text)
    FLASH_Handler                            0x000029a1   Thumb Code     2  startup_tm4c129.o(.text)
    GPIOF_Handler                            0x000029a3   Thumb Code     2  startup_tm4c129.o(.text)
    GPIOG_Handler                            0x000029a5   Thumb Code     2  startup_tm4c129.o(.text)
    GPIOH_Handler                            0x000029a7   Thumb Code     2  startup_tm4c129.o(.text)
    UART2_Handler                            0x000029a9   Thumb Code     2  startup_tm4c129.o(.text)
    SSI1_Handler                             0x000029ab   Thumb Code     2  startup_tm4c129.o(.text)
    TIMER3A_Handler                          0x000029ad   Thumb Code     2  startup_tm4c129.o(.text)
    TIMER3B_Handler                          0x000029af   Thumb Code     2  startup_tm4c129.o(.text)
    I2C1_Handler                             0x000029b1   Thumb Code     2  startup_tm4c129.o(.text)
    CAN0_Handler                             0x000029b3   Thumb Code     2  startup_tm4c129.o(.text)
    CAN1_Handler                             0x000029b5   Thumb Code     2  startup_tm4c129.o(.text)
    ETH_Handler                              0x000029b7   Thumb Code     2  startup_tm4c129.o(.text)
    HIB_Handler                              0x000029b9   Thumb Code     2  startup_tm4c129.o(.text)
    USB0_Handler                             0x000029bb   Thumb Code     2  startup_tm4c129.o(.text)
    PWM0_3_Handler                           0x000029bd   Thumb Code     2  startup_tm4c129.o(.text)
    UDMA_Handler                             0x000029bf   Thumb Code     2  startup_tm4c129.o(.text)
    UDMAERR_Handler                          0x000029c1   Thumb Code     2  startup_tm4c129.o(.text)
    ADC1SS0_Handler                          0x000029c3   Thumb Code     2  startup_tm4c129.o(.text)
    ADC1SS1_Handler                          0x000029c5   Thumb Code     2  startup_tm4c129.o(.text)
    ADC1SS2_Handler                          0x000029c7   Thumb Code     2  startup_tm4c129.o(.text)
    ADC1SS3_Handler                          0x000029c9   Thumb Code     2  startup_tm4c129.o(.text)
    EBI0_Handler                             0x000029cb   Thumb Code     2  startup_tm4c129.o(.text)
    GPIOJ_Handler                            0x000029cd   Thumb Code     2  startup_tm4c129.o(.text)
    GPIOK_Handler                            0x000029cf   Thumb Code     2  startup_tm4c129.o(.text)
    GPIOL_Handler                            0x000029d1   Thumb Code     2  startup_tm4c129.o(.text)
    SSI2_Handler                             0x000029d3   Thumb Code     2  startup_tm4c129.o(.text)
    SSI3_Handler                             0x000029d5   Thumb Code     2  startup_tm4c129.o(.text)
    UART3_Handler                            0x000029d7   Thumb Code     2  startup_tm4c129.o(.text)
    UART4_Handler                            0x000029d9   Thumb Code     2  startup_tm4c129.o(.text)
    UART5_Handler                            0x000029db   Thumb Code     2  startup_tm4c129.o(.text)
    UART6_Handler                            0x000029dd   Thumb Code     2  startup_tm4c129.o(.text)
    UART7_Handler                            0x000029df   Thumb Code     2  startup_tm4c129.o(.text)
    I2C2_Handler                             0x000029e1   Thumb Code     2  startup_tm4c129.o(.text)
    I2C3_Handler                             0x000029e3   Thumb Code     2  startup_tm4c129.o(.text)
    TIMER4A_Handler                          0x000029e5   Thumb Code     2  startup_tm4c129.o(.text)
    TIMER4B_Handler                          0x000029e7   Thumb Code     2  startup_tm4c129.o(.text)
    TIMER5A_Handler                          0x000029e9   Thumb Code     2  startup_tm4c129.o(.text)
    TIMER5B_Handler                          0x000029eb   Thumb Code     2  startup_tm4c129.o(.text)
    WTIMER0A_Handler                         0x000029ed   Thumb Code     2  startup_tm4c129.o(.text)
    WTIMER0B_Handler                         0x000029ef   Thumb Code     2  startup_tm4c129.o(.text)
    WTIMER1A_Handler                         0x000029f1   Thumb Code     2  startup_tm4c129.o(.text)
    WTIMER1B_Handler                         0x000029f3   Thumb Code     2  startup_tm4c129.o(.text)
    WTIMER2A_Handler                         0x000029f5   Thumb Code     2  startup_tm4c129.o(.text)
    WTIMER2B_Handler                         0x000029f7   Thumb Code     2  startup_tm4c129.o(.text)
    WTIMER3A_Handler                         0x000029f9   Thumb Code     2  startup_tm4c129.o(.text)
    WTIMER3B_Handler                         0x000029fb   Thumb Code     2  startup_tm4c129.o(.text)
    WTIMER4A_Handler                         0x000029fd   Thumb Code     2  startup_tm4c129.o(.text)
    WTIMER4B_Handler                         0x000029ff   Thumb Code     2  startup_tm4c129.o(.text)
    WTIMER5A_Handler                         0x00002a01   Thumb Code     2  startup_tm4c129.o(.text)
    WTIMER5B_Handler                         0x00002a03   Thumb Code     2  startup_tm4c129.o(.text)
    FPU_Handler                              0x00002a05   Thumb Code     2  startup_tm4c129.o(.text)
    I2C4_Handler                             0x00002a07   Thumb Code     2  startup_tm4c129.o(.text)
    I2C5_Handler                             0x00002a09   Thumb Code     2  startup_tm4c129.o(.text)
    GPIOM_Handler                            0x00002a0b   Thumb Code     2  startup_tm4c129.o(.text)
    GPION_Handler                            0x00002a0d   Thumb Code     2  startup_tm4c129.o(.text)
    TAMPER_Handler                           0x00002a0f   Thumb Code     2  startup_tm4c129.o(.text)
    GPIOP0_Handler                           0x00002a11   Thumb Code     2  startup_tm4c129.o(.text)
    GPIOP1_Handler                           0x00002a13   Thumb Code     2  startup_tm4c129.o(.text)
    GPIOP2_Handler                           0x00002a15   Thumb Code     2  startup_tm4c129.o(.text)
    GPIOP3_Handler                           0x00002a17   Thumb Code     2  startup_tm4c129.o(.text)
    GPIOP4_Handler                           0x00002a19   Thumb Code     2  startup_tm4c129.o(.text)
    GPIOP5_Handler                           0x00002a1b   Thumb Code     2  startup_tm4c129.o(.text)
    GPIOP6_Handler                           0x00002a1d   Thumb Code     2  startup_tm4c129.o(.text)
    GPIOP7_Handler                           0x00002a1f   Thumb Code     2  startup_tm4c129.o(.text)
    GPIOQ0_Handler                           0x00002a21   Thumb Code     2  startup_tm4c129.o(.text)
    GPIOQ1_Handler                           0x00002a23   Thumb Code     2  startup_tm4c129.o(.text)
    GPIOQ2_Handler                           0x00002a25   Thumb Code     2  startup_tm4c129.o(.text)
    GPIOQ3_Handler                           0x00002a27   Thumb Code     2  startup_tm4c129.o(.text)
    GPIOQ4_Handler                           0x00002a29   Thumb Code     2  startup_tm4c129.o(.text)
    GPIOQ5_Handler                           0x00002a2b   Thumb Code     2  startup_tm4c129.o(.text)
    GPIOQ6_Handler                           0x00002a2d   Thumb Code     2  startup_tm4c129.o(.text)
    GPIOQ7_Handler                           0x00002a2f   Thumb Code     2  startup_tm4c129.o(.text)
    GPIOR_Handler                            0x00002a31   Thumb Code     2  startup_tm4c129.o(.text)
    GPIOS_Handler                            0x00002a33   Thumb Code     2  startup_tm4c129.o(.text)
    SHAMD5_Handler                           0x00002a35   Thumb Code     2  startup_tm4c129.o(.text)
    AES_Handler                              0x00002a37   Thumb Code     2  startup_tm4c129.o(.text)
    DES3DES_Handler                          0x00002a39   Thumb Code     2  startup_tm4c129.o(.text)
    LCDCONTROLLER_Handler                    0x00002a3b   Thumb Code     2  startup_tm4c129.o(.text)
    TIMER6A_Handler                          0x00002a3d   Thumb Code     2  startup_tm4c129.o(.text)
    TIMER6B_Handler                          0x00002a3f   Thumb Code     2  startup_tm4c129.o(.text)
    TIMER7A_Handler                          0x00002a41   Thumb Code     2  startup_tm4c129.o(.text)
    TIMER7B_Handler                          0x00002a43   Thumb Code     2  startup_tm4c129.o(.text)
    I2C6_Handler                             0x00002a45   Thumb Code     2  startup_tm4c129.o(.text)
    I2C7_Handler                             0x00002a47   Thumb Code     2  startup_tm4c129.o(.text)
    HIMSCANKEYBOARD_Handler                  0x00002a49   Thumb Code     2  startup_tm4c129.o(.text)
    ONEWIRE_Handler                          0x00002a4b   Thumb Code     2  startup_tm4c129.o(.text)
    HIMPS2_Handler                           0x00002a4d   Thumb Code     2  startup_tm4c129.o(.text)
    HIMLEDSEQUENCER_Handler                  0x00002a4f   Thumb Code     2  startup_tm4c129.o(.text)
    HIMCONSUMERIR_Handler                    0x00002a51   Thumb Code     2  startup_tm4c129.o(.text)
    I2C8_Handler                             0x00002a53   Thumb Code     2  startup_tm4c129.o(.text)
    I2C9_Handler                             0x00002a55   Thumb Code     2  startup_tm4c129.o(.text)
    GPIOT_Handler                            0x00002a57   Thumb Code     2  startup_tm4c129.o(.text)
    __user_initial_stackheap                 0x00002a59   Thumb Code     0  startup_tm4c129.o(.text)
    SystemCoreClockUpdate                    0x00002a79   Thumb Code     8  system_tm4c129.o(.text)
    SystemInit                               0x00002a81   Thumb Code    20  system_tm4c129.o(.text)
    __user_libspace                          0x00002aa1   Thumb Code     8  libspace.o(.text)
    __user_perproc_libspace                  0x00002aa1   Thumb Code     0  libspace.o(.text)
    __aeabi_uldivmod                         0x00002aa9   Thumb Code     0  lludivv7m.o(.text)
    _ll_udiv                                 0x00002aa9   Thumb Code   238  lludivv7m.o(.text)
    __aeabi_ldivmod                          0x00002b97   Thumb Code     0  llsdiv.o(.text)
    _ll_sdiv                                 0x00002b97   Thumb Code    72  llsdiv.o(.text)
    exit                                     0x00002bdf   Thumb Code    18  exit.o(.text)
    __use_two_region_memory                  0x00002bf1   Thumb Code     2  heapauxi.o(.text)
    __rt_heap_escrow$2region                 0x00002bf3   Thumb Code     2  heapauxi.o(.text)
    __rt_heap_expand$2region                 0x00002bf5   Thumb Code     2  heapauxi.o(.text)
    __read_errno                             0x00002bf7   Thumb Code    10  _rserrno.o(.text)
    __set_errno                              0x00002c01   Thumb Code    12  _rserrno.o(.text)
    __aeabi_errno_addr                       0x00002c0d   Thumb Code     4  rt_errno_addr_twolibspace.o(.text)
    __errno$twolibspace                      0x00002c0d   Thumb Code     0  rt_errno_addr_twolibspace.o(.text)
    __rt_errno_addr$twolibspace              0x00002c0d   Thumb Code     0  rt_errno_addr_twolibspace.o(.text)
    _sys_exit                                0x00002c11   Thumb Code     8  sys_exit.o(.text)
    __user_setup_stackheap                   0x00002c1d   Thumb Code    74  sys_stackheap_outer.o(.text)
    __I$use$semihosting                      0x00002c67   Thumb Code     0  use_no_semi.o(.text)
    __use_no_semihosting_swi                 0x00002c67   Thumb Code     2  use_no_semi.o(.text)
    SVC_Count                                0x00002c68   Data           4  svc_table.o(SVC_TABLE)
    __semihosting_library_function           0x00002c69   Thumb Code     0  indicate_semi.o(.text)
    GPIODirModeSet                           0x00002c6d   Thumb Code    40  gpio.o(i.GPIODirModeSet)
    SVC_Table                                0x00002c6c   Data           0  svc_table.o(SVC_TABLE)
    GPIOPadConfigSet                         0x00002c95   Thumb Code   312  gpio.o(i.GPIOPadConfigSet)
    GPIOPinConfigure                         0x00002dcd   Thumb Code    60  gpio.o(i.GPIOPinConfigure)
    GPIOPinTypePWM                           0x00002e11   Thumb Code    28  gpio.o(i.GPIOPinTypePWM)
    GPIOPinTypeUART                          0x00002e2d   Thumb Code    28  gpio.o(i.GPIOPinTypeUART)
    GrContextFontSet                         0x00002e49   Thumb Code     6  string.o(i.GrContextFontSet)
    GrContextInit                            0x00002e51   Thumb Code    88  context.o(i.GrContextInit)
    GrDefaultStringRenderer                  0x00002eb5   Thumb Code   280  string.o(i.GrDefaultStringRenderer)
    GrFontGlyphDataGet                       0x00002fcd   Thumb Code   166  string.o(i.GrFontGlyphDataGet)
    GrFontGlyphRender                        0x00003073   Thumb Code   648  string.o(i.GrFontGlyphRender)
    GrLineDrawH                              0x000032fb   Thumb Code    76  line.o(i.GrLineDrawH)
    GrLineDrawV                              0x00003347   Thumb Code    76  line.o(i.GrLineDrawV)
    GrMapISO8859_1_Unicode                   0x00003393   Thumb Code     8  charmap.o(i.GrMapISO8859_1_Unicode)
    GrStringDraw                             0x0000339b   Thumb Code    32  string.o(i.GrStringDraw)
    IntEnable                                0x000033bd   Thumb Code    92  interrupt.o(i.IntEnable)
    IntMasterEnable                          0x00003421   Thumb Code    14  interrupt.o(i.IntMasterEnable)
    PWMClockSet                              0x0000342f   Thumb Code    20  pwm.o(i.PWMClockSet)
    PWMGenConfigure                          0x00003443   Thumb Code    38  pwm.o(i.PWMGenConfigure)
    PWMGenEnable                             0x00003469   Thumb Code    10  pwm.o(i.PWMGenEnable)
    PWMGenPeriodGet                          0x00003473   Thumb Code    18  pwm.o(i.PWMGenPeriodGet)
    PWMGenPeriodSet                          0x00003485   Thumb Code    18  pwm.o(i.PWMGenPeriodSet)
    PWMOutputInvert                          0x00003497   Thumb Code    16  pwm.o(i.PWMOutputInvert)
    PWMOutputState                           0x000034a7   Thumb Code    16  pwm.o(i.PWMOutputState)
    PWMPulseWidthSet                         0x000034b7   Thumb Code    32  pwm.o(i.PWMPulseWidthSet)
    SysCtlClockFreqSet                       0x000034d9   Thumb Code   706  sysctl.o(i.SysCtlClockFreqSet)
    SysCtlClockGet                           0x000037c5   Thumb Code   304  sysctl.o(i.SysCtlClockGet)
    SysCtlPeripheralEnable                   0x00003919   Thumb Code    36  sysctl.o(i.SysCtlPeripheralEnable)
    SysCtlPeripheralReady                    0x00003941   Thumb Code    40  sysctl.o(i.SysCtlPeripheralReady)
    TimerConfigure                           0x0000396d   Thumb Code    88  timer.o(i.TimerConfigure)
    TimerEnable                              0x000039cd   Thumb Code    14  timer.o(i.TimerEnable)
    TimerIntClear                            0x000039db   Thumb Code     4  timer.o(i.TimerIntClear)
    TimerIntEnable                           0x000039df   Thumb Code     8  timer.o(i.TimerIntEnable)
    TimerLoadSet                             0x000039e7   Thumb Code    18  timer.o(i.TimerLoadSet)
    UARTConfigSetExpClk                      0x000039f9   Thumb Code   110  uart.o(i.UARTConfigSetExpClk)
    UARTEnable                               0x00003a67   Thumb Code    20  uart.o(i.UARTEnable)
    __ARM_fpclassify                         0x00003ae7   Thumb Code    48  fpclassify.o(i.__ARM_fpclassify)
    __hardfp_asin                            0x00003b19   Thumb Code   770  asin.o(i.__hardfp_asin)
    __hardfp_atan                            0x00003e79   Thumb Code   622  atan.o(i.__hardfp_atan)
    __hardfp_sin                             0x00004151   Thumb Code   180  sin.o(i.__hardfp_sin)
    __hardfp_tan                             0x00004219   Thumb Code   108  tan.o(i.__hardfp_tan)
    __ieee754_rem_pio2                       0x00004299   Thumb Code   938  rred.o(i.__ieee754_rem_pio2)
    __kernel_cos                             0x000046d1   Thumb Code   322  cos_i.o(i.__kernel_cos)
    __kernel_poly                            0x00004841   Thumb Code   248  poly.o(i.__kernel_poly)
    __kernel_sin                             0x00004939   Thumb Code   280  sin_i.o(i.__kernel_sin)
    __kernel_tan                             0x00004a69   Thumb Code   764  tan_i.o(i.__kernel_tan)
    __mathlib_dbl_infnan                     0x00004db9   Thumb Code    20  dunder.o(i.__mathlib_dbl_infnan)
    __mathlib_dbl_invalid                    0x00004dd1   Thumb Code    24  dunder.o(i.__mathlib_dbl_invalid)
    __mathlib_dbl_underflow                  0x00004df1   Thumb Code    24  dunder.o(i.__mathlib_dbl_underflow)
    _init_box                                0x00004e11   Thumb Code    70  rt_membox.o(i._init_box)
    dbg_init                                 0x00004e59   Thumb Code    34  hal_cm.o(i.dbg_init)
    dbg_task_notify                          0x00004e89   Thumb Code    32  hal_cm.o(i.dbg_task_notify)
    dbg_task_switch                          0x00004ea9   Thumb Code    16  hal_cm.o(i.dbg_task_switch)
    fabs                                     0x00004eb9   Thumb Code    24  fabs.o(i.fabs)
    isrMessageGet                            0x00004ed1   Thumb Code    42  rt_cmsis.o(i.isrMessageGet)
    isrMessagePut                            0x00004efb   Thumb Code    44  rt_cmsis.o(i.isrMessagePut)
    isrSignalSet                             0x00004f27   Thumb Code    36  rt_cmsis.o(i.isrSignalSet)
    isr_evt_set                              0x00004f4d   Thumb Code    34  rt_event.o(i.isr_evt_set)
    isr_mbx_receive                          0x00004f75   Thumb Code    86  rt_mailbox.o(i.isr_mbx_receive)
    isr_mbx_send                             0x00004fcb   Thumb Code    14  rt_mailbox.o(i.isr_mbx_send)
    osDelay                                  0x00004fd9   Thumb Code    18  rt_cmsis.o(i.osDelay)
    osKernelInitialize                       0x00004ff1   Thumb Code    30  rt_cmsis.o(i.osKernelInitialize)
    osKernelStart                            0x00005015   Thumb Code    98  rt_cmsis.o(i.osKernelStart)
    osKernelSysTick                          0x00005081   Thumb Code    18  rt_cmsis.o(i.osKernelSysTick)
    osMailAlloc                              0x00005099   Thumb Code    22  rt_cmsis.o(i.osMailAlloc)
    osMailCAlloc                             0x000050b5   Thumb Code    44  rt_cmsis.o(i.osMailCAlloc)
    osMailCreate                             0x000050e5   Thumb Code    36  rt_cmsis.o(i.osMailCreate)
    osMailFree                               0x00005111   Thumb Code    22  rt_cmsis.o(i.osMailFree)
    osMailGet                                0x0000512d   Thumb Code    22  rt_cmsis.o(i.osMailGet)
    osMailPut                                0x00005143   Thumb Code    20  rt_cmsis.o(i.osMailPut)
    osMessageCreate                          0x00005159   Thumb Code    36  rt_cmsis.o(i.osMessageCreate)
    osMessageGet                             0x00005185   Thumb Code    18  rt_cmsis.o(i.osMessageGet)
    osMessagePut                             0x0000519d   Thumb Code    18  rt_cmsis.o(i.osMessagePut)
    osSignalClear                            0x000051b5   Thumb Code    20  rt_cmsis.o(i.osSignalClear)
    osSignalSet                              0x000051cd   Thumb Code    18  rt_cmsis.o(i.osSignalSet)
    osSignalWait                             0x000051e5   Thumb Code    18  rt_cmsis.o(i.osSignalWait)
    osThreadCreate                           0x000051fd   Thumb Code    36  rt_cmsis.o(i.osThreadCreate)
    osThreadExit                             0x00005229   Thumb Code    14  rt_cmsis.o(i.osThreadExit)
    osTimerCall                              0x00005241   Thumb Code     8  rt_cmsis.o(i.osTimerCall)
    osTimerCreate                            0x0000524d   Thumb Code    36  rt_cmsis.o(i.osTimerCreate)
    osTimerThread                            0x00005279   Thumb Code    38  rt_cmsis.o(i.osTimerThread)
    os_tick_init                             0x000052a5   Thumb Code    32  rt_system.o(i.os_tick_init)
    os_tick_irqack                           0x000052cd   Thumb Code     2  rt_system.o(i.os_tick_irqack)
    os_tick_ovf                              0x000052d1   Thumb Code    10  rt_system.o(i.os_tick_ovf)
    os_tick_val                              0x000052e1   Thumb Code    14  rt_system.o(i.os_tick_val)
    rt_alloc_box                             0x000052f5   Thumb Code    26  rt_membox.o(i.rt_alloc_box)
    rt_alloc_mem                             0x0000530f   Thumb Code    62  rt_memory.o(i.rt_alloc_mem)
    rt_block                                 0x0000534d   Thumb Code    48  rt_task.o(i.rt_block)
    rt_chk_robin                             0x00005385   Thumb Code    60  rt_robin.o(i.rt_chk_robin)
    rt_dec_dly                               0x000053e5   Thumb Code   102  rt_list.o(i.rt_dec_dly)
    rt_dispatch                              0x00005455   Thumb Code    60  rt_task.o(i.rt_dispatch)
    rt_dly_wait                              0x00005499   Thumb Code     6  rt_time.o(i.rt_dly_wait)
    rt_evt_clr                               0x000054a1   Thumb Code    22  rt_event.o(i.rt_evt_clr)
    rt_evt_psh                               0x000054bd   Thumb Code    76  rt_event.o(i.rt_evt_psh)
    rt_evt_set                               0x0000550d   Thumb Code    88  rt_event.o(i.rt_evt_set)
    rt_evt_wait                              0x00005569   Thumb Code    56  rt_event.o(i.rt_evt_wait)
    rt_free_box                              0x000055a5   Thumb Code    44  rt_membox.o(i.rt_free_box)
    rt_free_mem                              0x000055d1   Thumb Code    40  rt_memory.o(i.rt_free_mem)
    rt_get_first                             0x000055f9   Thumb Code    40  rt_list.o(i.rt_get_first)
    rt_init_mem                              0x00005671   Thumb Code    26  rt_memory.o(i.rt_init_mem)
    rt_init_robin                            0x0000568d   Thumb Code    14  rt_robin.o(i.rt_init_robin)
    rt_init_stack                            0x000056a5   Thumb Code   118  hal_cm.o(i.rt_init_stack)
    rt_mbx_check                             0x00005725   Thumb Code     8  rt_mailbox.o(i.rt_mbx_check)
    rt_mbx_init                              0x0000572d   Thumb Code    26  rt_mailbox.o(i.rt_mbx_init)
    rt_mbx_psh                               0x00005749   Thumb Code   236  rt_mailbox.o(i.rt_mbx_psh)
    rt_mbx_send                              0x00005839   Thumb Code   148  rt_mailbox.o(i.rt_mbx_send)
    rt_mbx_wait                              0x000058d1   Thumb Code   174  rt_mailbox.o(i.rt_mbx_wait)
    rt_mut_init                              0x000059c9   Thumb Code    16  rt_mutex.o(i.rt_mut_init)
    rt_mut_release                           0x000059d9   Thumb Code   208  rt_mutex.o(i.rt_mut_release)
    rt_mut_wait                              0x00005ab1   Thumb Code   114  rt_mutex.o(i.rt_mut_wait)
    rt_pop_req                               0x00005b29   Thumb Code   112  rt_system.o(i.rt_pop_req)
    rt_psh_req                               0x00005ba5   Thumb Code    22  rt_system.o(i.rt_psh_req)
    rt_psq_enq                               0x00005bc5   Thumb Code    88  rt_list.o(i.rt_psq_enq)
    rt_put_dly                               0x00005c21   Thumb Code    68  rt_list.o(i.rt_put_dly)
    rt_put_prio                              0x00005c69   Thumb Code    54  rt_list.o(i.rt_put_prio)
    rt_put_rdy_first                         0x00005ca1   Thumb Code    14  rt_list.o(i.rt_put_rdy_first)
    rt_resort_prio                           0x00005cb5   Thumb Code    46  rt_list.o(i.rt_resort_prio)
    rt_ret_val                               0x00005cf9   Thumb Code    12  hal_cm.o(i.rt_ret_val)
    rt_ret_val2                              0x00005d05   Thumb Code    16  hal_cm.o(i.rt_ret_val2)
    rt_rmv_dly                               0x00005d15   Thumb Code    40  rt_list.o(i.rt_rmv_dly)
    rt_rmv_list                              0x00005d3d   Thumb Code    44  rt_list.o(i.rt_rmv_list)
    rt_sem_psh                               0x00005d6d   Thumb Code    48  rt_semaphore.o(i.rt_sem_psh)
    rt_stk_check                             0x00005da1   Thumb Code    28  rt_system.o(i.rt_stk_check)
    rt_switch_req                            0x00005dc5   Thumb Code    30  rt_task.o(i.rt_switch_req)
    rt_sys_init                              0x00005ded   Thumb Code   138  rt_task.o(i.rt_sys_init)
    rt_sys_start                             0x00005eb9   Thumb Code   110  rt_task.o(i.rt_sys_start)
    rt_systick                               0x00005f31   Thumb Code    50  rt_system.o(i.rt_systick)
    rt_tsk_create                            0x00005fb9   Thumb Code   118  rt_task.o(i.rt_tsk_create)
    rt_tsk_delete                            0x00006041   Thumb Code   352  rt_task.o(i.rt_tsk_delete)
    rt_tsk_prio                              0x000061bd   Thumb Code   108  rt_task.o(i.rt_tsk_prio)
    rt_tsk_self                              0x00006239   Thumb Code    12  rt_task.o(i.rt_tsk_self)
    sqrt                                     0x00006249   Thumb Code   110  sqrt.o(i.sqrt)
    svcDelay                                 0x000062b7   Thumb Code    18  rt_cmsis.o(i.svcDelay)
    svcKernelInitialize                      0x000062c9   Thumb Code    80  rt_cmsis.o(i.svcKernelInitialize)
    svcKernelStart                           0x00006339   Thumb Code    62  rt_cmsis.o(i.svcKernelStart)
    svcKernelSysTick                         0x00006381   Thumb Code    46  rt_cmsis.o(i.svcKernelSysTick)
    svcMailCreate                            0x000063b9   Thumb Code    66  rt_cmsis.o(i.svcMailCreate)
    svcMessageCreate                         0x000063fb   Thumb Code    36  rt_cmsis.o(i.svcMessageCreate)
    svcMessageGet                            0x0000641f   Thumb Code    58  rt_cmsis.o(i.svcMessageGet)
    svcMessagePut                            0x00006459   Thumb Code    54  rt_cmsis.o(i.svcMessagePut)
    svcSignalClear                           0x0000648f   Thumb Code    36  rt_cmsis.o(i.svcSignalClear)
    svcSignalSet                             0x000064b3   Thumb Code    36  rt_cmsis.o(i.svcSignalSet)
    svcSignalWait                            0x000064d9   Thumb Code    80  rt_cmsis.o(i.svcSignalWait)
    svcThreadCreate                          0x0000652d   Thumb Code    96  rt_cmsis.o(i.svcThreadCreate)
    svcThreadGetId                           0x00006599   Thumb Code    22  rt_cmsis.o(i.svcThreadGetId)
    svcThreadTerminate                       0x000065b5   Thumb Code    50  rt_cmsis.o(i.svcThreadTerminate)
    svcTimerCall                             0x000065ed   Thumb Code    24  rt_cmsis.o(i.svcTimerCall)
    svcTimerCreate                           0x00006605   Thumb Code    52  rt_cmsis.o(i.svcTimerCreate)
    sysMailAlloc                             0x0000663d   Thumb Code    84  rt_cmsis.o(i.sysMailAlloc)
    sysMailFree                              0x00006695   Thumb Code    96  rt_cmsis.o(i.sysMailFree)
    sysTimerTick                             0x000066f5   Thumb Code    84  rt_cmsis.o(i.sysTimerTick)
    __aeabi_dneg                             0x00006751   Thumb Code     0  basic.o(x$fpl$basic)
    _dneg                                    0x00006751   Thumb Code     6  basic.o(x$fpl$basic)
    __aeabi_fneg                             0x00006757   Thumb Code     0  basic.o(x$fpl$basic)
    _fneg                                    0x00006757   Thumb Code     6  basic.o(x$fpl$basic)
    _dabs                                    0x0000675d   Thumb Code     6  basic.o(x$fpl$basic)
    _fabs                                    0x00006763   Thumb Code     6  basic.o(x$fpl$basic)
    __aeabi_d2f                              0x00006769   Thumb Code     0  d2f.o(x$fpl$d2f)
    _d2f                                     0x00006769   Thumb Code    98  d2f.o(x$fpl$d2f)
    __aeabi_dadd                             0x000067cd   Thumb Code     0  daddsub_clz.o(x$fpl$dadd)
    _dadd                                    0x000067cd   Thumb Code   332  daddsub_clz.o(x$fpl$dadd)
    __aeabi_ddiv                             0x0000691d   Thumb Code     0  ddiv.o(x$fpl$ddiv)
    _ddiv                                    0x0000691d   Thumb Code   552  ddiv.o(x$fpl$ddiv)
    __aeabi_d2iz                             0x00006bcd   Thumb Code     0  dfix.o(x$fpl$dfix)
    _dfix                                    0x00006bcd   Thumb Code    94  dfix.o(x$fpl$dfix)
    __aeabi_d2uiz                            0x00006c2d   Thumb Code     0  dfixu.o(x$fpl$dfixu)
    _dfixu                                   0x00006c2d   Thumb Code    90  dfixu.o(x$fpl$dfixu)
    __aeabi_i2d                              0x00006c87   Thumb Code     0  dflt_clz.o(x$fpl$dflt)
    _dflt                                    0x00006c87   Thumb Code    46  dflt_clz.o(x$fpl$dflt)
    __aeabi_ui2d                             0x00006cb5   Thumb Code     0  dflt_clz.o(x$fpl$dfltu)
    _dfltu                                   0x00006cb5   Thumb Code    38  dflt_clz.o(x$fpl$dfltu)
    __aeabi_dmul                             0x00006cdd   Thumb Code     0  dmul.o(x$fpl$dmul)
    _dmul                                    0x00006cdd   Thumb Code   332  dmul.o(x$fpl$dmul)
    __fpl_dnaninf                            0x00006e31   Thumb Code   156  dnaninf.o(x$fpl$dnaninf)
    __fpl_dretinf                            0x00006ecd   Thumb Code    12  dretinf.o(x$fpl$dretinf)
    __aeabi_drsub                            0x00006ed9   Thumb Code     0  daddsub_clz.o(x$fpl$drsb)
    _drsb                                    0x00006ed9   Thumb Code    22  daddsub_clz.o(x$fpl$drsb)
    _dsqrt                                   0x00006ef1   Thumb Code   404  dsqrt_umaal.o(x$fpl$dsqrt)
    __aeabi_dsub                             0x00007089   Thumb Code     0  daddsub_clz.o(x$fpl$dsub)
    _dsub                                    0x00007089   Thumb Code   464  daddsub_clz.o(x$fpl$dsub)
    __aeabi_f2d                              0x0000725d   Thumb Code     0  f2d.o(x$fpl$f2d)
    _f2d                                     0x0000725d   Thumb Code    86  f2d.o(x$fpl$f2d)
    __fpl_fnaninf                            0x000072b3   Thumb Code   140  fnaninf.o(x$fpl$fnaninf)
    _fp_init                                 0x0000733f   Thumb Code    10  fpinit.o(x$fpl$fpinit)
    __fplib_config_fpu_vfp                   0x00007347   Thumb Code     0  fpinit.o(x$fpl$fpinit)
    __fplib_config_pureend_doubles           0x00007347   Thumb Code     0  fpinit.o(x$fpl$fpinit)
    __fpl_fretinf                            0x00007349   Thumb Code    10  fretinf.o(x$fpl$fretinf)
    __aeabi_f2lz                             0x00007355   Thumb Code     0  ffixll.o(x$fpl$llsfromf)
    _ll_sfrom_f                              0x00007355   Thumb Code   134  ffixll.o(x$fpl$llsfromf)
    __I$use$fp                               0x000073da   Number         0  usenofp.o(x$fpl$usenofp)
    os_timer_def_Timer                       0x000073f4   Data           8  __thread.o(.constdata)
    os_mailQ_def_MailQueue                   0x000073fc   Data          12  __thread.o(.constdata)
    os_mailQ_def_mail_UART_tratainfo         0x00007408   Data          12  __thread.o(.constdata)
    os_messageQ_def_display_queue            0x00007414   Data           8  __thread.o(.constdata)
    os_messageQ_def_frequencia               0x0000741c   Data           8  __thread.o(.constdata)
    os_messageQ_def_amplitude                0x00007424   Data           8  __thread.o(.constdata)
    os_messageQ_def_wavetype                 0x0000742c   Data           8  __thread.o(.constdata)
    os_messageQ_def_PWM_queue                0x00007434   Data           8  __thread.o(.constdata)
    os_messageQ_def_msg_UART_tratainfo       0x0000743c   Data           8  __thread.o(.constdata)
    os_thread_def_UART                       0x00007444   Data          16  __thread.o(.constdata)
    os_thread_def_generateSignal             0x00007454   Data          16  __thread.o(.constdata)
    os_thread_def_PWM                        0x00007464   Data          16  __thread.o(.constdata)
    os_thread_def_Display                    0x00007474   Data          16  __thread.o(.constdata)
    led_mask                                 0x00007484   Data          16  led.o(.constdata)
    blackColor                               0x00007494   Data           2  cfaf128x128x16.o(.constdata)
    whiteColor                               0x00007496   Data           2  cfaf128x128x16.o(.constdata)
    redColor                                 0x00007498   Data           2  cfaf128x128x16.o(.constdata)
    greenColor                               0x0000749a   Data           2  cfaf128x128x16.o(.constdata)
    blueColor                                0x0000749c   Data           2  cfaf128x128x16.o(.constdata)
    yellowColor                              0x0000749e   Data           2  cfaf128x128x16.o(.constdata)
    cyanColor                                0x000074a0   Data           2  cfaf128x128x16.o(.constdata)
    orangeColor                              0x000074a2   Data           2  cfaf128x128x16.o(.constdata)
    magentaColor                             0x000074a4   Data           2  cfaf128x128x16.o(.constdata)
    violetColor                              0x000074a6   Data           2  cfaf128x128x16.o(.constdata)
    grayColor                                0x000074a8   Data           2  cfaf128x128x16.o(.constdata)
    darkGrayColor                            0x000074aa   Data           2  cfaf128x128x16.o(.constdata)
    g_sCfaf128x128x16                        0x000074ac   Data          40  cfaf128x128x16.o(.constdata)
    os_maxtaskrun                            0x000074d4   Data           2  rtx_conf_cm.o(.constdata)
    os_stackinfo                             0x000074d8   Data           4  rtx_conf_cm.o(.constdata)
    os_rrobin                                0x000074dc   Data           4  rtx_conf_cm.o(.constdata)
    os_tickfreq                              0x000074e0   Data           4  rtx_conf_cm.o(.constdata)
    os_tickus_i                              0x000074e4   Data           2  rtx_conf_cm.o(.constdata)
    os_tickus_f                              0x000074e6   Data           2  rtx_conf_cm.o(.constdata)
    os_trv                                   0x000074e8   Data           4  rtx_conf_cm.o(.constdata)
    os_flags                                 0x000074ec   Data           1  rtx_conf_cm.o(.constdata)
    CMSIS_RTOS_API_Version                   0x000074f0   Data           4  rtx_conf_cm.o(.constdata)
    CMSIS_RTOS_RTX_Version                   0x000074f4   Data           4  rtx_conf_cm.o(.constdata)
    os_clockrate                             0x000074f8   Data           4  rtx_conf_cm.o(.constdata)
    os_timernum                              0x000074fc   Data           4  rtx_conf_cm.o(.constdata)
    mp_tcb_size                              0x00007500   Data           2  rtx_conf_cm.o(.constdata)
    mp_stk_size                              0x00007504   Data           4  rtx_conf_cm.o(.constdata)
    os_stack_sz                              0x00007508   Data           4  rtx_conf_cm.o(.constdata)
    os_fifo_size                             0x0000750c   Data           1  rtx_conf_cm.o(.constdata)
    os_thread_def_osTimerThread              0x00007510   Data          16  rtx_conf_cm.o(.constdata)
    os_messageQ_def_osTimerMessageQ          0x00007520   Data           8  rtx_conf_cm.o(.constdata)
    mp_tmr_size                              0x00007528   Data           2  rtx_conf_cm.o(.constdata)
    os_thread_def_main                       0x0000752c   Data          16  rtx_conf_cm.o(.constdata)
    g_psDefaultCodePointMapTable             0x00007ac4   Data          16  context.o(.constdata)
    g_sFontFixed6x8                          0x00007dcc   Data         200  fontfixed6x8.o(.constdata)
    Region$$Table$$Base                      0x000081c4   Number         0  anon$$obj.o(Region$$Table)
    Region$$Table$$Limit                     0x000081e4   Number         0  anon$$obj.o(Region$$Table)
    Timer_ID                                 0x20000004   Data           4  __thread.o(.data)
    mid_UART_ID                              0x20000008   Data           4  __thread.o(.data)
    os_mailQ_p_MailQueue                     0x2000000c   Data           8  __thread.o(.data)
    mail_UART_tratainfo_ID                   0x20000014   Data           4  __thread.o(.data)
    os_mailQ_p_mail_UART_tratainfo           0x20000018   Data           8  __thread.o(.data)
    display_queue_ID                         0x20000020   Data           4  __thread.o(.data)
    freq_ID                                  0x20000024   Data           4  __thread.o(.data)
    amplitude_ID                             0x20000028   Data           4  __thread.o(.data)
    opt_ID                                   0x2000002c   Data           4  __thread.o(.data)
    PWM_queue_ID                             0x20000030   Data           4  __thread.o(.data)
    msg_UART_tratainfo_ID                    0x20000034   Data           4  __thread.o(.data)
    UART_ID                                  0x20000038   Data           4  __thread.o(.data)
    generateSignal_ID                        0x2000003c   Data           4  __thread.o(.data)
    PWM_ID                                   0x20000040   Data           4  __thread.o(.data)
    Display_ID                               0x20000044   Data           4  __thread.o(.data)
    freq_antiga                              0x2000005c   Data           4  display.o(.data)
    tensao_antiga_antiga                     0x20000060   Data           1  display.o(.data)
    tensao_antiga                            0x20000061   Data           1  display.o(.data)
    i                                        0x20000062   Data           1  display.o(.data)
    osThreadId_osTimerThread                 0x20000078   Data           4  rtx_conf_cm.o(.data)
    osMessageQId_osTimerMessageQ             0x2000007c   Data           4  rtx_conf_cm.o(.data)
    os_tmr                                   0x20000080   Data           4  rtx_conf_cm.o(.data)
    m_tmr                                    0x20000084   Data           4  rtx_conf_cm.o(.data)
    SystemCoreClock                          0x2000008c   Data           4  system_tm4c129.o(.data)
    os_initialized                           0x20000094   Data           1  rt_cmsis.o(.data)
    os_running                               0x20000095   Data           1  rt_cmsis.o(.data)
    os_timer_head                            0x20000098   Data           4  rt_cmsis.o(.data)
    os_tsk                                   0x2000009c   Data           8  rt_task.o(.data)
    os_tick_irqn                             0x200000a8   Data           4  rt_system.o(.data)
    os_time                                  0x200000ac   Data           4  rt_time.o(.data)
    os_robin                                 0x200000b0   Data           8  rt_robin.o(.data)
    dbg_msg                                  0x200000b8   Data           1  hal_cm.o(.data)
    os_timer_cb_Timer                        0x200000bc   Data          24  __thread.o(.bss)
    os_mailQ_q_MailQueue                     0x200000d4   Data          36  __thread.o(.bss)
    os_mailQ_m_MailQueue                     0x200000f8   Data          32  __thread.o(.bss)
    os_mailQ_q_mail_UART_tratainfo           0x20000118   Data          36  __thread.o(.bss)
    os_mailQ_m_mail_UART_tratainfo           0x2000013c   Data          32  __thread.o(.bss)
    os_messageQ_q_display_queue              0x2000015c   Data          36  __thread.o(.bss)
    os_messageQ_q_frequencia                 0x20000180   Data          36  __thread.o(.bss)
    os_messageQ_q_amplitude                  0x200001a4   Data          36  __thread.o(.bss)
    os_messageQ_q_wavetype                   0x200001c8   Data          36  __thread.o(.bss)
    os_messageQ_q_PWM_queue                  0x200001ec   Data          36  __thread.o(.bss)
    os_messageQ_q_msg_UART_tratainfo         0x20000210   Data          36  __thread.o(.bss)
    sContext                                 0x20000234   Data          44  display.o(.bss)
    mp_tcb                                   0x20000260   Data         688  rtx_conf_cm.o(.bss)
    mp_stk                                   0x20000510   Data        9616  rtx_conf_cm.o(.bss)
    os_stack_mem                             0x20002aa0   Data        1032  rtx_conf_cm.o(.bss)
    os_fifo                                  0x20002ea8   Data         132  rtx_conf_cm.o(.bss)
    os_active_TCB                            0x20002f2c   Data          52  rtx_conf_cm.o(.bss)
    os_messageQ_q_osTimerMessageQ            0x20002f60   Data          32  rtx_conf_cm.o(.bss)
    os_idle_TCB                              0x200034e0   Data          52  rt_task.o(.bss)
    os_rdy                                   0x20003514   Data          24  rt_list.o(.bss)
    os_dly                                   0x2000352c   Data          24  rt_list.o(.bss)
    __libspace_start                         0x20003544   Data          96  libspace.o(.bss)
    __temporary_stack_top$libspace           0x200035a4   Data           0  libspace.o(.bss)



==============================================================================

Memory Map of the image

  Image Entry point : 0x00000201

  Load Region LR_IROM1 (Base: 0x00000000, Size: 0x000082a0, Max: 0x00100000, ABSOLUTE)

    Execution Region ER_IROM1 (Exec base: 0x00000000, Load base: 0x00000000, Size: 0x000081e4, Max: 0x00100000, ABSOLUTE)

    Exec Addr    Load Addr    Size         Type   Attr      Idx    E Section Name        Object

    0x00000000   0x00000000   0x00000200   Data   RO          397    RESET               startup_tm4c129.o
    0x00000200   0x00000200   0x00000008   Code   RO         3931  * !!!main             c_w.l(__main.o)
    0x00000208   0x00000208   0x00000034   Code   RO         4260    !!!scatter          c_w.l(__scatter.o)
    0x0000023c   0x0000023c   0x0000001a   Code   RO         4262    !!handler_copy      c_w.l(__scatter_copy.o)
    0x00000256   0x00000256   0x00000002   PAD
    0x00000258   0x00000258   0x0000001c   Code   RO         4264    !!handler_zi        c_w.l(__scatter_zi.o)
    0x00000274   0x00000274   0x00000002   Code   RO         4144    .ARM.Collect$$libinit$$00000000  c_w.l(libinit.o)
    0x00000276   0x00000276   0x00000004   Code   RO         4157    .ARM.Collect$$libinit$$00000001  c_w.l(libinit2.o)
    0x0000027a   0x0000027a   0x00000000   Code   RO         4160    .ARM.Collect$$libinit$$00000004  c_w.l(libinit2.o)
    0x0000027a   0x0000027a   0x00000000   Code   RO         4163    .ARM.Collect$$libinit$$0000000A  c_w.l(libinit2.o)
    0x0000027a   0x0000027a   0x00000000   Code   RO         4165    .ARM.Collect$$libinit$$0000000C  c_w.l(libinit2.o)
    0x0000027a   0x0000027a   0x00000000   Code   RO         4167    .ARM.Collect$$libinit$$0000000E  c_w.l(libinit2.o)
    0x0000027a   0x0000027a   0x00000000   Code   RO         4170    .ARM.Collect$$libinit$$00000011  c_w.l(libinit2.o)
    0x0000027a   0x0000027a   0x00000000   Code   RO         4172    .ARM.Collect$$libinit$$00000013  c_w.l(libinit2.o)
    0x0000027a   0x0000027a   0x00000000   Code   RO         4174    .ARM.Collect$$libinit$$00000015  c_w.l(libinit2.o)
    0x0000027a   0x0000027a   0x00000000   Code   RO         4176    .ARM.Collect$$libinit$$00000017  c_w.l(libinit2.o)
    0x0000027a   0x0000027a   0x00000000   Code   RO         4178    .ARM.Collect$$libinit$$00000019  c_w.l(libinit2.o)
    0x0000027a   0x0000027a   0x00000000   Code   RO         4180    .ARM.Collect$$libinit$$0000001B  c_w.l(libinit2.o)
    0x0000027a   0x0000027a   0x00000000   Code   RO         4182    .ARM.Collect$$libinit$$0000001D  c_w.l(libinit2.o)
    0x0000027a   0x0000027a   0x00000000   Code   RO         4184    .ARM.Collect$$libinit$$0000001F  c_w.l(libinit2.o)
    0x0000027a   0x0000027a   0x00000000   Code   RO         4186    .ARM.Collect$$libinit$$00000021  c_w.l(libinit2.o)
    0x0000027a   0x0000027a   0x00000000   Code   RO         4188    .ARM.Collect$$libinit$$00000023  c_w.l(libinit2.o)
    0x0000027a   0x0000027a   0x00000000   Code   RO         4190    .ARM.Collect$$libinit$$00000025  c_w.l(libinit2.o)
    0x0000027a   0x0000027a   0x00000000   Code   RO         4194    .ARM.Collect$$libinit$$0000002C  c_w.l(libinit2.o)
    0x0000027a   0x0000027a   0x00000000   Code   RO         4196    .ARM.Collect$$libinit$$0000002E  c_w.l(libinit2.o)
    0x0000027a   0x0000027a   0x00000000   Code   RO         4198    .ARM.Collect$$libinit$$00000030  c_w.l(libinit2.o)
    0x0000027a   0x0000027a   0x00000000   Code   RO         4200    .ARM.Collect$$libinit$$00000032  c_w.l(libinit2.o)
    0x0000027a   0x0000027a   0x00000002   Code   RO         4201    .ARM.Collect$$libinit$$00000033  c_w.l(libinit2.o)
    0x0000027c   0x0000027c   0x00000002   Code   RO         4145    .ARM.Collect$$libshutdown$$00000000  c_w.l(libshutdown.o)
    0x0000027e   0x0000027e   0x00000000   Code   RO         4203    .ARM.Collect$$libshutdown$$00000002  c_w.l(libshutdown2.o)
    0x0000027e   0x0000027e   0x00000000   Code   RO         4205    .ARM.Collect$$libshutdown$$00000004  c_w.l(libshutdown2.o)
    0x0000027e   0x0000027e   0x00000000   Code   RO         4208    .ARM.Collect$$libshutdown$$00000007  c_w.l(libshutdown2.o)
    0x0000027e   0x0000027e   0x00000000   Code   RO         4211    .ARM.Collect$$libshutdown$$0000000A  c_w.l(libshutdown2.o)
    0x0000027e   0x0000027e   0x00000000   Code   RO         4213    .ARM.Collect$$libshutdown$$0000000C  c_w.l(libshutdown2.o)
    0x0000027e   0x0000027e   0x00000000   Code   RO         4216    .ARM.Collect$$libshutdown$$0000000F  c_w.l(libshutdown2.o)
    0x0000027e   0x0000027e   0x00000002   Code   RO         4217    .ARM.Collect$$libshutdown$$00000010  c_w.l(libshutdown2.o)
    0x00000280   0x00000280   0x00000000   Code   RO         4019    .ARM.Collect$$rtentry$$00000000  c_w.l(__rtentry.o)
    0x00000280   0x00000280   0x00000000   Code   RO         4096    .ARM.Collect$$rtentry$$00000002  c_w.l(__rtentry2.o)
    0x00000280   0x00000280   0x00000006   Code   RO         4108    .ARM.Collect$$rtentry$$00000004  c_w.l(__rtentry4.o)
    0x00000286   0x00000286   0x00000000   Code   RO         4098    .ARM.Collect$$rtentry$$00000009  c_w.l(__rtentry2.o)
    0x00000286   0x00000286   0x00000004   Code   RO         4099    .ARM.Collect$$rtentry$$0000000A  c_w.l(__rtentry2.o)
    0x0000028a   0x0000028a   0x00000008   Code   RO         4100    .ARM.Collect$$rtentry$$0000000B  c_w.l(__rtentry2.o)
    0x00000292   0x00000292   0x00000008   Code   RO         4102    .ARM.Collect$$rtentry$$0000000D  c_w.l(__rtentry2.o)
    0x0000029a   0x0000029a   0x00000002   Code   RO         4020    .ARM.Collect$$rtexit$$00000000  c_w.l(rtexit.o)
    0x0000029c   0x0000029c   0x00000000   Code   RO         4111    .ARM.Collect$$rtexit$$00000002  c_w.l(rtexit2.o)
    0x0000029c   0x0000029c   0x00000004   Code   RO         4112    .ARM.Collect$$rtexit$$00000003  c_w.l(rtexit2.o)
    0x000002a0   0x000002a0   0x00000006   Code   RO         4113    .ARM.Collect$$rtexit$$00000004  c_w.l(rtexit2.o)
    0x000002a6   0x000002a6   0x00000002   PAD
    0x000002a8   0x000002a8   0x0000001c   Code   RO          367    .emb_text           rtx_conf_cm.o
    0x000002c4   0x000002c4   0x00000006   Code   RO         1449    .emb_text           driverlib.lib(sysctl.o)
    0x000002ca   0x000002ca   0x00000002   PAD
    0x000002cc   0x000002cc   0x00000026   Code   RO         3277    .emb_text           driverlib.lib(cpu.o)
    0x000002f2   0x000002f2   0x00000002   PAD
    0x000002f4   0x000002f4   0x00000198   Code   RO         3905    .emb_text           RTX_CM4.lib(hal_cm4.o)
    0x0000048c   0x0000048c   0x0000033c   Code   RO            4    .text               uart.o
    0x000007c8   0x000007c8   0x00000fd8   Code   RO           91    .text               __thread.o
    0x000017a0   0x000017a0   0x0000013c   Code   RO          169    .text               pwm.o
    0x000018dc   0x000018dc   0x00000418   Code   RO          207    .text               display.o
    0x00001cf4   0x00001cf4   0x00000188   Code   RO          226    .text               buzzer.o
    0x00001e7c   0x00001e7c   0x00000184   Code   RO          261    .text               led.o
    0x00002000   0x00002000   0x000008a0   Code   RO          342    .text               cfaf128x128x16.o
    0x000028a0   0x000028a0   0x000000ac   Code   RO          368    .text               rtx_conf_cm.o
    0x0000294c   0x0000294c   0x0000012c   Code   RO          398    .text               startup_tm4c129.o
    0x00002a78   0x00002a78   0x00000028   Code   RO          405    .text               system_tm4c129.o
    0x00002aa0   0x00002aa0   0x00000008   Code   RO         3920    .text               c_w.l(libspace.o)
    0x00002aa8   0x00002aa8   0x000000ee   Code   RO         3923    .text               c_w.l(lludivv7m.o)
    0x00002b96   0x00002b96   0x00000048   Code   RO         3925    .text               c_w.l(llsdiv.o)
    0x00002bde   0x00002bde   0x00000012   Code   RO         3927    .text               c_w.l(exit.o)
    0x00002bf0   0x00002bf0   0x00000006   Code   RO         3929    .text               c_w.l(heapauxi.o)
    0x00002bf6   0x00002bf6   0x00000016   Code   RO         4026    .text               c_w.l(_rserrno.o)
    0x00002c0c   0x00002c0c   0x00000004   Code   RO         4124    .text               c_w.l(rt_errno_addr_twolibspace.o)
    0x00002c10   0x00002c10   0x0000000c   Code   RO         4130    .text               c_w.l(sys_exit.o)
    0x00002c1c   0x00002c1c   0x0000004a   Code   RO         4132    .text               c_w.l(sys_stackheap_outer.o)
    0x00002c66   0x00002c66   0x00000002   Code   RO         4148    .text               c_w.l(use_no_semi.o)
    0x00002c68   0x00002c68   0x00000000   Code   RO         4150    .text               c_w.l(indicate_semi.o)
    0x00002c68   0x00002c68   0x00000004   Code   RO         3915    SVC_TABLE           RTX_CM4.lib(svc_table.o)
    0x00002c6c   0x00002c6c   0x00000028   Code   RO          437    i.GPIODirModeSet    driverlib.lib(gpio.o)
    0x00002c94   0x00002c94   0x00000138   Code   RO          449    i.GPIOPadConfigSet  driverlib.lib(gpio.o)
    0x00002dcc   0x00002dcc   0x00000044   Code   RO          450    i.GPIOPinConfigure  driverlib.lib(gpio.o)
    0x00002e10   0x00002e10   0x0000001c   Code   RO          468    i.GPIOPinTypePWM    driverlib.lib(gpio.o)
    0x00002e2c   0x00002e2c   0x0000001c   Code   RO          473    i.GPIOPinTypeUART   driverlib.lib(gpio.o)
    0x00002e48   0x00002e48   0x00000006   Code   RO         2407    i.GrContextFontSet  grlib.lib(string.o)
    0x00002e4e   0x00002e4e   0x00000002   PAD
    0x00002e50   0x00002e50   0x00000064   Code   RO         2335    i.GrContextInit     grlib.lib(context.o)
    0x00002eb4   0x00002eb4   0x00000118   Code   RO         2408    i.GrDefaultStringRenderer  grlib.lib(string.o)
    0x00002fcc   0x00002fcc   0x000000a6   Code   RO         2412    i.GrFontGlyphDataGet  grlib.lib(string.o)
    0x00003072   0x00003072   0x00000288   Code   RO         2413    i.GrFontGlyphRender  grlib.lib(string.o)
    0x000032fa   0x000032fa   0x0000004c   Code   RO         2384    i.GrLineDrawH       grlib.lib(line.o)
    0x00003346   0x00003346   0x0000004c   Code   RO         2385    i.GrLineDrawV       grlib.lib(line.o)
    0x00003392   0x00003392   0x00000008   Code   RO         3293    i.GrMapISO8859_1_Unicode  grlib.lib(charmap.o)
    0x0000339a   0x0000339a   0x00000020   Code   RO         2419    i.GrStringDraw      grlib.lib(string.o)
    0x000033ba   0x000033ba   0x00000002   PAD
    0x000033bc   0x000033bc   0x00000064   Code   RO         1101    i.IntEnable         driverlib.lib(interrupt.o)
    0x00003420   0x00003420   0x0000000e   Code   RO         1104    i.IntMasterEnable   driverlib.lib(interrupt.o)
    0x0000342e   0x0000342e   0x00000014   Code   RO         1217    i.PWMClockSet       driverlib.lib(pwm.o)
    0x00003442   0x00003442   0x00000026   Code   RO         1224    i.PWMGenConfigure   driverlib.lib(pwm.o)
    0x00003468   0x00003468   0x0000000a   Code   RO         1226    i.PWMGenEnable      driverlib.lib(pwm.o)
    0x00003472   0x00003472   0x00000012   Code   RO         1238    i.PWMGenPeriodGet   driverlib.lib(pwm.o)
    0x00003484   0x00003484   0x00000012   Code   RO         1239    i.PWMGenPeriodSet   driverlib.lib(pwm.o)
    0x00003496   0x00003496   0x00000010   Code   RO         1245    i.PWMOutputInvert   driverlib.lib(pwm.o)
    0x000034a6   0x000034a6   0x00000010   Code   RO         1246    i.PWMOutputState    driverlib.lib(pwm.o)
    0x000034b6   0x000034b6   0x00000020   Code   RO         1249    i.PWMPulseWidthSet  driverlib.lib(pwm.o)
    0x000034d6   0x000034d6   0x00000002   PAD
    0x000034d8   0x000034d8   0x000002ec   Code   RO         1451    i.SysCtlClockFreqSet  driverlib.lib(sysctl.o)
    0x000037c4   0x000037c4   0x00000154   Code   RO         1452    i.SysCtlClockGet    driverlib.lib(sysctl.o)
    0x00003918   0x00003918   0x00000028   Code   RO         1483    i.SysCtlPeripheralEnable  driverlib.lib(sysctl.o)
    0x00003940   0x00003940   0x0000002c   Code   RO         1487    i.SysCtlPeripheralReady  driverlib.lib(sysctl.o)
    0x0000396c   0x0000396c   0x00000060   Code   RO         1801    i.TimerConfigure    driverlib.lib(timer.o)
    0x000039cc   0x000039cc   0x0000000e   Code   RO         1810    i.TimerEnable       driverlib.lib(timer.o)
    0x000039da   0x000039da   0x00000004   Code   RO         1811    i.TimerIntClear     driverlib.lib(timer.o)
    0x000039de   0x000039de   0x00000008   Code   RO         1813    i.TimerIntEnable    driverlib.lib(timer.o)
    0x000039e6   0x000039e6   0x00000012   Code   RO         1819    i.TimerLoadSet      driverlib.lib(timer.o)
    0x000039f8   0x000039f8   0x0000006e   Code   RO         2053    i.UARTConfigSetExpClk  driverlib.lib(uart.o)
    0x00003a66   0x00003a66   0x00000014   Code   RO         2058    i.UARTEnable        driverlib.lib(uart.o)
    0x00003a7a   0x00003a7a   0x0000006c   Code   RO         2425    i.UpdateContextCharMapping  grlib.lib(string.o)
    0x00003ae6   0x00003ae6   0x00000030   Code   RO         4062    i.__ARM_fpclassify  m_wm.l(fpclassify.o)
    0x00003b16   0x00003b16   0x00000002   PAD
    0x00003b18   0x00003b18   0x00000360   Code   RO         3967    i.__hardfp_asin     m_wm.l(asin.o)
    0x00003e78   0x00003e78   0x000002d8   Code   RO         3981    i.__hardfp_atan     m_wm.l(atan.o)
    0x00004150   0x00004150   0x000000c8   Code   RO         3995    i.__hardfp_sin      m_wm.l(sin.o)
    0x00004218   0x00004218   0x00000080   Code   RO         4007    i.__hardfp_tan      m_wm.l(tan.o)
    0x00004298   0x00004298   0x00000438   Code   RO         4066    i.__ieee754_rem_pio2  m_wm.l(rred.o)
    0x000046d0   0x000046d0   0x00000170   Code   RO         4039    i.__kernel_cos      m_wm.l(cos_i.o)
    0x00004840   0x00004840   0x000000f8   Code   RO         4064    i.__kernel_poly     m_wm.l(poly.o)
    0x00004938   0x00004938   0x00000130   Code   RO         4071    i.__kernel_sin      m_wm.l(sin_i.o)
    0x00004a68   0x00004a68   0x00000350   Code   RO         4089    i.__kernel_tan      m_wm.l(tan_i.o)
    0x00004db8   0x00004db8   0x00000014   Code   RO         4043    i.__mathlib_dbl_infnan  m_wm.l(dunder.o)
    0x00004dcc   0x00004dcc   0x00000004   PAD
    0x00004dd0   0x00004dd0   0x00000020   Code   RO         4045    i.__mathlib_dbl_invalid  m_wm.l(dunder.o)
    0x00004df0   0x00004df0   0x00000020   Code   RO         4048    i.__mathlib_dbl_underflow  m_wm.l(dunder.o)
    0x00004e10   0x00004e10   0x00000046   Code   RO         3799    i._init_box         RTX_CM4.lib(rt_membox.o)
    0x00004e56   0x00004e56   0x00000002   PAD
    0x00004e58   0x00004e58   0x00000030   Code   RO         3852    i.dbg_init          RTX_CM4.lib(hal_cm.o)
    0x00004e88   0x00004e88   0x00000020   Code   RO         3853    i.dbg_task_notify   RTX_CM4.lib(hal_cm.o)
    0x00004ea8   0x00004ea8   0x00000010   Code   RO         3854    i.dbg_task_switch   RTX_CM4.lib(hal_cm.o)
    0x00004eb8   0x00004eb8   0x00000018   Code   RO         4058    i.fabs              m_wm.l(fabs.o)
    0x00004ed0   0x00004ed0   0x0000002a   Code   RO         2537    i.isrMessageGet     RTX_CM4.lib(rt_cmsis.o)
    0x00004efa   0x00004efa   0x0000002c   Code   RO         2538    i.isrMessagePut     RTX_CM4.lib(rt_cmsis.o)
    0x00004f26   0x00004f26   0x00000024   Code   RO         2540    i.isrSignalSet      RTX_CM4.lib(rt_cmsis.o)
    0x00004f4a   0x00004f4a   0x00000002   PAD
    0x00004f4c   0x00004f4c   0x00000028   Code   RO         3536    i.isr_evt_set       RTX_CM4.lib(rt_event.o)
    0x00004f74   0x00004f74   0x00000056   Code   RO         3654    i.isr_mbx_receive   RTX_CM4.lib(rt_mailbox.o)
    0x00004fca   0x00004fca   0x0000000e   Code   RO         3655    i.isr_mbx_send      RTX_CM4.lib(rt_mailbox.o)
    0x00004fd8   0x00004fd8   0x00000018   Code   RO         2541    i.osDelay           RTX_CM4.lib(rt_cmsis.o)
    0x00004ff0   0x00004ff0   0x00000024   Code   RO         2542    i.osKernelInitialize  RTX_CM4.lib(rt_cmsis.o)
    0x00005014   0x00005014   0x0000006c   Code   RO         2544    i.osKernelStart     RTX_CM4.lib(rt_cmsis.o)
    0x00005080   0x00005080   0x00000018   Code   RO         2545    i.osKernelSysTick   RTX_CM4.lib(rt_cmsis.o)
    0x00005098   0x00005098   0x0000001c   Code   RO         2546    i.osMailAlloc       RTX_CM4.lib(rt_cmsis.o)
    0x000050b4   0x000050b4   0x00000030   Code   RO         2547    i.osMailCAlloc      RTX_CM4.lib(rt_cmsis.o)
    0x000050e4   0x000050e4   0x0000002c   Code   RO         2548    i.osMailCreate      RTX_CM4.lib(rt_cmsis.o)
    0x00005110   0x00005110   0x0000001c   Code   RO         2549    i.osMailFree        RTX_CM4.lib(rt_cmsis.o)
    0x0000512c   0x0000512c   0x00000016   Code   RO         2550    i.osMailGet         RTX_CM4.lib(rt_cmsis.o)
    0x00005142   0x00005142   0x00000014   Code   RO         2551    i.osMailPut         RTX_CM4.lib(rt_cmsis.o)
    0x00005156   0x00005156   0x00000002   PAD
    0x00005158   0x00005158   0x0000002c   Code   RO         2552    i.osMessageCreate   RTX_CM4.lib(rt_cmsis.o)
    0x00005184   0x00005184   0x00000018   Code   RO         2553    i.osMessageGet      RTX_CM4.lib(rt_cmsis.o)
    0x0000519c   0x0000519c   0x00000018   Code   RO         2554    i.osMessagePut      RTX_CM4.lib(rt_cmsis.o)
    0x000051b4   0x000051b4   0x00000018   Code   RO         2567    i.osSignalClear     RTX_CM4.lib(rt_cmsis.o)
    0x000051cc   0x000051cc   0x00000018   Code   RO         2568    i.osSignalSet       RTX_CM4.lib(rt_cmsis.o)
    0x000051e4   0x000051e4   0x00000018   Code   RO         2569    i.osSignalWait      RTX_CM4.lib(rt_cmsis.o)
    0x000051fc   0x000051fc   0x0000002c   Code   RO         2570    i.osThreadCreate    RTX_CM4.lib(rt_cmsis.o)
    0x00005228   0x00005228   0x00000018   Code   RO         2571    i.osThreadExit      RTX_CM4.lib(rt_cmsis.o)
    0x00005240   0x00005240   0x0000000c   Code   RO         2577    i.osTimerCall       RTX_CM4.lib(rt_cmsis.o)
    0x0000524c   0x0000524c   0x0000002c   Code   RO         2578    i.osTimerCreate     RTX_CM4.lib(rt_cmsis.o)
    0x00005278   0x00005278   0x0000002c   Code   RO         2582    i.osTimerThread     RTX_CM4.lib(rt_cmsis.o)
    0x000052a4   0x000052a4   0x00000028   Code   RO         3446    i.os_tick_init      RTX_CM4.lib(rt_system.o)
    0x000052cc   0x000052cc   0x00000002   Code   RO         3447    i.os_tick_irqack    RTX_CM4.lib(rt_system.o)
    0x000052ce   0x000052ce   0x00000002   PAD
    0x000052d0   0x000052d0   0x00000010   Code   RO         3448    i.os_tick_ovf       RTX_CM4.lib(rt_system.o)
    0x000052e0   0x000052e0   0x00000014   Code   RO         3449    i.os_tick_val       RTX_CM4.lib(rt_system.o)
    0x000052f4   0x000052f4   0x0000001a   Code   RO         3800    i.rt_alloc_box      RTX_CM4.lib(rt_membox.o)
    0x0000530e   0x0000530e   0x0000003e   Code   RO         3828    i.rt_alloc_mem      RTX_CM4.lib(rt_memory.o)
    0x0000534c   0x0000534c   0x00000038   Code   RO         3159    i.rt_block          RTX_CM4.lib(rt_task.o)
    0x00005384   0x00005384   0x00000048   Code   RO         3777    i.rt_chk_robin      RTX_CM4.lib(rt_robin.o)
    0x000053cc   0x000053cc   0x00000018   Code   RO         2586    i.rt_clr_box        RTX_CM4.lib(rt_cmsis.o)
    0x000053e4   0x000053e4   0x00000070   Code   RO         3578    i.rt_dec_dly        RTX_CM4.lib(rt_list.o)
    0x00005454   0x00005454   0x00000044   Code   RO         3160    i.rt_dispatch       RTX_CM4.lib(rt_task.o)
    0x00005498   0x00005498   0x00000006   Code   RO         3744    i.rt_dly_wait       RTX_CM4.lib(rt_time.o)
    0x0000549e   0x0000549e   0x00000002   PAD
    0x000054a0   0x000054a0   0x0000001c   Code   RO         3537    i.rt_evt_clr        RTX_CM4.lib(rt_event.o)
    0x000054bc   0x000054bc   0x00000050   Code   RO         3539    i.rt_evt_psh        RTX_CM4.lib(rt_event.o)
    0x0000550c   0x0000550c   0x0000005c   Code   RO         3540    i.rt_evt_set        RTX_CM4.lib(rt_event.o)
    0x00005568   0x00005568   0x0000003c   Code   RO         3541    i.rt_evt_wait       RTX_CM4.lib(rt_event.o)
    0x000055a4   0x000055a4   0x0000002c   Code   RO         3801    i.rt_free_box       RTX_CM4.lib(rt_membox.o)
    0x000055d0   0x000055d0   0x00000028   Code   RO         3829    i.rt_free_mem       RTX_CM4.lib(rt_memory.o)
    0x000055f8   0x000055f8   0x00000028   Code   RO         3579    i.rt_get_first      RTX_CM4.lib(rt_list.o)
    0x00005620   0x00005620   0x00000008   Code   RO         2587    i.rt_id2obj         RTX_CM4.lib(rt_cmsis.o)
    0x00005628   0x00005628   0x00000048   Code   RO         3161    i.rt_init_context   RTX_CM4.lib(rt_task.o)
    0x00005670   0x00005670   0x0000001a   Code   RO         3830    i.rt_init_mem       RTX_CM4.lib(rt_memory.o)
    0x0000568a   0x0000568a   0x00000002   PAD
    0x0000568c   0x0000568c   0x00000018   Code   RO         3778    i.rt_init_robin     RTX_CM4.lib(rt_robin.o)
    0x000056a4   0x000056a4   0x00000080   Code   RO         3855    i.rt_init_stack     RTX_CM4.lib(hal_cm.o)
    0x00005724   0x00005724   0x00000008   Code   RO         3656    i.rt_mbx_check      RTX_CM4.lib(rt_mailbox.o)
    0x0000572c   0x0000572c   0x0000001a   Code   RO         3657    i.rt_mbx_init       RTX_CM4.lib(rt_mailbox.o)
    0x00005746   0x00005746   0x00000002   PAD
    0x00005748   0x00005748   0x000000f0   Code   RO         3658    i.rt_mbx_psh        RTX_CM4.lib(rt_mailbox.o)
    0x00005838   0x00005838   0x00000098   Code   RO         3659    i.rt_mbx_send       RTX_CM4.lib(rt_mailbox.o)
    0x000058d0   0x000058d0   0x000000b4   Code   RO         3660    i.rt_mbx_wait       RTX_CM4.lib(rt_mailbox.o)
    0x00005984   0x00005984   0x00000044   Code   RO         2588    i.rt_ms2tick        RTX_CM4.lib(rt_cmsis.o)
    0x000059c8   0x000059c8   0x00000010   Code   RO         3244    i.rt_mut_init       RTX_CM4.lib(rt_mutex.o)
    0x000059d8   0x000059d8   0x000000d8   Code   RO         3245    i.rt_mut_release    RTX_CM4.lib(rt_mutex.o)
    0x00005ab0   0x00005ab0   0x00000078   Code   RO         3246    i.rt_mut_wait       RTX_CM4.lib(rt_mutex.o)
    0x00005b28   0x00005b28   0x0000007c   Code   RO         3450    i.rt_pop_req        RTX_CM4.lib(rt_system.o)
    0x00005ba4   0x00005ba4   0x00000020   Code   RO         3451    i.rt_psh_req        RTX_CM4.lib(rt_system.o)
    0x00005bc4   0x00005bc4   0x0000005c   Code   RO         3581    i.rt_psq_enq        RTX_CM4.lib(rt_list.o)
    0x00005c20   0x00005c20   0x00000048   Code   RO         3582    i.rt_put_dly        RTX_CM4.lib(rt_list.o)
    0x00005c68   0x00005c68   0x00000036   Code   RO         3583    i.rt_put_prio       RTX_CM4.lib(rt_list.o)
    0x00005c9e   0x00005c9e   0x00000002   PAD
    0x00005ca0   0x00005ca0   0x00000014   Code   RO         3584    i.rt_put_rdy_first  RTX_CM4.lib(rt_list.o)
    0x00005cb4   0x00005cb4   0x00000034   Code   RO         3585    i.rt_resort_prio    RTX_CM4.lib(rt_list.o)
    0x00005ce8   0x00005ce8   0x00000010   Code   RO         3856    i.rt_ret_regs       RTX_CM4.lib(hal_cm.o)
    0x00005cf8   0x00005cf8   0x0000000c   Code   RO         3857    i.rt_ret_val        RTX_CM4.lib(hal_cm.o)
    0x00005d04   0x00005d04   0x00000010   Code   RO         3858    i.rt_ret_val2       RTX_CM4.lib(hal_cm.o)
    0x00005d14   0x00005d14   0x00000028   Code   RO         3586    i.rt_rmv_dly        RTX_CM4.lib(rt_list.o)
    0x00005d3c   0x00005d3c   0x00000030   Code   RO         3587    i.rt_rmv_list       RTX_CM4.lib(rt_list.o)
    0x00005d6c   0x00005d6c   0x00000034   Code   RO         3705    i.rt_sem_psh        RTX_CM4.lib(rt_semaphore.o)
    0x00005da0   0x00005da0   0x00000024   Code   RO         3453    i.rt_stk_check      RTX_CM4.lib(rt_system.o)
    0x00005dc4   0x00005dc4   0x00000028   Code   RO         3162    i.rt_switch_req     RTX_CM4.lib(rt_task.o)
    0x00005dec   0x00005dec   0x000000cc   Code   RO         3163    i.rt_sys_init       RTX_CM4.lib(rt_task.o)
    0x00005eb8   0x00005eb8   0x00000078   Code   RO         3164    i.rt_sys_start      RTX_CM4.lib(rt_task.o)
    0x00005f30   0x00005f30   0x00000040   Code   RO         3455    i.rt_systick        RTX_CM4.lib(rt_system.o)
    0x00005f70   0x00005f70   0x00000012   Code   RO         2589    i.rt_tid2ptcb       RTX_CM4.lib(rt_cmsis.o)
    0x00005f82   0x00005f82   0x00000002   PAD
    0x00005f84   0x00005f84   0x00000034   Code   RO         2590    i.rt_timer_insert   RTX_CM4.lib(rt_cmsis.o)
    0x00005fb8   0x00005fb8   0x00000088   Code   RO         3165    i.rt_tsk_create     RTX_CM4.lib(rt_task.o)
    0x00006040   0x00006040   0x0000017c   Code   RO         3166    i.rt_tsk_delete     RTX_CM4.lib(rt_task.o)
    0x000061bc   0x000061bc   0x0000007c   Code   RO         3168    i.rt_tsk_prio       RTX_CM4.lib(rt_task.o)
    0x00006238   0x00006238   0x00000010   Code   RO         3169    i.rt_tsk_self       RTX_CM4.lib(rt_task.o)
    0x00006248   0x00006248   0x0000006e   Code   RO         4079    i.sqrt              m_wm.l(sqrt.o)
    0x000062b6   0x000062b6   0x00000012   Code   RO         2592    i.svcDelay          RTX_CM4.lib(rt_cmsis.o)
    0x000062c8   0x000062c8   0x00000070   Code   RO         2593    i.svcKernelInitialize  RTX_CM4.lib(rt_cmsis.o)
    0x00006338   0x00006338   0x00000048   Code   RO         2595    i.svcKernelStart    RTX_CM4.lib(rt_cmsis.o)
    0x00006380   0x00006380   0x00000038   Code   RO         2596    i.svcKernelSysTick  RTX_CM4.lib(rt_cmsis.o)
    0x000063b8   0x000063b8   0x00000042   Code   RO         2597    i.svcMailCreate     RTX_CM4.lib(rt_cmsis.o)
    0x000063fa   0x000063fa   0x00000024   Code   RO         2598    i.svcMessageCreate  RTX_CM4.lib(rt_cmsis.o)
    0x0000641e   0x0000641e   0x0000003a   Code   RO         2599    i.svcMessageGet     RTX_CM4.lib(rt_cmsis.o)
    0x00006458   0x00006458   0x00000036   Code   RO         2600    i.svcMessagePut     RTX_CM4.lib(rt_cmsis.o)
    0x0000648e   0x0000648e   0x00000024   Code   RO         2610    i.svcSignalClear    RTX_CM4.lib(rt_cmsis.o)
    0x000064b2   0x000064b2   0x00000024   Code   RO         2611    i.svcSignalSet      RTX_CM4.lib(rt_cmsis.o)
    0x000064d6   0x000064d6   0x00000002   PAD
    0x000064d8   0x000064d8   0x00000054   Code   RO         2612    i.svcSignalWait     RTX_CM4.lib(rt_cmsis.o)
    0x0000652c   0x0000652c   0x0000006c   Code   RO         2613    i.svcThreadCreate   RTX_CM4.lib(rt_cmsis.o)
    0x00006598   0x00006598   0x0000001c   Code   RO         2614    i.svcThreadGetId    RTX_CM4.lib(rt_cmsis.o)
    0x000065b4   0x000065b4   0x00000038   Code   RO         2617    i.svcThreadTerminate  RTX_CM4.lib(rt_cmsis.o)
    0x000065ec   0x000065ec   0x00000018   Code   RO         2619    i.svcTimerCall      RTX_CM4.lib(rt_cmsis.o)
    0x00006604   0x00006604   0x00000038   Code   RO         2620    i.svcTimerCreate    RTX_CM4.lib(rt_cmsis.o)
    0x0000663c   0x0000663c   0x00000058   Code   RO         2624    i.sysMailAlloc      RTX_CM4.lib(rt_cmsis.o)
    0x00006694   0x00006694   0x00000060   Code   RO         2625    i.sysMailFree       RTX_CM4.lib(rt_cmsis.o)
    0x000066f4   0x000066f4   0x0000005c   Code   RO         2628    i.sysTimerTick      RTX_CM4.lib(rt_cmsis.o)
    0x00006750   0x00006750   0x00000018   Code   RO         4028    x$fpl$basic         fz_wm.l(basic.o)
    0x00006768   0x00006768   0x00000062   Code   RO         3933    x$fpl$d2f           fz_wm.l(d2f.o)
    0x000067ca   0x000067ca   0x00000002   PAD
    0x000067cc   0x000067cc   0x00000150   Code   RO         3935    x$fpl$dadd          fz_wm.l(daddsub_clz.o)
    0x0000691c   0x0000691c   0x000002b0   Code   RO         3942    x$fpl$ddiv          fz_wm.l(ddiv.o)
    0x00006bcc   0x00006bcc   0x0000005e   Code   RO         3945    x$fpl$dfix          fz_wm.l(dfix.o)
    0x00006c2a   0x00006c2a   0x00000002   PAD
    0x00006c2c   0x00006c2c   0x0000005a   Code   RO         3949    x$fpl$dfixu         fz_wm.l(dfixu.o)
    0x00006c86   0x00006c86   0x0000002e   Code   RO         3954    x$fpl$dflt          fz_wm.l(dflt_clz.o)
    0x00006cb4   0x00006cb4   0x00000026   Code   RO         3953    x$fpl$dfltu         fz_wm.l(dflt_clz.o)
    0x00006cda   0x00006cda   0x00000002   PAD
    0x00006cdc   0x00006cdc   0x00000154   Code   RO         3959    x$fpl$dmul          fz_wm.l(dmul.o)
    0x00006e30   0x00006e30   0x0000009c   Code   RO         4030    x$fpl$dnaninf       fz_wm.l(dnaninf.o)
    0x00006ecc   0x00006ecc   0x0000000c   Code   RO         4032    x$fpl$dretinf       fz_wm.l(dretinf.o)
    0x00006ed8   0x00006ed8   0x00000016   Code   RO         3936    x$fpl$drsb          fz_wm.l(daddsub_clz.o)
    0x00006eee   0x00006eee   0x00000002   PAD
    0x00006ef0   0x00006ef0   0x00000198   Code   RO         4128    x$fpl$dsqrt         fz_wm.l(dsqrt_umaal.o)
    0x00007088   0x00007088   0x000001d4   Code   RO         3937    x$fpl$dsub          fz_wm.l(daddsub_clz.o)
    0x0000725c   0x0000725c   0x00000056   Code   RO         3961    x$fpl$f2d           fz_wm.l(f2d.o)
    0x000072b2   0x000072b2   0x0000008c   Code   RO         4034    x$fpl$fnaninf       fz_wm.l(fnaninf.o)
    0x0000733e   0x0000733e   0x0000000a   Code   RO         4224    x$fpl$fpinit        fz_wm.l(fpinit.o)
    0x00007348   0x00007348   0x0000000a   Code   RO         4036    x$fpl$fretinf       fz_wm.l(fretinf.o)
    0x00007352   0x00007352   0x00000002   PAD
    0x00007354   0x00007354   0x00000086   Code   RO         3963    x$fpl$llsfromf      fz_wm.l(ffixll.o)
    0x000073da   0x000073da   0x00000000   Code   RO         4038    x$fpl$usenofp       fz_wm.l(usenofp.o)
    0x000073da   0x000073da   0x00000002   PAD
    0x000073dc   0x000073dc   0x00000018   Data   RO            5    .constdata          uart.o
    0x000073f4   0x000073f4   0x00000090   Data   RO           93    .constdata          __thread.o
    0x00007484   0x00007484   0x00000010   Data   RO          262    .constdata          led.o
    0x00007494   0x00007494   0x00000040   Data   RO          343    .constdata          cfaf128x128x16.o
    0x000074d4   0x000074d4   0x00000068   Data   RO          370    .constdata          rtx_conf_cm.o
    0x0000753c   0x0000753c   0x00000228   Data   RO          481    .constdata          driverlib.lib(gpio.o)
    0x00007764   0x00007764   0x0000010c   Data   RO         1117    .constdata          driverlib.lib(interrupt.o)
    0x00007870   0x00007870   0x00000254   Data   RO         1505    .constdata          driverlib.lib(sysctl.o)
    0x00007ac4   0x00007ac4   0x00000010   Data   RO         2337    .constdata          grlib.lib(context.o)
    0x00007ad4   0x00007ad4   0x000002f8   Data   RO         2369    .constdata          grlib.lib(fontfixed6x8.o)
    0x00007dcc   0x00007dcc   0x000000c8   Data   RO         2370    .constdata          grlib.lib(fontfixed6x8.o)
    0x00007e94   0x00007e94   0x00000004   PAD
    0x00007e98   0x00007e98   0x00000050   Data   RO         3970    .constdata          m_wm.l(asin.o)
    0x00007ee8   0x00007ee8   0x00000098   Data   RO         3984    .constdata          m_wm.l(atan.o)
    0x00007f80   0x00007f80   0x00000030   Data   RO         4040    .constdata          m_wm.l(cos_i.o)
    0x00007fb0   0x00007fb0   0x000000c8   Data   RO         4068    .constdata          m_wm.l(rred.o)
    0x00008078   0x00008078   0x00000028   Data   RO         4072    .constdata          m_wm.l(sin_i.o)
    0x000080a0   0x000080a0   0x00000060   Data   RO         4090    .constdata          m_wm.l(tan_i.o)
    0x00008100   0x00008100   0x0000009c   Data   RO            6    .conststring        uart.o
    0x0000819c   0x0000819c   0x00000025   Data   RO           94    .conststring        __thread.o
    0x000081c1   0x000081c1   0x00000003   PAD
    0x000081c4   0x000081c4   0x00000020   Data   RO         4258    Region$$Table       anon$$obj.o


    Execution Region RW_IRAM1 (Exec base: 0x20000000, Load base: 0x000081e4, Size: 0x000037a8, Max: 0x00040000, ABSOLUTE)

    Exec Addr    Load Addr    Size         Type   Attr      Idx    E Section Name        Object

    0x20000000   0x000081e4   0x00000004   Data   RW            7    .data               uart.o
    0x20000004   0x000081e8   0x0000004c   Data   RW           95    .data               __thread.o
    0x20000050   0x00008234   0x0000000b   Data   RW          170    .data               pwm.o
    0x2000005b   0x0000823f   0x00000001   PAD
    0x2000005c   0x00008240   0x00000007   Data   RW          209    .data               display.o
    0x20000063   0x00008247   0x00000001   PAD
    0x20000064   0x00008248   0x0000000b   Data   RW          227    .data               buzzer.o
    0x2000006f   0x00008253   0x00000001   PAD
    0x20000070   0x00008254   0x00000005   Data   RW          344    .data               cfaf128x128x16.o
    0x20000075   0x00008259   0x00000003   PAD
    0x20000078   0x0000825c   0x00000014   Data   RW          371    .data               rtx_conf_cm.o
    0x2000008c   0x00008270   0x00000004   Data   RW          406    .data               system_tm4c129.o
    0x20000090   0x00008274   0x00000004   Data   RW         2338    .data               grlib.lib(context.o)
    0x20000094   0x00008278   0x00000008   Data   RW         2631    .data               RTX_CM4.lib(rt_cmsis.o)
    0x2000009c   0x00008280   0x00000008   Data   RW         3171    .data               RTX_CM4.lib(rt_task.o)
    0x200000a4   0x00008288   0x00000008   Data   RW         3458    .data               RTX_CM4.lib(rt_system.o)
    0x200000ac   0x00008290   0x00000004   Data   RW         3748    .data               RTX_CM4.lib(rt_time.o)
    0x200000b0   0x00008294   0x00000008   Data   RW         3779    .data               RTX_CM4.lib(rt_robin.o)
    0x200000b8   0x0000829c   0x00000001   Data   RW         3859    .data               RTX_CM4.lib(hal_cm.o)
    0x200000b9   0x0000829d   0x00000003   PAD
    0x200000bc        -       0x00000178   Zero   RW           92    .bss                __thread.o
    0x20000234        -       0x0000002c   Zero   RW          208    .bss                display.o
    0x20000260        -       0x00003280   Zero   RW          369    .bss                rtx_conf_cm.o
    0x200034e0        -       0x00000034   Zero   RW         3170    .bss                RTX_CM4.lib(rt_task.o)
    0x20003514        -       0x00000030   Zero   RW         3588    .bss                RTX_CM4.lib(rt_list.o)
    0x20003544        -       0x00000060   Zero   RW         3921    .bss                c_w.l(libspace.o)
    0x200035a4   0x0000829d   0x00000004   PAD
    0x200035a8        -       0x00000000   Zero   RW          396    HEAP                startup_tm4c129.o
    0x200035a8        -       0x00000200   Zero   RW          395    STACK               startup_tm4c129.o


==============================================================================

Image component sizes


      Code (inc. data)   RO Data    RW Data    ZI Data      Debug   Object Name

      4056        264        181         76        376      39298   __thread.o
       392         48          0         11          0       2661   buzzer.o
      2208         98         64          5          0      11302   cfaf128x128x16.o
      1048        256          0          7         44       3088   display.o
       388         32         16          0          0       2075   led.o
       316         38          0         11          0       1869   pwm.o
       200         36        104         20      12928       9349   rtx_conf_cm.o
       300         22        512          0        512       6152   startup_tm4c129.o
        40         12          0          4          0       1125   system_tm4c129.o
       828        254        180          4          0      65508   uart.o

    ----------------------------------------------------------------------
      9776       1060       1092        144      13860     142427   Object Totals
         0          0         32          0          0          0   (incl. Generated)
         0          0          3          6          0          0   (incl. Padding)

    ----------------------------------------------------------------------

      Code (inc. data)   RO Data    RW Data    ZI Data      Debug   Library Member Name

       268         24          0          1          0       4472   hal_cm.o
       408         34          0          0          0        816   hal_cm4.o
      2182        234          0          8          0      53185   rt_cmsis.o
       300         24          0          0          0       3383   rt_event.o
       530         34          0          0         48       8601   rt_list.o
       706         14          0          0          0       5067   rt_mailbox.o
       140          0          0          0          0       2045   rt_membox.o
       128          0          0          0          0       2419   rt_memory.o
       352         14          0          0          0       2229   rt_mutex.o
        96         22          0          8          0       1230   rt_robin.o
        52          4          0          0          0        613   rt_semaphore.o
       334         64          0          8          0       7387   rt_system.o
      1216        174          0          8         52      10045   rt_task.o
         6          0          0          4          0        692   rt_time.o
         4          4          0          0          0        200   svc_table.o
         8          0          0          0          0         68   __main.o
         0          0          0          0          0          0   __rtentry.o
        20          0          0          0          0          0   __rtentry2.o
         6          0          0          0          0          0   __rtentry4.o
        52          8          0          0          0          0   __scatter.o
        26          0          0          0          0          0   __scatter_copy.o
        28          0          0          0          0          0   __scatter_zi.o
        22          0          0          0          0        100   _rserrno.o
        18          0          0          0          0         80   exit.o
         6          0          0          0          0        152   heapauxi.o
         0          0          0          0          0          0   indicate_semi.o
         2          0          0          0          0          0   libinit.o
         6          0          0          0          0          0   libinit2.o
         2          0          0          0          0          0   libshutdown.o
         2          0          0          0          0          0   libshutdown2.o
         8          4          0          0         96         68   libspace.o
        72          0          0          0          0         76   llsdiv.o
       238          0          0          0          0        100   lludivv7m.o
         4          0          0          0          0         68   rt_errno_addr_twolibspace.o
         2          0          0          0          0          0   rtexit.o
        10          0          0          0          0          0   rtexit2.o
        12          4          0          0          0         68   sys_exit.o
        74          0          0          0          0         80   sys_stackheap_outer.o
         2          0          0          0          0         68   use_no_semi.o
        38          0          0          0          0        576   cpu.o
       476          8        552          0          0       7618   gpio.o
       114          8        268          0          0       2102   interrupt.o
       168          0          0          0          0       4621   pwm.o
      1178         86        596          0          0       6955   sysctl.o
       140          8          0          0          0       2879   timer.o
       130          0          0          0          0       2127   uart.o
        24          0          0          0          0        164   basic.o
        98          4          0          0          0        140   d2f.o
       826         16          0          0          0        492   daddsub_clz.o
       688        140          0          0          0        256   ddiv.o
        94          4          0          0          0        140   dfix.o
        90          4          0          0          0        140   dfixu.o
        84          0          0          0          0        232   dflt_clz.o
       340         12          0          0          0        152   dmul.o
       156          4          0          0          0        140   dnaninf.o
        12          0          0          0          0        116   dretinf.o
       408         56          0          0          0        168   dsqrt_umaal.o
        86          4          0          0          0        132   f2d.o
       134          4          0          0          0        132   ffixll.o
       140          4          0          0          0        132   fnaninf.o
        10          0          0          0          0        116   fpinit.o
        10          0          0          0          0        116   fretinf.o
         0          0          0          0          0          0   usenofp.o
         8          0          0          0          0       1494   charmap.o
       100         12         16          4          0      26443   context.o
         0          0        960          0          0      25662   fontfixed6x8.o
       152          0          0          0          0       2178   line.o
      1240          0          0          0          0       9079   string.o
       864         94         80          0          0        280   asin.o
       728        106        152          0          0        228   atan.o
       368         46         48          0          0        200   cos_i.o
        84         16          0          0          0        372   dunder.o
        24          0          0          0          0        124   fabs.o
        48          0          0          0          0        124   fpclassify.o
       248          0          0          0          0        152   poly.o
      1080        142        200          0          0        188   rred.o
       200         20          0          0          0        164   sin.o
       304         24         40          0          0        208   sin_i.o
       110          0          0          0          0        148   sqrt.o
       128         20          0          0          0        144   tan.o
       848         84         96          0          0        196   tan_i.o

    ----------------------------------------------------------------------
     19372       1588       3012         44        200     200342   Library Totals
        52          0          4          3          4          0   (incl. Padding)

    ----------------------------------------------------------------------

      Code (inc. data)   RO Data    RW Data    ZI Data      Debug   Library Name

      6722        646          0         37        100     102384   RTX_CM4.lib
       620         16          0          0         96        928   c_w.l
      2244        110       1416          0          0      26878   driverlib.lib
      3200        252          0          0          0       2768   fz_wm.l
      1500         12        976          4          0      64856   grlib.lib
      5034        552        616          0          0       2528   m_wm.l

    ----------------------------------------------------------------------
     19372       1588       3012         44        200     200342   Library Totals

    ----------------------------------------------------------------------

==============================================================================


      Code (inc. data)   RO Data    RW Data    ZI Data      Debug   

     29148       2648       4104        188      14060     323605   Grand Totals
     29148       2648       4104        188      14060     323605   ELF Image Totals
     29148       2648       4104        188          0          0   ROM Totals

==============================================================================

    Total RO  Size (Code + RO Data)                33252 (  32.47kB)
    Total RW  Size (RW Data + ZI Data)             14248 (  13.91kB)
    Total ROM Size (Code + RO Data + RW Data)      33440 (  32.66kB)

==============================================================================

