Component: ARM Compiler 5.06 update 6 (build 750) Tool: armlink [4d35ed]

==============================================================================

Section Cross References

    exemplotiva.o(.text) refers to llsdiv.o(.text) for __aeabi_ldivmod
    exemplotiva.o(.text) refers to ffixll.o(x$fpl$llsfromf) for __aeabi_f2lz
    exemplotiva.o(.text) refers to sysctl.o(i.SysCtlPeripheralEnable) for SysCtlPeripheralEnable
    exemplotiva.o(.text) refers to interrupt.o(i.IntMasterEnable) for IntMasterEnable
    exemplotiva.o(.text) refers to timer.o(i.TimerConfigure) for TimerConfigure
    exemplotiva.o(.text) refers to sysctl.o(i.SysCtlClockGet) for SysCtlClockGet
    exemplotiva.o(.text) refers to timer.o(i.TimerLoadSet) for TimerLoadSet
    exemplotiva.o(.text) refers to interrupt.o(i.IntEnable) for IntEnable
    exemplotiva.o(.text) refers to timer.o(i.TimerIntEnable) for TimerIntEnable
    exemplotiva.o(.text) refers to timer.o(i.TimerEnable) for TimerEnable
    exemplotiva.o(.text) refers to timer.o(i.TimerIntClear) for TimerIntClear
    exemplotiva.o(.text) refers to rt_cmsis.o(i.osSignalClear) for osSignalClear
    exemplotiva.o(.text) refers to rt_cmsis.o(i.osMailAlloc) for osMailAlloc
    exemplotiva.o(.text) refers to rt_cmsis.o(i.osMailPut) for osMailPut
    exemplotiva.o(.text) refers to rt_cmsis.o(i.osSignalSet) for osSignalSet
    exemplotiva.o(.text) refers to rt_cmsis.o(i.osThreadCreate) for osThreadCreate
    exemplotiva.o(.text) refers to cfaf128x128x16.o(.text) for cfaf128x128x16Init
    exemplotiva.o(.text) refers to buzzer.o(.text) for buzzer_init
    exemplotiva.o(.text) refers to buttons.o(.text) for button_init
    exemplotiva.o(.text) refers to pwm.o(.text) for PWM_function_init
    exemplotiva.o(.text) refers to context.o(i.GrContextInit) for GrContextInit
    exemplotiva.o(.text) refers to string.o(i.GrContextFontSet) for GrContextFontSet
    exemplotiva.o(.text) refers to uart.o(.text) for UART_Enable
    exemplotiva.o(.text) refers to utils.o(.text) for SysTick_Init
    exemplotiva.o(.text) refers to string.o(i.GrStringDraw) for GrStringDraw
    exemplotiva.o(.text) refers to rt_cmsis.o(i.osPoolAlloc) for osPoolAlloc
    exemplotiva.o(.text) refers to d2f.o(x$fpl$d2f) for __aeabi_d2f
    exemplotiva.o(.text) refers to exemplotiva.o(.data) for .data
    exemplotiva.o(.text) refers to exemplotiva.o(.bss) for .bss
    exemplotiva.o(.text) refers to exemplotiva.o(.constdata) for .constdata
    exemplotiva.o(.text) refers to cfaf128x128x16.o(.constdata) for g_sCfaf128x128x16
    exemplotiva.o(.text) refers to fontfixed6x8.o(.constdata) for g_sFontFixed6x8
    exemplotiva.o(.text) refers to dflt_clz.o(x$fpl$dfltu) for __aeabi_ui2d
    exemplotiva.o(.text) refers to ddiv.o(x$fpl$ddiv) for __aeabi_ddiv
    exemplotiva.o(.text) refers to dmul.o(x$fpl$dmul) for __aeabi_dmul
    exemplotiva.o(.text) refers to sin.o(i.__hardfp_sin) for __hardfp_sin
    exemplotiva.o(.text) refers to rt_cmsis.o(i.osSignalWait) for osSignalWait
    exemplotiva.o(.text) refers to rt_cmsis.o(i.osMailGet) for osMailGet
    exemplotiva.o(.text) refers to f2d.o(x$fpl$f2d) for __aeabi_f2d
    exemplotiva.o(.text) refers to dflt_clz.o(x$fpl$dflt) for __aeabi_i2d
    exemplotiva.o(.text) refers to daddsub_clz.o(x$fpl$drsb) for __aeabi_drsub
    exemplotiva.o(.text) refers to daddsub_clz.o(x$fpl$dadd) for __aeabi_dadd
    exemplotiva.o(.text) refers to rt_cmsis.o(i.osPoolFree) for osPoolFree
    exemplotiva.o(.text) refers to rt_cmsis.o(i.osMutexWait) for osMutexWait
    exemplotiva.o(.text) refers to rt_cmsis.o(i.osMutexRelease) for osMutexRelease
    exemplotiva.o(.text) refers to dfixu.o(x$fpl$dfixu) for __aeabi_d2uiz
    exemplotiva.o(.text) refers to rt_cmsis.o(i.osMessagePut) for osMessagePut
    exemplotiva.o(.text) refers to rt_cmsis.o(i.osMessageGet) for osMessageGet
    exemplotiva.o(.text) refers to rt_cmsis.o(i.osDelay) for osDelay
    exemplotiva.o(.text) refers to rt_cmsis.o(i.osKernelInitialize) for osKernelInitialize
    exemplotiva.o(.text) refers to rt_cmsis.o(i.osPoolCreate) for osPoolCreate
    exemplotiva.o(.text) refers to rt_cmsis.o(i.osMailCreate) for osMailCreate
    exemplotiva.o(.text) refers to rt_cmsis.o(i.osMessageCreate) for osMessageCreate
    exemplotiva.o(.text) refers to rt_cmsis.o(i.osMutexCreate) for osMutexCreate
    exemplotiva.o(.text) refers to rt_cmsis.o(i.osTimerCreate) for osTimerCreate
    exemplotiva.o(.text) refers to rt_cmsis.o(i.osKernelStart) for osKernelStart
    exemplotiva.o(.constdata) refers to exemplotiva.o(.bss) for os_mutex_cb_mutex_display
    exemplotiva.o(.constdata) refers to exemplotiva.o(.text) for timer_callback
    exemplotiva.o(.constdata) refers to exemplotiva.o(.bss) for os_timer_cb_Timer
    exemplotiva.o(.constdata) refers to exemplotiva.o(.bss) for os_messageQ_q_gen2dis
    exemplotiva.o(.constdata) refers to exemplotiva.o(.bss) for os_messageQ_q_gen2pwm
    exemplotiva.o(.constdata) refers to exemplotiva.o(.bss) for os_pool_m_sig
    exemplotiva.o(.constdata) refers to exemplotiva.o(.bss) for os_pool_m_pt
    exemplotiva.o(.constdata) refers to exemplotiva.o(.bss) for os_pool_m_msg
    exemplotiva.o(.constdata) refers to exemplotiva.o(.bss) for os_pool_m_pwm_msg
    exemplotiva.o(.constdata) refers to exemplotiva.o(.data) for os_mailQ_p_uart_msg
    exemplotiva.o(.constdata) refers to exemplotiva.o(.data) for os_mailQ_p_usr2gen
    exemplotiva.o(.data) refers to exemplotiva.o(.bss) for os_mailQ_q_uart_msg
    exemplotiva.o(.data) refers to exemplotiva.o(.bss) for os_mailQ_m_uart_msg
    exemplotiva.o(.data) refers to exemplotiva.o(.bss) for os_mailQ_q_usr2gen
    exemplotiva.o(.data) refers to exemplotiva.o(.bss) for os_mailQ_m_usr2gen
    exemplotiva.o(.data) refers to exemplotiva.o(.conststring) for .conststring
    pwm.o(.text) refers to pwm.o(i.PWMGenPeriodGet) for PWMGenPeriodGet
    pwm.o(.text) refers to pwm.o(i.PWMPulseWidthSet) for PWMPulseWidthSet
    pwm.o(.text) refers to pwm.o(i.PWMGenPeriodSet) for PWMGenPeriodSet
    pwm.o(.text) refers to sysctl.o(i.SysCtlPeripheralEnable) for SysCtlPeripheralEnable
    pwm.o(.text) refers to sysctl.o(i.SysCtlPeripheralReady) for SysCtlPeripheralReady
    pwm.o(.text) refers to gpio.o(i.GPIOPinTypePWM) for GPIOPinTypePWM
    pwm.o(.text) refers to gpio.o(i.GPIOPinConfigure) for GPIOPinConfigure
    pwm.o(.text) refers to pwm.o(i.PWMOutputInvert) for PWMOutputInvert
    pwm.o(.text) refers to pwm.o(i.PWMGenEnable) for PWMGenEnable
    pwm.o(.text) refers to pwm.o(.data) for .data
    uart.o(.text) refers to sysctl.o(i.SysCtlClockFreqSet) for SysCtlClockFreqSet
    uart.o(.text) refers to sysctl.o(i.SysCtlPeripheralEnable) for SysCtlPeripheralEnable
    uart.o(.text) refers to sysctl.o(.emb_text) for SysCtlDelay
    uart.o(.text) refers to gpio.o(i.GPIOPinConfigure) for GPIOPinConfigure
    uart.o(.text) refers to gpio.o(i.GPIOPinTypeUART) for GPIOPinTypeUART
    uart.o(.text) refers to uart.o(i.UARTConfigSetExpClk) for UARTConfigSetExpClk
    uart.o(.text) refers to uart.o(i.UARTEnable) for UARTEnable
    uart.o(.text) refers to uart.o(.data) for .data
    buzzer.o(.text) refers to pwm.o(i.PWMClockSet) for PWMClockSet
    buzzer.o(.text) refers to pwm.o(i.PWMOutputState) for PWMOutputState
    buzzer.o(.text) refers to pwm.o(i.PWMGenPeriodGet) for PWMGenPeriodGet
    buzzer.o(.text) refers to pwm.o(i.PWMPulseWidthSet) for PWMPulseWidthSet
    buzzer.o(.text) refers to pwm.o(i.PWMGenPeriodSet) for PWMGenPeriodSet
    buzzer.o(.text) refers to sysctl.o(i.SysCtlPeripheralEnable) for SysCtlPeripheralEnable
    buzzer.o(.text) refers to sysctl.o(i.SysCtlPeripheralReady) for SysCtlPeripheralReady
    buzzer.o(.text) refers to gpio.o(i.GPIOPinTypePWM) for GPIOPinTypePWM
    buzzer.o(.text) refers to gpio.o(i.GPIOPinConfigure) for GPIOPinConfigure
    buzzer.o(.text) refers to pwm.o(i.PWMGenConfigure) for PWMGenConfigure
    buzzer.o(.text) refers to pwm.o(i.PWMOutputInvert) for PWMOutputInvert
    buzzer.o(.text) refers to pwm.o(i.PWMGenEnable) for PWMGenEnable
    buzzer.o(.text) refers to buzzer.o(.data) for .data
    accel.o(.text) refers to sysctl.o(i.SysCtlPeripheralEnable) for SysCtlPeripheralEnable
    accel.o(.text) refers to adc.o(i.ADCSequenceStepConfigure) for ADCSequenceStepConfigure
    accel.o(.text) refers to gpio.o(i.GPIOPinTypeADC) for GPIOPinTypeADC
    accel.o(.text) refers to adc.o(i.ADCSequenceConfigure) for ADCSequenceConfigure
    accel.o(.text) refers to adc.o(i.ADCSequenceEnable) for ADCSequenceEnable
    accel.o(.text) refers to adc.o(i.ADCIntClear) for ADCIntClear
    accel.o(.text) refers to adc.o(i.ADCProcessorTrigger) for ADCProcessorTrigger
    accel.o(.text) refers to adc.o(i.ADCIntStatus) for ADCIntStatus
    accel.o(.text) refers to adc.o(i.ADCSequenceDataGet) for ADCSequenceDataGet
    buttons.o(.text) refers to sysctl.o(i.SysCtlPeripheralEnable) for SysCtlPeripheralEnable
    buttons.o(.text) refers to sysctl.o(i.SysCtlPeripheralReady) for SysCtlPeripheralReady
    buttons.o(.text) refers to gpio.o(i.GPIOPinTypeGPIOInput) for GPIOPinTypeGPIOInput
    buttons.o(.text) refers to gpio.o(i.GPIOPinRead) for GPIOPinRead
    cfaf128x128x16.o(.text) refers to cfaf128x128x16.o(.data) for .data
    cfaf128x128x16.o(.text) refers to sysctl.o(i.SysCtlClockFreqSet) for SysCtlClockFreqSet
    cfaf128x128x16.o(.constdata) refers to cfaf128x128x16.o(.text) for cfaf128x128x16PixelDraw
    led.o(.text) refers to led.o(.constdata) for .constdata
    mic.o(.text) refers to sysctl.o(i.SysCtlPeripheralEnable) for SysCtlPeripheralEnable
    mic.o(.text) refers to adc.o(i.ADCSequenceStepConfigure) for ADCSequenceStepConfigure
    mic.o(.text) refers to gpio.o(i.GPIOPinTypeADC) for GPIOPinTypeADC
    mic.o(.text) refers to adc.o(i.ADCSequenceConfigure) for ADCSequenceConfigure
    mic.o(.text) refers to adc.o(i.ADCSequenceEnable) for ADCSequenceEnable
    mic.o(.text) refers to adc.o(i.ADCIntClear) for ADCIntClear
    mic.o(.text) refers to adc.o(i.ADCProcessorTrigger) for ADCProcessorTrigger
    mic.o(.text) refers to adc.o(i.ADCIntStatus) for ADCIntStatus
    mic.o(.text) refers to adc.o(i.ADCSequenceDataGet) for ADCSequenceDataGet
    opt.o(.text) refers to i2c.o(i.I2CMasterSlaveAddrSet) for I2CMasterSlaveAddrSet
    opt.o(.text) refers to i2c.o(i.I2CMasterDataPut) for I2CMasterDataPut
    opt.o(.text) refers to i2c.o(i.I2CMasterBusBusy) for I2CMasterBusBusy
    opt.o(.text) refers to sysctl.o(.emb_text) for SysCtlDelay
    opt.o(.text) refers to i2c.o(i.I2CMasterControl) for I2CMasterControl
    opt.o(.text) refers to i2c.o(i.I2CMasterBusy) for I2CMasterBusy
    opt.o(.text) refers to i2c.o(i.I2CMasterErr) for I2CMasterErr
    opt.o(.text) refers to i2c.o(i.I2CMasterDataGet) for I2CMasterDataGet
    opt.o(.text) refers to i2c.o(i.I2CMasterBurstLengthSet) for I2CMasterBurstLengthSet
    opt.o(.text) refers to i2c.o(i.I2CMasterIntClearEx) for I2CMasterIntClearEx
    opt.o(.text) refers to i2c.o(i.I2CMasterIntClear) for I2CMasterIntClear
    opt.o(.text) refers to opt.o(.data) for .data
    opt.o(.text) refers to sysctl.o(i.SysCtlClockFreqSet) for SysCtlClockFreqSet
    opt.o(.text) refers to sysctl.o(i.SysCtlPeripheralEnable) for SysCtlPeripheralEnable
    opt.o(.text) refers to sysctl.o(i.SysCtlPeripheralReset) for SysCtlPeripheralReset
    opt.o(.text) refers to sysctl.o(i.SysCtlPeripheralReady) for SysCtlPeripheralReady
    opt.o(.text) refers to gpio.o(i.GPIOPinTypeGPIOInput) for GPIOPinTypeGPIOInput
    opt.o(.text) refers to gpio.o(i.GPIOPinConfigure) for GPIOPinConfigure
    opt.o(.text) refers to gpio.o(i.GPIOPinTypeI2CSCL) for GPIOPinTypeI2CSCL
    opt.o(.text) refers to gpio.o(i.GPIOPinTypeI2C) for GPIOPinTypeI2C
    opt.o(.text) refers to i2c.o(i.I2CMasterTimeoutSet) for I2CMasterTimeoutSet
    opt.o(.text) refers to i2c.o(i.I2CMasterGlitchFilterConfigSet) for I2CMasterGlitchFilterConfigSet
    opt.o(.text) refers to i2c.o(i.I2CMasterInitExpClk) for I2CMasterInitExpClk
    opt.o(.text) refers to i2c.o(i.I2CMasterIntEnableEx) for I2CMasterIntEnableEx
    opt.o(.text) refers to i2c.o(i.I2CIntRegister) for I2CIntRegister
    opt.o(.text) refers to interrupt.o(i.IntEnable) for IntEnable
    opt.o(.text) refers to i2c.o(i.I2CMasterEnable) for I2CMasterEnable
    rgb.o(.text) refers to pwm.o(i.PWMOutputState) for PWMOutputState
    rgb.o(.text) refers to pwm.o(i.PWMGenPeriodGet) for PWMGenPeriodGet
    rgb.o(.text) refers to pwm.o(i.PWMPulseWidthSet) for PWMPulseWidthSet
    rgb.o(.text) refers to sysctl.o(i.SysCtlClockFreqSet) for SysCtlClockFreqSet
    rgb.o(.text) refers to sysctl.o(i.SysCtlPeripheralEnable) for SysCtlPeripheralEnable
    rgb.o(.text) refers to sysctl.o(i.SysCtlPeripheralReady) for SysCtlPeripheralReady
    rgb.o(.text) refers to pwm.o(i.PWMGenDisable) for PWMGenDisable
    rgb.o(.text) refers to gpio.o(i.GPIOPinTypePWM) for GPIOPinTypePWM
    rgb.o(.text) refers to pwm.o(i.PWMClockSet) for PWMClockSet
    rgb.o(.text) refers to gpio.o(i.GPIOPinConfigure) for GPIOPinConfigure
    rgb.o(.text) refers to pwm.o(i.PWMGenConfigure) for PWMGenConfigure
    rgb.o(.text) refers to pwm.o(i.PWMGenPeriodSet) for PWMGenPeriodSet
    rgb.o(.text) refers to pwm.o(i.PWMGenEnable) for PWMGenEnable
    rgb.o(.text) refers to rgb.o(.data) for .data
    servo.o(.text) refers to timer.o(i.TimerMatchSet) for TimerMatchSet
    servo.o(.text) refers to sysctl.o(i.SysCtlClockFreqSet) for SysCtlClockFreqSet
    servo.o(.text) refers to sysctl.o(i.SysCtlPeripheralEnable) for SysCtlPeripheralEnable
    servo.o(.text) refers to sysctl.o(i.SysCtlPeripheralReady) for SysCtlPeripheralReady
    servo.o(.text) refers to gpio.o(i.GPIOPinConfigure) for GPIOPinConfigure
    servo.o(.text) refers to gpio.o(i.GPIOPinTypeTimer) for GPIOPinTypeTimer
    servo.o(.text) refers to timer.o(i.TimerClockSourceSet) for TimerClockSourceSet
    servo.o(.text) refers to timer.o(i.TimerConfigure) for TimerConfigure
    servo.o(.text) refers to timer.o(i.TimerControlLevel) for TimerControlLevel
    servo.o(.text) refers to timer.o(i.TimerUpdateMode) for TimerUpdateMode
    servo.o(.text) refers to timer.o(i.TimerPrescaleSet) for TimerPrescaleSet
    servo.o(.text) refers to timer.o(i.TimerLoadSet) for TimerLoadSet
    servo.o(.text) refers to timer.o(i.TimerEnable) for TimerEnable
    servo.o(.text) refers to servo.o(.data) for .data
    joy.o(.text) refers to sysctl.o(i.SysCtlPeripheralEnable) for SysCtlPeripheralEnable
    joy.o(.text) refers to sysctl.o(i.SysCtlPeripheralReady) for SysCtlPeripheralReady
    joy.o(.text) refers to gpio.o(i.GPIOPinTypeGPIOInput) for GPIOPinTypeGPIOInput
    joy.o(.text) refers to adc.o(i.ADCSequenceStepConfigure) for ADCSequenceStepConfigure
    joy.o(.text) refers to gpio.o(i.GPIOPinTypeADC) for GPIOPinTypeADC
    joy.o(.text) refers to adc.o(i.ADCSequenceConfigure) for ADCSequenceConfigure
    joy.o(.text) refers to adc.o(i.ADCSequenceEnable) for ADCSequenceEnable
    joy.o(.text) refers to adc.o(i.ADCIntClear) for ADCIntClear
    joy.o(.text) refers to adc.o(i.ADCProcessorTrigger) for ADCProcessorTrigger
    joy.o(.text) refers to adc.o(i.ADCIntStatus) for ADCIntStatus
    joy.o(.text) refers to adc.o(i.ADCSequenceDataGet) for ADCSequenceDataGet
    joy.o(.text) refers to gpio.o(i.GPIOPinRead) for GPIOPinRead
    temp.o(.text) refers to i2c.o(i.I2CMasterSlaveAddrSet) for I2CMasterSlaveAddrSet
    temp.o(.text) refers to i2c.o(i.I2CMasterDataPut) for I2CMasterDataPut
    temp.o(.text) refers to i2c.o(i.I2CMasterBusBusy) for I2CMasterBusBusy
    temp.o(.text) refers to sysctl.o(.emb_text) for SysCtlDelay
    temp.o(.text) refers to i2c.o(i.I2CMasterControl) for I2CMasterControl
    temp.o(.text) refers to i2c.o(i.I2CMasterBusy) for I2CMasterBusy
    temp.o(.text) refers to i2c.o(i.I2CMasterErr) for I2CMasterErr
    temp.o(.text) refers to i2c.o(i.I2CMasterDataGet) for I2CMasterDataGet
    temp.o(.text) refers to i2c.o(i.I2CMasterBurstLengthSet) for I2CMasterBurstLengthSet
    temp.o(.text) refers to temp.o(.data) for .data
    temp.o(.text) refers to i2c.o(i.I2CMasterIntClearEx) for I2CMasterIntClearEx
    temp.o(.text) refers to i2c.o(i.I2CMasterIntClear) for I2CMasterIntClear
    temp.o(.text) refers to sysctl.o(i.SysCtlClockFreqSet) for SysCtlClockFreqSet
    temp.o(.text) refers to sysctl.o(i.SysCtlPeripheralEnable) for SysCtlPeripheralEnable
    temp.o(.text) refers to sysctl.o(i.SysCtlPeripheralReset) for SysCtlPeripheralReset
    temp.o(.text) refers to sysctl.o(i.SysCtlPeripheralReady) for SysCtlPeripheralReady
    temp.o(.text) refers to gpio.o(i.GPIOPinTypeGPIOInput) for GPIOPinTypeGPIOInput
    temp.o(.text) refers to gpio.o(i.GPIOPinConfigure) for GPIOPinConfigure
    temp.o(.text) refers to gpio.o(i.GPIOPinTypeI2CSCL) for GPIOPinTypeI2CSCL
    temp.o(.text) refers to gpio.o(i.GPIOPinTypeI2C) for GPIOPinTypeI2C
    temp.o(.text) refers to i2c.o(i.I2CMasterTimeoutSet) for I2CMasterTimeoutSet
    temp.o(.text) refers to i2c.o(i.I2CMasterGlitchFilterConfigSet) for I2CMasterGlitchFilterConfigSet
    temp.o(.text) refers to i2c.o(i.I2CMasterInitExpClk) for I2CMasterInitExpClk
    temp.o(.text) refers to i2c.o(i.I2CMasterIntEnableEx) for I2CMasterIntEnableEx
    temp.o(.text) refers to i2c.o(i.I2CIntRegister) for I2CIntRegister
    temp.o(.text) refers to interrupt.o(i.IntEnable) for IntEnable
    temp.o(.text) refers to i2c.o(i.I2CMasterEnable) for I2CMasterEnable
    rtx_conf_cm.o(.emb_text) refers to rt_cmsis.o(i.osKernelInitialize) for osKernelInitialize
    rtx_conf_cm.o(.emb_text) refers to rt_cmsis.o(i.osThreadCreate) for osThreadCreate
    rtx_conf_cm.o(.emb_text) refers to rt_cmsis.o(i.osKernelStart) for osKernelStart
    rtx_conf_cm.o(.emb_text) refers to exit.o(.text) for exit
    rtx_conf_cm.o(.emb_text) refers to rtx_conf_cm.o(.constdata) for os_thread_def_main
    rtx_conf_cm.o(.text) refers to rt_task.o(i.rt_tsk_self) for rt_tsk_self
    rtx_conf_cm.o(.text) refers to rt_mutex.o(i.rt_mut_init) for rt_mut_init
    rtx_conf_cm.o(.text) refers to rt_cmsis.o(.data) for os_running
    rtx_conf_cm.o(.text) refers to rtx_conf_cm.o(.bss) for .bss
    rtx_conf_cm.o(.text) refers to libspace.o(.bss) for __libspace_start
    rtx_conf_cm.o(.text) refers to rtx_conf_cm.o(.data) for .data
    rtx_conf_cm.o(.text) refers to rt_mutex.o(i.rt_mut_wait) for rt_mut_wait
    rtx_conf_cm.o(.text) refers to rt_mutex.o(i.rt_mut_release) for rt_mut_release
    rtx_conf_cm.o(.constdata) refers to rt_cmsis.o(i.osTimerThread) for osTimerThread
    rtx_conf_cm.o(.constdata) refers to rtx_conf_cm.o(.bss) for os_messageQ_q_osTimerMessageQ
    rtx_conf_cm.o(.constdata) refers to exemplotiva.o(.text) for main
    startup_tm4c129.o(STACK) refers (Special) to heapauxi.o(.text) for __use_two_region_memory
    startup_tm4c129.o(HEAP) refers (Special) to heapauxi.o(.text) for __use_two_region_memory
    startup_tm4c129.o(RESET) refers (Special) to heapauxi.o(.text) for __use_two_region_memory
    startup_tm4c129.o(RESET) refers to startup_tm4c129.o(STACK) for __initial_sp
    startup_tm4c129.o(RESET) refers to startup_tm4c129.o(.text) for Reset_Handler
    startup_tm4c129.o(RESET) refers to hal_cm4.o(.emb_text) for SVC_Handler
    startup_tm4c129.o(RESET) refers to exemplotiva.o(.text) for UART0_Handler
    startup_tm4c129.o(.text) refers (Special) to heapauxi.o(.text) for __use_two_region_memory
    startup_tm4c129.o(.text) refers to system_tm4c129.o(.text) for SystemInit
    startup_tm4c129.o(.text) refers to __main.o(!!!main) for __main
    startup_tm4c129.o(.text) refers to startup_tm4c129.o(HEAP) for Heap_Mem
    startup_tm4c129.o(.text) refers to startup_tm4c129.o(STACK) for Stack_Mem
    system_tm4c129.o(.text) refers to system_tm4c129.o(.data) for .data
    adc.o(i.ADCIntRegister) refers to interrupt.o(i.IntRegister) for IntRegister
    adc.o(i.ADCIntRegister) refers to interrupt.o(i.IntEnable) for IntEnable
    adc.o(i.ADCIntUnregister) refers to interrupt.o(i.IntDisable) for IntDisable
    adc.o(i.ADCIntUnregister) refers to interrupt.o(i.IntUnregister) for IntUnregister
    adc.o(i.ADCSoftwareOversampleConfigure) refers to adc.o(.data) for .data
    adc.o(i.ADCSoftwareOversampleDataGet) refers to adc.o(.data) for .data
    adc.o(i.ADCSoftwareOversampleStepConfigure) refers to adc.o(.data) for .data
    gpio.o(i.GPIOIntRegister) refers to gpio.o(i._GPIOIntNumberGet) for _GPIOIntNumberGet
    gpio.o(i.GPIOIntRegister) refers to interrupt.o(i.IntRegister) for IntRegister
    gpio.o(i.GPIOIntRegister) refers to interrupt.o(i.IntEnable) for IntEnable
    gpio.o(i.GPIOIntRegisterPin) refers to gpio.o(i._GPIOIntNumberGet) for _GPIOIntNumberGet
    gpio.o(i.GPIOIntRegisterPin) refers to interrupt.o(i.IntRegister) for IntRegister
    gpio.o(i.GPIOIntRegisterPin) refers to interrupt.o(i.IntEnable) for IntEnable
    gpio.o(i.GPIOIntUnregister) refers to gpio.o(i._GPIOIntNumberGet) for _GPIOIntNumberGet
    gpio.o(i.GPIOIntUnregister) refers to interrupt.o(i.IntDisable) for IntDisable
    gpio.o(i.GPIOIntUnregister) refers to interrupt.o(i.IntUnregister) for IntUnregister
    gpio.o(i.GPIOIntUnregisterPin) refers to gpio.o(i._GPIOIntNumberGet) for _GPIOIntNumberGet
    gpio.o(i.GPIOIntUnregisterPin) refers to interrupt.o(i.IntDisable) for IntDisable
    gpio.o(i.GPIOIntUnregisterPin) refers to interrupt.o(i.IntUnregister) for IntUnregister
    gpio.o(i.GPIOPinConfigure) refers to gpio.o(.constdata) for .constdata
    gpio.o(i.GPIOPinTypeADC) refers to gpio.o(i.GPIODirModeSet) for GPIODirModeSet
    gpio.o(i.GPIOPinTypeADC) refers to gpio.o(i.GPIOPadConfigSet) for GPIOPadConfigSet
    gpio.o(i.GPIOPinTypeCAN) refers to gpio.o(i.GPIODirModeSet) for GPIODirModeSet
    gpio.o(i.GPIOPinTypeCAN) refers to gpio.o(i.GPIOPadConfigSet) for GPIOPadConfigSet
    gpio.o(i.GPIOPinTypeComparator) refers to gpio.o(i.GPIODirModeSet) for GPIODirModeSet
    gpio.o(i.GPIOPinTypeComparator) refers to gpio.o(i.GPIOPadConfigSet) for GPIOPadConfigSet
    gpio.o(i.GPIOPinTypeComparatorOutput) refers to gpio.o(i.GPIODirModeSet) for GPIODirModeSet
    gpio.o(i.GPIOPinTypeComparatorOutput) refers to gpio.o(i.GPIOPadConfigSet) for GPIOPadConfigSet
    gpio.o(i.GPIOPinTypeDIVSCLK) refers to gpio.o(i.GPIODirModeSet) for GPIODirModeSet
    gpio.o(i.GPIOPinTypeDIVSCLK) refers to gpio.o(i.GPIOPadConfigSet) for GPIOPadConfigSet
    gpio.o(i.GPIOPinTypeEPI) refers to gpio.o(i.GPIODirModeSet) for GPIODirModeSet
    gpio.o(i.GPIOPinTypeEPI) refers to gpio.o(i.GPIOPadConfigSet) for GPIOPadConfigSet
    gpio.o(i.GPIOPinTypeEthernetLED) refers to gpio.o(i.GPIODirModeSet) for GPIODirModeSet
    gpio.o(i.GPIOPinTypeEthernetLED) refers to gpio.o(i.GPIOPadConfigSet) for GPIOPadConfigSet
    gpio.o(i.GPIOPinTypeEthernetMII) refers to gpio.o(i.GPIODirModeSet) for GPIODirModeSet
    gpio.o(i.GPIOPinTypeEthernetMII) refers to gpio.o(i.GPIOPadConfigSet) for GPIOPadConfigSet
    gpio.o(i.GPIOPinTypeGPIOInput) refers to gpio.o(i.GPIODirModeSet) for GPIODirModeSet
    gpio.o(i.GPIOPinTypeGPIOInput) refers to gpio.o(i.GPIOPadConfigSet) for GPIOPadConfigSet
    gpio.o(i.GPIOPinTypeGPIOOutput) refers to gpio.o(i.GPIOPadConfigSet) for GPIOPadConfigSet
    gpio.o(i.GPIOPinTypeGPIOOutput) refers to gpio.o(i.GPIODirModeSet) for GPIODirModeSet
    gpio.o(i.GPIOPinTypeGPIOOutputOD) refers to gpio.o(i.GPIOPadConfigSet) for GPIOPadConfigSet
    gpio.o(i.GPIOPinTypeGPIOOutputOD) refers to gpio.o(i.GPIODirModeSet) for GPIODirModeSet
    gpio.o(i.GPIOPinTypeHibernateRTCCLK) refers to gpio.o(i.GPIODirModeSet) for GPIODirModeSet
    gpio.o(i.GPIOPinTypeHibernateRTCCLK) refers to gpio.o(i.GPIOPadConfigSet) for GPIOPadConfigSet
    gpio.o(i.GPIOPinTypeI2C) refers to gpio.o(i.GPIODirModeSet) for GPIODirModeSet
    gpio.o(i.GPIOPinTypeI2C) refers to gpio.o(i.GPIOPadConfigSet) for GPIOPadConfigSet
    gpio.o(i.GPIOPinTypeI2CSCL) refers to gpio.o(i.GPIODirModeSet) for GPIODirModeSet
    gpio.o(i.GPIOPinTypeI2CSCL) refers to gpio.o(i.GPIOPadConfigSet) for GPIOPadConfigSet
    gpio.o(i.GPIOPinTypeLCD) refers to gpio.o(i.GPIODirModeSet) for GPIODirModeSet
    gpio.o(i.GPIOPinTypeLCD) refers to gpio.o(i.GPIOPadConfigSet) for GPIOPadConfigSet
    gpio.o(i.GPIOPinTypeOneWire) refers to gpio.o(i.GPIODirModeSet) for GPIODirModeSet
    gpio.o(i.GPIOPinTypeOneWire) refers to gpio.o(i.GPIOPadConfigSet) for GPIOPadConfigSet
    gpio.o(i.GPIOPinTypePWM) refers to gpio.o(i.GPIODirModeSet) for GPIODirModeSet
    gpio.o(i.GPIOPinTypePWM) refers to gpio.o(i.GPIOPadConfigSet) for GPIOPadConfigSet
    gpio.o(i.GPIOPinTypeQEI) refers to gpio.o(i.GPIODirModeSet) for GPIODirModeSet
    gpio.o(i.GPIOPinTypeQEI) refers to gpio.o(i.GPIOPadConfigSet) for GPIOPadConfigSet
    gpio.o(i.GPIOPinTypeSSI) refers to gpio.o(i.GPIODirModeSet) for GPIODirModeSet
    gpio.o(i.GPIOPinTypeSSI) refers to gpio.o(i.GPIOPadConfigSet) for GPIOPadConfigSet
    gpio.o(i.GPIOPinTypeTimer) refers to gpio.o(i.GPIODirModeSet) for GPIODirModeSet
    gpio.o(i.GPIOPinTypeTimer) refers to gpio.o(i.GPIOPadConfigSet) for GPIOPadConfigSet
    gpio.o(i.GPIOPinTypeTrace) refers to gpio.o(i.GPIODirModeSet) for GPIODirModeSet
    gpio.o(i.GPIOPinTypeTrace) refers to gpio.o(i.GPIOPadConfigSet) for GPIOPadConfigSet
    gpio.o(i.GPIOPinTypeUART) refers to gpio.o(i.GPIODirModeSet) for GPIODirModeSet
    gpio.o(i.GPIOPinTypeUART) refers to gpio.o(i.GPIOPadConfigSet) for GPIOPadConfigSet
    gpio.o(i.GPIOPinTypeUSBAnalog) refers to gpio.o(i.GPIODirModeSet) for GPIODirModeSet
    gpio.o(i.GPIOPinTypeUSBAnalog) refers to gpio.o(i.GPIOPadConfigSet) for GPIOPadConfigSet
    gpio.o(i.GPIOPinTypeUSBDigital) refers to gpio.o(i.GPIODirModeSet) for GPIODirModeSet
    gpio.o(i.GPIOPinTypeUSBDigital) refers to gpio.o(i.GPIOPadConfigSet) for GPIOPadConfigSet
    gpio.o(i.GPIOPinTypeWakeHigh) refers to gpio.o(i.GPIODirModeSet) for GPIODirModeSet
    gpio.o(i.GPIOPinTypeWakeHigh) refers to gpio.o(i.GPIOPadConfigSet) for GPIOPadConfigSet
    gpio.o(i.GPIOPinTypeWakeLow) refers to gpio.o(i.GPIODirModeSet) for GPIODirModeSet
    gpio.o(i.GPIOPinTypeWakeLow) refers to gpio.o(i.GPIOPadConfigSet) for GPIOPadConfigSet
    gpio.o(i._GPIOIntNumberGet) refers to gpio.o(.constdata) for .constdata
    i2c.o(i.I2CIntRegister) refers to interrupt.o(i.IntRegister) for IntRegister
    i2c.o(i.I2CIntRegister) refers to interrupt.o(i.IntEnable) for IntEnable
    i2c.o(i.I2CIntRegister) refers to i2c.o(.constdata) for .constdata
    i2c.o(i.I2CIntUnregister) refers to interrupt.o(i.IntDisable) for IntDisable
    i2c.o(i.I2CIntUnregister) refers to interrupt.o(i.IntUnregister) for IntUnregister
    i2c.o(i.I2CIntUnregister) refers to i2c.o(.constdata) for .constdata
    interrupt.o(i.IntDisable) refers to interrupt.o(.constdata) for .constdata
    interrupt.o(i.IntEnable) refers to interrupt.o(.constdata) for .constdata
    interrupt.o(i.IntIsEnabled) refers to interrupt.o(.constdata) for .constdata
    interrupt.o(i.IntMasterDisable) refers to cpu.o(.emb_text) for CPUcpsid
    interrupt.o(i.IntMasterEnable) refers to cpu.o(.emb_text) for CPUcpsie
    interrupt.o(i.IntPendClear) refers to interrupt.o(.constdata) for .constdata
    interrupt.o(i.IntPendSet) refers to interrupt.o(.constdata) for .constdata
    interrupt.o(i.IntPriorityGet) refers to interrupt.o(.constdata) for .constdata
    interrupt.o(i.IntPriorityGroupingGet) refers to interrupt.o(.constdata) for .constdata
    interrupt.o(i.IntPriorityGroupingSet) refers to interrupt.o(.constdata) for .constdata
    interrupt.o(i.IntPriorityMaskGet) refers to cpu.o(.emb_text) for CPUbasepriGet
    interrupt.o(i.IntPriorityMaskSet) refers to cpu.o(.emb_text) for CPUbasepriSet
    interrupt.o(i.IntPrioritySet) refers to interrupt.o(.constdata) for .constdata
    interrupt.o(i.IntRegister) refers to interrupt.o(vtable) for vtable
    interrupt.o(i.IntUnregister) refers to interrupt.o(i._IntDefaultHandler) for _IntDefaultHandler
    interrupt.o(i.IntUnregister) refers to interrupt.o(vtable) for vtable
    pwm.o(i.PWMFaultIntRegister) refers to interrupt.o(i.IntRegister) for IntRegister
    pwm.o(i.PWMFaultIntRegister) refers to interrupt.o(i.IntEnable) for IntEnable
    pwm.o(i.PWMFaultIntUnregister) refers to interrupt.o(i.IntDisable) for IntDisable
    pwm.o(i.PWMFaultIntUnregister) refers to interrupt.o(i.IntUnregister) for IntUnregister
    pwm.o(i.PWMGenIntRegister) refers to pwm.o(i._PWMGenIntNumberGet) for _PWMGenIntNumberGet
    pwm.o(i.PWMGenIntRegister) refers to interrupt.o(i.IntRegister) for IntRegister
    pwm.o(i.PWMGenIntRegister) refers to interrupt.o(i.IntEnable) for IntEnable
    pwm.o(i.PWMGenIntUnregister) refers to pwm.o(i._PWMGenIntNumberGet) for _PWMGenIntNumberGet
    pwm.o(i.PWMGenIntUnregister) refers to interrupt.o(i.IntDisable) for IntDisable
    pwm.o(i.PWMGenIntUnregister) refers to interrupt.o(i.IntUnregister) for IntUnregister
    sysctl.o(i.SysCtlClockFreqSet) refers to sysctl.o(.constdata) for .constdata
    sysctl.o(i.SysCtlClockGet) refers to sysctl.o(.constdata) for .constdata
    sysctl.o(i.SysCtlClockSet) refers to sysctl.o(.emb_text) for SysCtlDelay
    sysctl.o(i.SysCtlDeepSleep) refers to cpu.o(.emb_text) for CPUwfi
    sysctl.o(i.SysCtlIntRegister) refers to interrupt.o(i.IntRegister) for IntRegister
    sysctl.o(i.SysCtlIntRegister) refers to interrupt.o(i.IntEnable) for IntEnable
    sysctl.o(i.SysCtlIntUnregister) refers to interrupt.o(i.IntDisable) for IntDisable
    sysctl.o(i.SysCtlIntUnregister) refers to interrupt.o(i.IntUnregister) for IntUnregister
    sysctl.o(i.SysCtlSleep) refers to cpu.o(.emb_text) for CPUwfi
    sysctl.o(i.SysCtlVCOGet) refers to sysctl.o(.constdata) for .constdata
    timer.o(i.TimerIntRegister) refers to interrupt.o(i.IntRegister) for IntRegister
    timer.o(i.TimerIntRegister) refers to interrupt.o(i.IntEnable) for IntEnable
    timer.o(i.TimerIntRegister) refers to timer.o(.constdata) for .constdata
    timer.o(i.TimerIntUnregister) refers to interrupt.o(i.IntDisable) for IntDisable
    timer.o(i.TimerIntUnregister) refers to interrupt.o(i.IntUnregister) for IntUnregister
    timer.o(i.TimerIntUnregister) refers to timer.o(.constdata) for .constdata
    uart.o(i.UARTIntRegister) refers to interrupt.o(i.IntRegister) for IntRegister
    uart.o(i.UARTIntRegister) refers to interrupt.o(i.IntEnable) for IntEnable
    uart.o(i.UARTIntRegister) refers to uart.o(.constdata) for .constdata
    uart.o(i.UARTIntUnregister) refers to interrupt.o(i.IntDisable) for IntDisable
    uart.o(i.UARTIntUnregister) refers to interrupt.o(i.IntUnregister) for IntUnregister
    uart.o(i.UARTIntUnregister) refers to uart.o(.constdata) for .constdata
    context.o(i.GrContextInit) refers to context.o(.data) for .data
    context.o(i.GrContextInit) refers to string.o(i.GrDefaultStringRenderer) for GrDefaultStringRenderer
    context.o(i.GrContextInit) refers to context.o(.constdata) for .constdata
    context.o(i.GrLibInit) refers to context.o(.data) for .data
    context.o(.constdata) refers to charmap.o(i.GrMapISO8859_1_Unicode) for GrMapISO8859_1_Unicode
    fontfixed6x8.o(.constdata) refers to fontfixed6x8.o(.constdata) for g_pui8FontFixed6x8Data
    string.o(i.GrCodepageMapTableSet) refers to string.o(i.UpdateContextCharMapping) for UpdateContextCharMapping
    string.o(i.GrContextFontSet) refers to string.o(i.UpdateContextCharMapping) for UpdateContextCharMapping
    string.o(i.GrDefaultStringRenderer) refers to string.o(i.GrFontGlyphDataGet) for GrFontGlyphDataGet
    string.o(i.GrDefaultStringRenderer) refers to string.o(i.GrFontGlyphRender) for GrFontGlyphRender
    string.o(i.GrStringCodepageSet) refers to string.o(i.UpdateContextCharMapping) for UpdateContextCharMapping
    string.o(i.GrStringGet) refers to string.o(.data) for .data
    string.o(i.GrStringLanguageSet) refers to string.o(.data) for .data
    string.o(i.GrStringTableSet) refers to string.o(.data) for .data
    string.o(i.GrStringWidthGet) refers to string.o(i.GrFontGlyphDataGet) for GrFontGlyphDataGet
    rt_cmsis.o(i.isrMessageGet) refers to rt_mailbox.o(i.isr_mbx_receive) for isr_mbx_receive
    rt_cmsis.o(i.isrMessagePut) refers to rt_mailbox.o(i.rt_mbx_check) for rt_mbx_check
    rt_cmsis.o(i.isrMessagePut) refers to rt_mailbox.o(i.isr_mbx_send) for isr_mbx_send
    rt_cmsis.o(i.isrSemaphoreRelease) refers to rt_cmsis.o(i.rt_id2obj) for rt_id2obj
    rt_cmsis.o(i.isrSemaphoreRelease) refers to rt_semaphore.o(i.isr_sem_send) for isr_sem_send
    rt_cmsis.o(i.isrSignalSet) refers to rt_cmsis.o(i.rt_tid2ptcb) for rt_tid2ptcb
    rt_cmsis.o(i.isrSignalSet) refers to rt_event.o(i.isr_evt_set) for isr_evt_set
    rt_cmsis.o(i.osDelay) refers to rt_cmsis.o(i.svcDelay) for svcDelay
    rt_cmsis.o(i.osKernelInitialize) refers to rt_cmsis.o(i.svcKernelInitialize) for svcKernelInitialize
    rt_cmsis.o(i.osKernelRunning) refers to rt_cmsis.o(i.svcKernelRunning) for svcKernelRunning
    rt_cmsis.o(i.osKernelRunning) refers to rt_cmsis.o(.data) for .data
    rt_cmsis.o(i.osKernelStart) refers to rtx_conf_cm.o(.constdata) for os_flags
    rt_cmsis.o(i.osKernelStart) refers to rt_cmsis.o(i.svcKernelStart) for svcKernelStart
    rt_cmsis.o(i.osKernelSysTick) refers to rt_cmsis.o(i.svcKernelSysTick) for svcKernelSysTick
    rt_cmsis.o(i.osMailAlloc) refers to rt_cmsis.o(i.sysMailAlloc) for sysMailAlloc
    rt_cmsis.o(i.osMailCAlloc) refers to rt_cmsis.o(i.sysMailAlloc) for sysMailAlloc
    rt_cmsis.o(i.osMailCAlloc) refers to rt_cmsis.o(i.rt_clr_box) for rt_clr_box
    rt_cmsis.o(i.osMailCreate) refers to rt_cmsis.o(i.svcMailCreate) for svcMailCreate
    rt_cmsis.o(i.osMailCreate) refers to rt_cmsis.o(.data) for .data
    rt_cmsis.o(i.osMailFree) refers to rt_cmsis.o(i.sysMailFree) for sysMailFree
    rt_cmsis.o(i.osMailGet) refers to rt_cmsis.o(i.osMessageGet) for osMessageGet
    rt_cmsis.o(i.osMailPut) refers to rt_cmsis.o(i.osMessagePut) for osMessagePut
    rt_cmsis.o(i.osMessageCreate) refers to rt_cmsis.o(i.svcMessageCreate) for svcMessageCreate
    rt_cmsis.o(i.osMessageCreate) refers to rt_cmsis.o(.data) for .data
    rt_cmsis.o(i.osMessageGet) refers to rt_cmsis.o(i.isrMessageGet) for isrMessageGet
    rt_cmsis.o(i.osMessageGet) refers to rt_cmsis.o(i.svcMessageGet) for svcMessageGet
    rt_cmsis.o(i.osMessagePut) refers to rt_cmsis.o(i.isrMessagePut) for isrMessagePut
    rt_cmsis.o(i.osMessagePut) refers to rt_cmsis.o(i.svcMessagePut) for svcMessagePut
    rt_cmsis.o(i.osMutexCreate) refers to rt_cmsis.o(i.svcMutexCreate) for svcMutexCreate
    rt_cmsis.o(i.osMutexCreate) refers to rt_cmsis.o(.data) for .data
    rt_cmsis.o(i.osMutexDelete) refers to rt_cmsis.o(i.svcMutexDelete) for svcMutexDelete
    rt_cmsis.o(i.osMutexRelease) refers to rt_cmsis.o(i.svcMutexRelease) for svcMutexRelease
    rt_cmsis.o(i.osMutexWait) refers to rt_cmsis.o(i.svcMutexWait) for svcMutexWait
    rt_cmsis.o(i.osPoolAlloc) refers to rt_cmsis.o(i.sysPoolAlloc) for sysPoolAlloc
    rt_cmsis.o(i.osPoolCAlloc) refers to rt_cmsis.o(i.rt_clr_box) for rt_clr_box
    rt_cmsis.o(i.osPoolCAlloc) refers to rt_cmsis.o(i.sysPoolAlloc) for sysPoolAlloc
    rt_cmsis.o(i.osPoolCreate) refers to rt_cmsis.o(i.svcPoolCreate) for svcPoolCreate
    rt_cmsis.o(i.osPoolCreate) refers to rt_cmsis.o(.data) for .data
    rt_cmsis.o(i.osPoolFree) refers to rt_cmsis.o(i.sysPoolFree) for sysPoolFree
    rt_cmsis.o(i.osSemaphoreCreate) refers to rt_cmsis.o(i.svcSemaphoreCreate) for svcSemaphoreCreate
    rt_cmsis.o(i.osSemaphoreCreate) refers to rt_cmsis.o(.data) for .data
    rt_cmsis.o(i.osSemaphoreDelete) refers to rt_cmsis.o(i.svcSemaphoreDelete) for svcSemaphoreDelete
    rt_cmsis.o(i.osSemaphoreRelease) refers to rt_cmsis.o(i.isrSemaphoreRelease) for isrSemaphoreRelease
    rt_cmsis.o(i.osSemaphoreRelease) refers to rt_cmsis.o(i.svcSemaphoreRelease) for svcSemaphoreRelease
    rt_cmsis.o(i.osSemaphoreWait) refers to rt_cmsis.o(i.svcSemaphoreWait) for svcSemaphoreWait
    rt_cmsis.o(i.osSignalClear) refers to rt_cmsis.o(i.svcSignalClear) for svcSignalClear
    rt_cmsis.o(i.osSignalSet) refers to rt_cmsis.o(i.isrSignalSet) for isrSignalSet
    rt_cmsis.o(i.osSignalSet) refers to rt_cmsis.o(i.svcSignalSet) for svcSignalSet
    rt_cmsis.o(i.osSignalWait) refers to rt_cmsis.o(i.svcSignalWait) for svcSignalWait
    rt_cmsis.o(i.osThreadCreate) refers to rt_cmsis.o(i.svcThreadCreate) for svcThreadCreate
    rt_cmsis.o(i.osThreadCreate) refers to rt_cmsis.o(.data) for .data
    rt_cmsis.o(i.osThreadExit) refers to rt_cmsis.o(i.svcThreadGetId) for svcThreadGetId
    rt_cmsis.o(i.osThreadExit) refers to rt_cmsis.o(i.svcThreadTerminate) for svcThreadTerminate
    rt_cmsis.o(i.osThreadGetId) refers to rt_cmsis.o(i.svcThreadGetId) for svcThreadGetId
    rt_cmsis.o(i.osThreadGetPriority) refers to rt_cmsis.o(i.svcThreadGetPriority) for svcThreadGetPriority
    rt_cmsis.o(i.osThreadSetPriority) refers to rt_cmsis.o(i.svcThreadSetPriority) for svcThreadSetPriority
    rt_cmsis.o(i.osThreadTerminate) refers to rt_cmsis.o(i.svcThreadTerminate) for svcThreadTerminate
    rt_cmsis.o(i.osThreadYield) refers to rt_cmsis.o(i.svcThreadYield) for svcThreadYield
    rt_cmsis.o(i.osTimerCall) refers to rt_cmsis.o(i.svcTimerCall) for svcTimerCall
    rt_cmsis.o(i.osTimerCreate) refers to rt_cmsis.o(i.svcTimerCreate) for svcTimerCreate
    rt_cmsis.o(i.osTimerCreate) refers to rt_cmsis.o(.data) for .data
    rt_cmsis.o(i.osTimerDelete) refers to rt_cmsis.o(i.svcTimerDelete) for svcTimerDelete
    rt_cmsis.o(i.osTimerStart) refers to rt_cmsis.o(i.svcTimerStart) for svcTimerStart
    rt_cmsis.o(i.osTimerStop) refers to rt_cmsis.o(i.svcTimerStop) for svcTimerStop
    rt_cmsis.o(i.osTimerThread) refers to rt_cmsis.o(i.osMessageGet) for osMessageGet
    rt_cmsis.o(i.osTimerThread) refers to rt_cmsis.o(i.osTimerCall) for osTimerCall
    rt_cmsis.o(i.osTimerThread) refers to rtx_conf_cm.o(.data) for osMessageQId_osTimerMessageQ
    rt_cmsis.o(i.os_resume) refers to rt_system.o(i.rt_resume) for rt_resume
    rt_cmsis.o(i.os_suspend) refers to rt_system.o(i.rt_suspend) for rt_suspend
    rt_cmsis.o(i.rt_ms2tick) refers to rtx_conf_cm.o(.constdata) for os_clockrate
    rt_cmsis.o(i.rt_timer_insert) refers to rt_cmsis.o(.data) for .data
    rt_cmsis.o(i.rt_timer_remove) refers to rt_cmsis.o(.data) for .data
    rt_cmsis.o(i.svcDelay) refers to rt_cmsis.o(i.rt_ms2tick) for rt_ms2tick
    rt_cmsis.o(i.svcDelay) refers to rt_time.o(i.rt_dly_wait) for rt_dly_wait
    rt_cmsis.o(i.svcKernelInitialize) refers to rt_memory.o(i.rt_init_mem) for rt_init_mem
    rt_cmsis.o(i.svcKernelInitialize) refers to rt_task.o(i.rt_sys_init) for rt_sys_init
    rt_cmsis.o(i.svcKernelInitialize) refers to rt_cmsis.o(i.svcMessageCreate) for svcMessageCreate
    rt_cmsis.o(i.svcKernelInitialize) refers to rt_cmsis.o(i.svcThreadCreate) for svcThreadCreate
    rt_cmsis.o(i.svcKernelInitialize) refers to rt_cmsis.o(.data) for .data
    rt_cmsis.o(i.svcKernelInitialize) refers to rtx_conf_cm.o(.bss) for os_stack_mem
    rt_cmsis.o(i.svcKernelInitialize) refers to rtx_conf_cm.o(.constdata) for os_stack_sz
    rt_cmsis.o(i.svcKernelInitialize) refers to rt_task.o(.data) for os_tsk
    rt_cmsis.o(i.svcKernelInitialize) refers to rtx_conf_cm.o(.constdata) for os_messageQ_def_osTimerMessageQ
    rt_cmsis.o(i.svcKernelInitialize) refers to rtx_conf_cm.o(.data) for osMessageQId_osTimerMessageQ
    rt_cmsis.o(i.svcKernelInitialize) refers to rtx_conf_cm.o(.constdata) for os_thread_def_osTimerThread
    rt_cmsis.o(i.svcKernelInitialize) refers to rtx_conf_cm.o(.data) for osThreadId_osTimerThread
    rt_cmsis.o(i.svcKernelRunning) refers to rt_cmsis.o(.data) for .data
    rt_cmsis.o(i.svcKernelStart) refers to rt_task.o(i.rt_tsk_prio) for rt_tsk_prio
    rt_cmsis.o(i.svcKernelStart) refers to rt_task.o(i.rt_sys_start) for rt_sys_start
    rt_cmsis.o(i.svcKernelStart) refers to rt_cmsis.o(.data) for .data
    rt_cmsis.o(i.svcKernelStart) refers to rt_task.o(.data) for os_tsk
    rt_cmsis.o(i.svcKernelSysTick) refers to rt_system.o(i.os_tick_val) for os_tick_val
    rt_cmsis.o(i.svcKernelSysTick) refers to rt_system.o(i.os_tick_ovf) for os_tick_ovf
    rt_cmsis.o(i.svcKernelSysTick) refers to rtx_conf_cm.o(.constdata) for os_trv
    rt_cmsis.o(i.svcKernelSysTick) refers to rt_time.o(.data) for os_time
    rt_cmsis.o(i.svcMailCreate) refers to rt_membox.o(i._init_box) for _init_box
    rt_cmsis.o(i.svcMailCreate) refers to rt_mailbox.o(i.rt_mbx_init) for rt_mbx_init
    rt_cmsis.o(i.svcMessageCreate) refers to rt_mailbox.o(i.rt_mbx_init) for rt_mbx_init
    rt_cmsis.o(i.svcMessageGet) refers to rt_cmsis.o(i.rt_ms2tick) for rt_ms2tick
    rt_cmsis.o(i.svcMessageGet) refers to rt_mailbox.o(i.rt_mbx_wait) for rt_mbx_wait
    rt_cmsis.o(i.svcMessagePut) refers to rt_cmsis.o(i.rt_ms2tick) for rt_ms2tick
    rt_cmsis.o(i.svcMessagePut) refers to rt_mailbox.o(i.rt_mbx_send) for rt_mbx_send
    rt_cmsis.o(i.svcMutexCreate) refers to rt_mutex.o(i.rt_mut_init) for rt_mut_init
    rt_cmsis.o(i.svcMutexDelete) refers to rt_cmsis.o(i.rt_id2obj) for rt_id2obj
    rt_cmsis.o(i.svcMutexDelete) refers to rt_mutex.o(i.rt_mut_delete) for rt_mut_delete
    rt_cmsis.o(i.svcMutexRelease) refers to rt_cmsis.o(i.rt_id2obj) for rt_id2obj
    rt_cmsis.o(i.svcMutexRelease) refers to rt_mutex.o(i.rt_mut_release) for rt_mut_release
    rt_cmsis.o(i.svcMutexWait) refers to rt_cmsis.o(i.rt_id2obj) for rt_id2obj
    rt_cmsis.o(i.svcMutexWait) refers to rt_cmsis.o(i.rt_ms2tick) for rt_ms2tick
    rt_cmsis.o(i.svcMutexWait) refers to rt_mutex.o(i.rt_mut_wait) for rt_mut_wait
    rt_cmsis.o(i.svcPoolCreate) refers to rt_membox.o(i._init_box) for _init_box
    rt_cmsis.o(i.svcSemaphoreCreate) refers to rt_semaphore.o(i.rt_sem_init) for rt_sem_init
    rt_cmsis.o(i.svcSemaphoreDelete) refers to rt_cmsis.o(i.rt_id2obj) for rt_id2obj
    rt_cmsis.o(i.svcSemaphoreDelete) refers to rt_semaphore.o(i.rt_sem_delete) for rt_sem_delete
    rt_cmsis.o(i.svcSemaphoreRelease) refers to rt_cmsis.o(i.rt_id2obj) for rt_id2obj
    rt_cmsis.o(i.svcSemaphoreRelease) refers to rt_semaphore.o(i.rt_sem_send) for rt_sem_send
    rt_cmsis.o(i.svcSemaphoreWait) refers to rt_cmsis.o(i.rt_id2obj) for rt_id2obj
    rt_cmsis.o(i.svcSemaphoreWait) refers to rt_cmsis.o(i.rt_ms2tick) for rt_ms2tick
    rt_cmsis.o(i.svcSemaphoreWait) refers to rt_semaphore.o(i.rt_sem_wait) for rt_sem_wait
    rt_cmsis.o(i.svcSignalClear) refers to rt_cmsis.o(i.rt_tid2ptcb) for rt_tid2ptcb
    rt_cmsis.o(i.svcSignalClear) refers to rt_event.o(i.rt_evt_clr) for rt_evt_clr
    rt_cmsis.o(i.svcSignalSet) refers to rt_cmsis.o(i.rt_tid2ptcb) for rt_tid2ptcb
    rt_cmsis.o(i.svcSignalSet) refers to rt_event.o(i.rt_evt_set) for rt_evt_set
    rt_cmsis.o(i.svcSignalWait) refers to rt_cmsis.o(i.rt_ms2tick) for rt_ms2tick
    rt_cmsis.o(i.svcSignalWait) refers to rt_event.o(i.rt_evt_wait) for rt_evt_wait
    rt_cmsis.o(i.svcSignalWait) refers to rt_task.o(.data) for os_tsk
    rt_cmsis.o(i.svcThreadCreate) refers to rt_memory.o(i.rt_alloc_mem) for rt_alloc_mem
    rt_cmsis.o(i.svcThreadCreate) refers to rt_task.o(i.rt_tsk_create) for rt_tsk_create
    rt_cmsis.o(i.svcThreadCreate) refers to rt_memory.o(i.rt_free_mem) for rt_free_mem
    rt_cmsis.o(i.svcThreadCreate) refers to rtx_conf_cm.o(.bss) for os_stack_mem
    rt_cmsis.o(i.svcThreadCreate) refers to rtx_conf_cm.o(.bss) for os_active_TCB
    rt_cmsis.o(i.svcThreadCreate) refers to rt_cmsis.o(i.osThreadExit) for osThreadExit
    rt_cmsis.o(i.svcThreadGetId) refers to rt_task.o(i.rt_tsk_self) for rt_tsk_self
    rt_cmsis.o(i.svcThreadGetId) refers to rtx_conf_cm.o(.bss) for os_active_TCB
    rt_cmsis.o(i.svcThreadGetPriority) refers to rt_cmsis.o(i.rt_tid2ptcb) for rt_tid2ptcb
    rt_cmsis.o(i.svcThreadSetPriority) refers to rt_cmsis.o(i.rt_tid2ptcb) for rt_tid2ptcb
    rt_cmsis.o(i.svcThreadSetPriority) refers to rt_task.o(i.rt_tsk_prio) for rt_tsk_prio
    rt_cmsis.o(i.svcThreadTerminate) refers to rt_cmsis.o(i.rt_tid2ptcb) for rt_tid2ptcb
    rt_cmsis.o(i.svcThreadTerminate) refers to rt_task.o(i.rt_tsk_delete) for rt_tsk_delete
    rt_cmsis.o(i.svcThreadTerminate) refers to rt_memory.o(i.rt_free_mem) for rt_free_mem
    rt_cmsis.o(i.svcThreadTerminate) refers to rtx_conf_cm.o(.bss) for os_stack_mem
    rt_cmsis.o(i.svcThreadYield) refers to rt_task.o(i.rt_tsk_pass) for rt_tsk_pass
    rt_cmsis.o(i.svcTimerCall) refers to rt_cmsis.o(i.rt_id2obj) for rt_id2obj
    rt_cmsis.o(i.svcTimerCreate) refers to rtx_conf_cm.o(.data) for osThreadId_osTimerThread
    rt_cmsis.o(i.svcTimerDelete) refers to rt_cmsis.o(i.rt_id2obj) for rt_id2obj
    rt_cmsis.o(i.svcTimerDelete) refers to rt_cmsis.o(i.rt_timer_remove) for rt_timer_remove
    rt_cmsis.o(i.svcTimerStart) refers to rt_cmsis.o(i.rt_id2obj) for rt_id2obj
    rt_cmsis.o(i.svcTimerStart) refers to lludivv7m.o(.text) for __aeabi_uldivmod
    rt_cmsis.o(i.svcTimerStart) refers to rt_cmsis.o(i.rt_timer_remove) for rt_timer_remove
    rt_cmsis.o(i.svcTimerStart) refers to rt_cmsis.o(i.rt_timer_insert) for rt_timer_insert
    rt_cmsis.o(i.svcTimerStart) refers to rtx_conf_cm.o(.constdata) for os_clockrate
    rt_cmsis.o(i.svcTimerStop) refers to rt_cmsis.o(i.rt_id2obj) for rt_id2obj
    rt_cmsis.o(i.svcTimerStop) refers to rt_cmsis.o(i.rt_timer_remove) for rt_timer_remove
    rt_cmsis.o(i.sysMailAlloc) refers to rt_membox.o(i.rt_alloc_box) for rt_alloc_box
    rt_cmsis.o(i.sysMailAlloc) refers to rt_list.o(i.rt_put_prio) for rt_put_prio
    rt_cmsis.o(i.sysMailAlloc) refers to rt_cmsis.o(i.rt_ms2tick) for rt_ms2tick
    rt_cmsis.o(i.sysMailAlloc) refers to rt_task.o(i.rt_block) for rt_block
    rt_cmsis.o(i.sysMailAlloc) refers to rt_task.o(.data) for os_tsk
    rt_cmsis.o(i.sysMailFree) refers to rt_membox.o(i.rt_free_box) for rt_free_box
    rt_cmsis.o(i.sysMailFree) refers to rt_list.o(i.rt_psq_enq) for rt_psq_enq
    rt_cmsis.o(i.sysMailFree) refers to rt_system.o(i.rt_psh_req) for rt_psh_req
    rt_cmsis.o(i.sysMailFree) refers to rt_membox.o(i.rt_alloc_box) for rt_alloc_box
    rt_cmsis.o(i.sysMailFree) refers to rt_list.o(i.rt_get_first) for rt_get_first
    rt_cmsis.o(i.sysMailFree) refers to hal_cm.o(i.rt_ret_val) for rt_ret_val
    rt_cmsis.o(i.sysMailFree) refers to rt_list.o(i.rt_rmv_dly) for rt_rmv_dly
    rt_cmsis.o(i.sysMailFree) refers to rt_task.o(i.rt_dispatch) for rt_dispatch
    rt_cmsis.o(i.sysPoolAlloc) refers to rt_membox.o(i.rt_alloc_box) for rt_alloc_box
    rt_cmsis.o(i.sysPoolFree) refers to rt_membox.o(i.rt_free_box) for rt_free_box
    rt_cmsis.o(i.sysTimerTick) refers to rt_cmsis.o(i.isrMessagePut) for isrMessagePut
    rt_cmsis.o(i.sysTimerTick) refers to rtx_conf_cm.o(.text) for os_error
    rt_cmsis.o(i.sysTimerTick) refers to rt_cmsis.o(i.rt_timer_insert) for rt_timer_insert
    rt_cmsis.o(i.sysTimerTick) refers to rt_cmsis.o(.data) for .data
    rt_cmsis.o(i.sysTimerTick) refers to rtx_conf_cm.o(.data) for osMessageQId_osTimerMessageQ
    rt_cmsis.o(i.sysUserTimerUpdate) refers to rt_cmsis.o(i.sysTimerTick) for sysTimerTick
    rt_cmsis.o(i.sysUserTimerUpdate) refers to rt_cmsis.o(.data) for .data
    rt_cmsis.o(i.sysUserTimerWakeupTime) refers to rt_cmsis.o(.data) for .data
    rt_task.o(i.rt_block) refers to rt_list.o(i.rt_put_dly) for rt_put_dly
    rt_task.o(i.rt_block) refers to rt_list.o(i.rt_get_first) for rt_get_first
    rt_task.o(i.rt_block) refers to rt_task.o(i.rt_switch_req) for rt_switch_req
    rt_task.o(i.rt_block) refers to rt_task.o(.data) for .data
    rt_task.o(i.rt_block) refers to rt_list.o(.bss) for os_rdy
    rt_task.o(i.rt_dispatch) refers to rt_list.o(i.rt_put_rdy_first) for rt_put_rdy_first
    rt_task.o(i.rt_dispatch) refers to rt_task.o(i.rt_switch_req) for rt_switch_req
    rt_task.o(i.rt_dispatch) refers to rt_list.o(i.rt_get_first) for rt_get_first
    rt_task.o(i.rt_dispatch) refers to rt_list.o(i.rt_put_prio) for rt_put_prio
    rt_task.o(i.rt_dispatch) refers to rt_task.o(.data) for .data
    rt_task.o(i.rt_dispatch) refers to rt_list.o(.bss) for os_rdy
    rt_task.o(i.rt_init_context) refers to rt_membox.o(i.rt_alloc_box) for rt_alloc_box
    rt_task.o(i.rt_init_context) refers to hal_cm.o(i.rt_init_stack) for rt_init_stack
    rt_task.o(i.rt_init_context) refers to rtx_conf_cm.o(.bss) for mp_stk
    rt_task.o(i.rt_switch_req) refers to hal_cm.o(i.dbg_task_switch) for dbg_task_switch
    rt_task.o(i.rt_switch_req) refers to rt_task.o(.data) for .data
    rt_task.o(i.rt_switch_req) refers to hal_cm.o(.data) for dbg_msg
    rt_task.o(i.rt_sys_init) refers to hal_cm.o(i.dbg_init) for dbg_init
    rt_task.o(i.rt_sys_init) refers to rt_membox.o(i._init_box) for _init_box
    rt_task.o(i.rt_sys_init) refers to rt_task.o(i.rt_init_context) for rt_init_context
    rt_task.o(i.rt_sys_init) refers to rt_robin.o(i.rt_init_robin) for rt_init_robin
    rt_task.o(i.rt_sys_init) refers to rtx_conf_cm.o(.bss) for os_active_TCB
    rt_task.o(i.rt_sys_init) refers to rtx_conf_cm.o(.constdata) for os_maxtaskrun
    rt_task.o(i.rt_sys_init) refers to rtx_conf_cm.o(.constdata) for mp_tcb_size
    rt_task.o(i.rt_sys_init) refers to rtx_conf_cm.o(.bss) for mp_tcb
    rt_task.o(i.rt_sys_init) refers to rtx_conf_cm.o(.constdata) for os_stackinfo
    rt_task.o(i.rt_sys_init) refers to rtx_conf_cm.o(.constdata) for mp_stk_size
    rt_task.o(i.rt_sys_init) refers to rtx_conf_cm.o(.bss) for mp_stk
    rt_task.o(i.rt_sys_init) refers to rtx_conf_cm.o(.constdata) for mp_tmr_size
    rt_task.o(i.rt_sys_init) refers to rtx_conf_cm.o(.data) for m_tmr
    rt_task.o(i.rt_sys_init) refers to rt_task.o(.bss) for .bss
    rt_task.o(i.rt_sys_init) refers to rtx_conf_cm.o(.text) for os_idle_demon
    rt_task.o(i.rt_sys_init) refers to rt_list.o(.bss) for os_rdy
    rt_task.o(i.rt_sys_init) refers to rt_task.o(.data) for .data
    rt_task.o(i.rt_sys_init) refers to rtx_conf_cm.o(.bss) for os_fifo
    rt_task.o(i.rt_sys_init) refers to rtx_conf_cm.o(.constdata) for os_fifo_size
    rt_task.o(i.rt_sys_start) refers to rt_system.o(i.os_tick_init) for os_tick_init
    rt_task.o(i.rt_sys_start) refers to rt_system.o(.data) for os_tick_irqn
    rt_task.o(i.rt_tsk_create) refers to rt_membox.o(i.rt_alloc_box) for rt_alloc_box
    rt_task.o(i.rt_tsk_create) refers to rt_task.o(i.rt_init_context) for rt_init_context
    rt_task.o(i.rt_tsk_create) refers to hal_cm.o(i.dbg_task_notify) for dbg_task_notify
    rt_task.o(i.rt_tsk_create) refers to rt_task.o(i.rt_dispatch) for rt_dispatch
    rt_task.o(i.rt_tsk_create) refers to rtx_conf_cm.o(.bss) for mp_tcb
    rt_task.o(i.rt_tsk_create) refers to rtx_conf_cm.o(.bss) for os_active_TCB
    rt_task.o(i.rt_tsk_create) refers to rtx_conf_cm.o(.constdata) for os_maxtaskrun
    rt_task.o(i.rt_tsk_create) refers to hal_cm.o(.data) for dbg_msg
    rt_task.o(i.rt_tsk_delete) refers to hal_cm4.o(.emb_text) for rt_get_PSP
    rt_task.o(i.rt_tsk_delete) refers to rt_system.o(i.rt_stk_check) for rt_stk_check
    rt_task.o(i.rt_tsk_delete) refers to rt_list.o(i.rt_get_first) for rt_get_first
    rt_task.o(i.rt_tsk_delete) refers to hal_cm.o(i.rt_ret_val) for rt_ret_val
    rt_task.o(i.rt_tsk_delete) refers to rt_list.o(i.rt_rmv_dly) for rt_rmv_dly
    rt_task.o(i.rt_tsk_delete) refers to rt_list.o(i.rt_put_prio) for rt_put_prio
    rt_task.o(i.rt_tsk_delete) refers to rt_membox.o(i.rt_free_box) for rt_free_box
    rt_task.o(i.rt_tsk_delete) refers to hal_cm.o(i.dbg_task_notify) for dbg_task_notify
    rt_task.o(i.rt_tsk_delete) refers to rt_list.o(i.rt_rmv_list) for rt_rmv_list
    rt_task.o(i.rt_tsk_delete) refers to rt_task.o(i.rt_dispatch) for rt_dispatch
    rt_task.o(i.rt_tsk_delete) refers to hal_cm.o(.data) for dbg_msg
    rt_task.o(i.rt_tsk_delete) refers to rtx_conf_cm.o(.bss) for os_active_TCB
    rt_task.o(i.rt_tsk_delete) refers to rt_task.o(.data) for .data
    rt_task.o(i.rt_tsk_delete) refers to rt_list.o(.bss) for os_rdy
    rt_task.o(i.rt_tsk_delete) refers to rtx_conf_cm.o(.bss) for mp_stk
    rt_task.o(i.rt_tsk_delete) refers to rtx_conf_cm.o(.bss) for mp_tcb
    rt_task.o(i.rt_tsk_delete) refers to rtx_conf_cm.o(.constdata) for os_maxtaskrun
    rt_task.o(i.rt_tsk_pass) refers to rt_list.o(i.rt_get_same_rdy_prio) for rt_get_same_rdy_prio
    rt_task.o(i.rt_tsk_pass) refers to rt_list.o(i.rt_put_prio) for rt_put_prio
    rt_task.o(i.rt_tsk_pass) refers to rt_task.o(i.rt_switch_req) for rt_switch_req
    rt_task.o(i.rt_tsk_pass) refers to rt_task.o(.data) for .data
    rt_task.o(i.rt_tsk_pass) refers to rt_list.o(.bss) for os_rdy
    rt_task.o(i.rt_tsk_prio) refers to rt_list.o(i.rt_put_prio) for rt_put_prio
    rt_task.o(i.rt_tsk_prio) refers to rt_list.o(i.rt_resort_prio) for rt_resort_prio
    rt_task.o(i.rt_tsk_prio) refers to rt_list.o(i.rt_get_first) for rt_get_first
    rt_task.o(i.rt_tsk_prio) refers to rt_task.o(i.rt_dispatch) for rt_dispatch
    rt_task.o(i.rt_tsk_prio) refers to rt_task.o(.data) for .data
    rt_task.o(i.rt_tsk_prio) refers to rtx_conf_cm.o(.constdata) for os_maxtaskrun
    rt_task.o(i.rt_tsk_prio) refers to rtx_conf_cm.o(.bss) for os_active_TCB
    rt_task.o(i.rt_tsk_prio) refers to rt_list.o(.bss) for os_rdy
    rt_task.o(i.rt_tsk_self) refers to rt_task.o(.data) for .data
    rt_mutex.o(i.rt_mut_delete) refers to rt_list.o(i.rt_resort_prio) for rt_resort_prio
    rt_mutex.o(i.rt_mut_delete) refers to rt_list.o(i.rt_get_first) for rt_get_first
    rt_mutex.o(i.rt_mut_delete) refers to hal_cm.o(i.rt_ret_val) for rt_ret_val
    rt_mutex.o(i.rt_mut_delete) refers to rt_list.o(i.rt_rmv_dly) for rt_rmv_dly
    rt_mutex.o(i.rt_mut_delete) refers to rt_list.o(i.rt_put_prio) for rt_put_prio
    rt_mutex.o(i.rt_mut_delete) refers to rt_task.o(i.rt_dispatch) for rt_dispatch
    rt_mutex.o(i.rt_mut_delete) refers to rt_task.o(.data) for os_tsk
    rt_mutex.o(i.rt_mut_delete) refers to rt_list.o(.bss) for os_rdy
    rt_mutex.o(i.rt_mut_release) refers to rt_list.o(i.rt_get_first) for rt_get_first
    rt_mutex.o(i.rt_mut_release) refers to hal_cm.o(i.rt_ret_val) for rt_ret_val
    rt_mutex.o(i.rt_mut_release) refers to rt_list.o(i.rt_rmv_dly) for rt_rmv_dly
    rt_mutex.o(i.rt_mut_release) refers to rt_list.o(i.rt_put_prio) for rt_put_prio
    rt_mutex.o(i.rt_mut_release) refers to rt_task.o(i.rt_dispatch) for rt_dispatch
    rt_mutex.o(i.rt_mut_release) refers to rt_task.o(.data) for os_tsk
    rt_mutex.o(i.rt_mut_release) refers to rt_list.o(.bss) for os_rdy
    rt_mutex.o(i.rt_mut_wait) refers to rt_list.o(i.rt_resort_prio) for rt_resort_prio
    rt_mutex.o(i.rt_mut_wait) refers to rt_list.o(i.rt_put_prio) for rt_put_prio
    rt_mutex.o(i.rt_mut_wait) refers to rt_task.o(i.rt_block) for rt_block
    rt_mutex.o(i.rt_mut_wait) refers to rt_task.o(.data) for os_tsk
    charmap.o(i.GrMapISO8859_10_Unicode) refers to charmap.o(.constdata) for .constdata
    charmap.o(i.GrMapISO8859_13_Unicode) refers to charmap.o(.constdata) for .constdata
    charmap.o(i.GrMapISO8859_14_Unicode) refers to charmap.o(.constdata) for .constdata
    charmap.o(i.GrMapISO8859_16_Unicode) refers to charmap.o(.constdata) for .constdata
    charmap.o(i.GrMapISO8859_2_Unicode) refers to charmap.o(.constdata) for .constdata
    charmap.o(i.GrMapISO8859_3_Unicode) refers to charmap.o(.constdata) for .constdata
    charmap.o(i.GrMapISO8859_4_Unicode) refers to charmap.o(.constdata) for .constdata
    charmap.o(i.GrMapISO8859_7_Unicode) refers to charmap.o(.constdata) for .constdata
    charmap.o(i.GrMapUTF16BE_Unicode) refers to charmap.o(i.GrMapUTF16_Unicode) for GrMapUTF16_Unicode
    charmap.o(i.GrMapUTF16LE_Unicode) refers to charmap.o(i.GrMapUTF16_Unicode) for GrMapUTF16_Unicode
    charmap.o(i.GrMapWIN1250_Unicode) refers to charmap.o(.constdata) for .constdata
    charmap.o(i.GrMapWIN1251_Unicode) refers to charmap.o(.constdata) for .constdata
    charmap.o(i.GrMapWIN1252_Unicode) refers to charmap.o(.constdata) for .constdata
    charmap.o(i.GrMapWIN1253_Unicode) refers to charmap.o(.constdata) for .constdata
    charmap.o(i.GrMapWIN1254_Unicode) refers to charmap.o(.constdata) for .constdata
    rt_system.o(i.os_tick_init) refers to rtx_conf_cm.o(.constdata) for os_trv
    rt_system.o(i.os_tick_val) refers to rtx_conf_cm.o(.constdata) for os_trv
    rt_system.o(i.rt_pop_req) refers to rt_list.o(i.rt_put_rdy_first) for rt_put_rdy_first
    rt_system.o(i.rt_pop_req) refers to rt_semaphore.o(i.rt_sem_psh) for rt_sem_psh
    rt_system.o(i.rt_pop_req) refers to rt_list.o(i.rt_get_first) for rt_get_first
    rt_system.o(i.rt_pop_req) refers to rt_task.o(i.rt_switch_req) for rt_switch_req
    rt_system.o(i.rt_pop_req) refers to rt_event.o(i.rt_evt_psh) for rt_evt_psh
    rt_system.o(i.rt_pop_req) refers to rt_mailbox.o(i.rt_mbx_psh) for rt_mbx_psh
    rt_system.o(i.rt_pop_req) refers to rt_task.o(.data) for os_tsk
    rt_system.o(i.rt_pop_req) refers to rtx_conf_cm.o(.bss) for os_fifo
    rt_system.o(i.rt_pop_req) refers to rt_list.o(.bss) for os_rdy
    rt_system.o(i.rt_psh_req) refers to rt_system.o(.data) for .data
    rt_system.o(i.rt_resume) refers to rt_list.o(i.rt_put_rdy_first) for rt_put_rdy_first
    rt_system.o(i.rt_resume) refers to rt_list.o(i.rt_dec_dly) for rt_dec_dly
    rt_system.o(i.rt_resume) refers to rt_cmsis.o(i.sysUserTimerUpdate) for sysUserTimerUpdate
    rt_system.o(i.rt_resume) refers to rt_list.o(i.rt_get_first) for rt_get_first
    rt_system.o(i.rt_resume) refers to rt_task.o(i.rt_switch_req) for rt_switch_req
    rt_system.o(i.rt_resume) refers to rt_system.o(i.rt_tsk_unlock) for rt_tsk_unlock
    rt_system.o(i.rt_resume) refers to rt_task.o(.data) for os_tsk
    rt_system.o(i.rt_resume) refers to rt_robin.o(.data) for os_robin
    rt_system.o(i.rt_resume) refers to rt_list.o(.bss) for os_dly
    rt_system.o(i.rt_resume) refers to rt_time.o(.data) for os_time
    rt_system.o(i.rt_stk_check) refers to rtx_conf_cm.o(.text) for os_error
    rt_system.o(i.rt_stk_check) refers to rt_task.o(.data) for os_tsk
    rt_system.o(i.rt_suspend) refers to rt_system.o(i.rt_tsk_lock) for rt_tsk_lock
    rt_system.o(i.rt_suspend) refers to rt_cmsis.o(i.sysUserTimerWakeupTime) for sysUserTimerWakeupTime
    rt_system.o(i.rt_suspend) refers to rt_list.o(.bss) for os_dly
    rt_system.o(i.rt_systick) refers to rt_list.o(i.rt_put_rdy_first) for rt_put_rdy_first
    rt_system.o(i.rt_systick) refers to rt_robin.o(i.rt_chk_robin) for rt_chk_robin
    rt_system.o(i.rt_systick) refers to rt_list.o(i.rt_dec_dly) for rt_dec_dly
    rt_system.o(i.rt_systick) refers to rt_cmsis.o(i.sysTimerTick) for sysTimerTick
    rt_system.o(i.rt_systick) refers to rt_list.o(i.rt_get_first) for rt_get_first
    rt_system.o(i.rt_systick) refers to rt_task.o(i.rt_switch_req) for rt_switch_req
    rt_system.o(i.rt_systick) refers to rt_task.o(.data) for os_tsk
    rt_system.o(i.rt_systick) refers to rt_time.o(.data) for os_time
    rt_system.o(i.rt_systick) refers to rt_list.o(.bss) for os_rdy
    rt_system.o(i.rt_tsk_lock) refers to rt_system.o(.data) for .data
    rt_system.o(i.rt_tsk_unlock) refers to rt_system.o(.data) for .data
    rt_event.o(i.isr_evt_set) refers to rt_list.o(i.rt_psq_enq) for rt_psq_enq
    rt_event.o(i.isr_evt_set) refers to rt_system.o(i.rt_psh_req) for rt_psh_req
    rt_event.o(i.isr_evt_set) refers to rtx_conf_cm.o(.bss) for os_active_TCB
    rt_event.o(i.rt_evt_clr) refers to rtx_conf_cm.o(.bss) for os_active_TCB
    rt_event.o(i.rt_evt_get) refers to rt_task.o(.data) for os_tsk
    rt_event.o(i.rt_evt_psh) refers to rt_list.o(i.rt_rmv_dly) for rt_rmv_dly
    rt_event.o(i.rt_evt_psh) refers to hal_cm.o(i.rt_ret_val2) for rt_ret_val2
    rt_event.o(i.rt_evt_psh) refers to rt_list.o(i.rt_put_prio) for rt_put_prio
    rt_event.o(i.rt_evt_psh) refers to rt_list.o(.bss) for os_rdy
    rt_event.o(i.rt_evt_set) refers to rt_list.o(i.rt_rmv_dly) for rt_rmv_dly
    rt_event.o(i.rt_evt_set) refers to hal_cm.o(i.rt_ret_val2) for rt_ret_val2
    rt_event.o(i.rt_evt_set) refers to rt_task.o(i.rt_dispatch) for rt_dispatch
    rt_event.o(i.rt_evt_set) refers to rtx_conf_cm.o(.bss) for os_active_TCB
    rt_event.o(i.rt_evt_wait) refers to rt_task.o(i.rt_block) for rt_block
    rt_event.o(i.rt_evt_wait) refers to rt_task.o(.data) for os_tsk
    rt_list.o(i.rt_dec_dly) refers to rt_list.o(i.rt_put_prio) for rt_put_prio
    rt_list.o(i.rt_dec_dly) refers to rt_list.o(.bss) for .bss
    rt_list.o(i.rt_dec_dly) refers to rt_time.o(.data) for os_time
    rt_list.o(i.rt_get_same_rdy_prio) refers to rt_list.o(.bss) for .bss
    rt_list.o(i.rt_get_same_rdy_prio) refers to rt_task.o(.data) for os_tsk
    rt_list.o(i.rt_psq_enq) refers to rtx_conf_cm.o(.text) for os_error
    rt_list.o(i.rt_psq_enq) refers to rtx_conf_cm.o(.bss) for os_fifo
    rt_list.o(i.rt_put_dly) refers to rt_list.o(.bss) for .bss
    rt_list.o(i.rt_put_rdy_first) refers to rt_list.o(.bss) for .bss
    rt_list.o(i.rt_resort_prio) refers to rt_list.o(i.rt_rmv_list) for rt_rmv_list
    rt_list.o(i.rt_resort_prio) refers to rt_list.o(i.rt_put_prio) for rt_put_prio
    rt_list.o(i.rt_resort_prio) refers to rt_list.o(.bss) for .bss
    rt_list.o(i.rt_rmv_list) refers to rt_list.o(.bss) for .bss
    rt_mailbox.o(i.isr_mbx_receive) refers to rt_list.o(i.rt_psq_enq) for rt_psq_enq
    rt_mailbox.o(i.isr_mbx_receive) refers to rt_system.o(i.rt_psh_req) for rt_psh_req
    rt_mailbox.o(i.isr_mbx_send) refers to rt_list.o(i.rt_psq_enq) for rt_psq_enq
    rt_mailbox.o(i.isr_mbx_send) refers to rt_system.o(i.rt_psh_req) for rt_psh_req
    rt_mailbox.o(i.rt_mbx_psh) refers to rt_membox.o(i.rt_alloc_box) for rt_alloc_box
    rt_mailbox.o(i.rt_mbx_psh) refers to rt_list.o(i.rt_get_first) for rt_get_first
    rt_mailbox.o(i.rt_mbx_psh) refers to hal_cm.o(i.rt_ret_val) for rt_ret_val
    rt_mailbox.o(i.rt_mbx_psh) refers to rt_list.o(i.rt_rmv_dly) for rt_rmv_dly
    rt_mailbox.o(i.rt_mbx_psh) refers to rt_list.o(i.rt_put_prio) for rt_put_prio
    rt_mailbox.o(i.rt_mbx_psh) refers to hal_cm.o(i.rt_ret_val2) for rt_ret_val2
    rt_mailbox.o(i.rt_mbx_psh) refers to rtx_conf_cm.o(.text) for os_error
    rt_mailbox.o(i.rt_mbx_psh) refers to rt_list.o(.bss) for os_rdy
    rt_mailbox.o(i.rt_mbx_send) refers to rt_list.o(i.rt_put_prio) for rt_put_prio
    rt_mailbox.o(i.rt_mbx_send) refers to rt_list.o(i.rt_get_first) for rt_get_first
    rt_mailbox.o(i.rt_mbx_send) refers to hal_cm.o(i.rt_ret_val2) for rt_ret_val2
    rt_mailbox.o(i.rt_mbx_send) refers to rt_list.o(i.rt_rmv_dly) for rt_rmv_dly
    rt_mailbox.o(i.rt_mbx_send) refers to rt_task.o(i.rt_dispatch) for rt_dispatch
    rt_mailbox.o(i.rt_mbx_send) refers to rt_task.o(i.rt_block) for rt_block
    rt_mailbox.o(i.rt_mbx_send) refers to rt_task.o(.data) for os_tsk
    rt_mailbox.o(i.rt_mbx_wait) refers to rt_list.o(i.rt_get_first) for rt_get_first
    rt_mailbox.o(i.rt_mbx_wait) refers to hal_cm.o(i.rt_ret_val) for rt_ret_val
    rt_mailbox.o(i.rt_mbx_wait) refers to rt_list.o(i.rt_rmv_dly) for rt_rmv_dly
    rt_mailbox.o(i.rt_mbx_wait) refers to rt_task.o(i.rt_dispatch) for rt_dispatch
    rt_mailbox.o(i.rt_mbx_wait) refers to rt_list.o(i.rt_put_prio) for rt_put_prio
    rt_mailbox.o(i.rt_mbx_wait) refers to rt_task.o(i.rt_block) for rt_block
    rt_mailbox.o(i.rt_mbx_wait) refers to rt_task.o(.data) for os_tsk
    rt_semaphore.o(i.isr_sem_send) refers to rt_list.o(i.rt_psq_enq) for rt_psq_enq
    rt_semaphore.o(i.isr_sem_send) refers to rt_system.o(i.rt_psh_req) for rt_psh_req
    rt_semaphore.o(i.rt_sem_delete) refers to rt_list.o(i.rt_get_first) for rt_get_first
    rt_semaphore.o(i.rt_sem_delete) refers to hal_cm.o(i.rt_ret_val) for rt_ret_val
    rt_semaphore.o(i.rt_sem_delete) refers to rt_list.o(i.rt_rmv_dly) for rt_rmv_dly
    rt_semaphore.o(i.rt_sem_delete) refers to rt_list.o(i.rt_put_prio) for rt_put_prio
    rt_semaphore.o(i.rt_sem_delete) refers to rt_task.o(i.rt_dispatch) for rt_dispatch
    rt_semaphore.o(i.rt_sem_delete) refers to rt_list.o(.bss) for os_rdy
    rt_semaphore.o(i.rt_sem_delete) refers to rt_task.o(.data) for os_tsk
    rt_semaphore.o(i.rt_sem_psh) refers to rt_list.o(i.rt_get_first) for rt_get_first
    rt_semaphore.o(i.rt_sem_psh) refers to rt_list.o(i.rt_rmv_dly) for rt_rmv_dly
    rt_semaphore.o(i.rt_sem_psh) refers to hal_cm.o(i.rt_ret_val) for rt_ret_val
    rt_semaphore.o(i.rt_sem_psh) refers to rt_list.o(i.rt_put_prio) for rt_put_prio
    rt_semaphore.o(i.rt_sem_psh) refers to rt_list.o(.bss) for os_rdy
    rt_semaphore.o(i.rt_sem_send) refers to rt_list.o(i.rt_get_first) for rt_get_first
    rt_semaphore.o(i.rt_sem_send) refers to hal_cm.o(i.rt_ret_val) for rt_ret_val
    rt_semaphore.o(i.rt_sem_send) refers to rt_list.o(i.rt_rmv_dly) for rt_rmv_dly
    rt_semaphore.o(i.rt_sem_send) refers to rt_task.o(i.rt_dispatch) for rt_dispatch
    rt_semaphore.o(i.rt_sem_wait) refers to rt_list.o(i.rt_put_prio) for rt_put_prio
    rt_semaphore.o(i.rt_sem_wait) refers to rt_task.o(i.rt_block) for rt_block
    rt_semaphore.o(i.rt_sem_wait) refers to rt_task.o(.data) for os_tsk
    rt_time.o(i.rt_dly_wait) refers to rt_task.o(i.rt_block) for rt_block
    rt_time.o(i.rt_itv_set) refers to rt_task.o(.data) for os_tsk
    rt_time.o(i.rt_itv_set) refers to rt_time.o(.data) for .data
    rt_time.o(i.rt_itv_wait) refers to rt_task.o(i.rt_block) for rt_block
    rt_time.o(i.rt_itv_wait) refers to rt_task.o(.data) for os_tsk
    rt_time.o(i.rt_itv_wait) refers to rt_time.o(.data) for .data
    rt_time.o(i.rt_time_get) refers to rt_time.o(.data) for .data
    rt_robin.o(i.rt_chk_robin) refers to rt_list.o(i.rt_get_first) for rt_get_first
    rt_robin.o(i.rt_chk_robin) refers to rt_list.o(i.rt_put_prio) for rt_put_prio
    rt_robin.o(i.rt_chk_robin) refers to rt_robin.o(.data) for .data
    rt_robin.o(i.rt_chk_robin) refers to rt_list.o(.bss) for os_rdy
    rt_robin.o(i.rt_chk_robin) refers to rt_time.o(.data) for os_time
    rt_robin.o(i.rt_init_robin) refers to rt_robin.o(.data) for .data
    rt_robin.o(i.rt_init_robin) refers to rtx_conf_cm.o(.constdata) for os_rrobin
    rt_membox.o(i._calloc_box) refers to hal_cm4.o(.emb_text) for _alloc_box
    hal_cm.o(i.dbg_init) refers to hal_cm.o(.data) for .data
    hal_cm.o(i.rt_init_stack) refers to rtx_conf_cm.o(.constdata) for os_stackinfo
    hal_cm.o(i.rt_ret_val) refers to hal_cm.o(i.rt_ret_regs) for rt_ret_regs
    hal_cm.o(i.rt_ret_val2) refers to hal_cm.o(i.rt_ret_regs) for rt_ret_regs
    hal_cm4.o(.emb_text) refers to rtx_conf_cm.o(.constdata) for os_flags
    hal_cm4.o(.emb_text) refers to rt_membox.o(i.rt_alloc_box) for rt_alloc_box
    hal_cm4.o(.emb_text) refers to rt_membox.o(i.rt_free_box) for rt_free_box
    hal_cm4.o(.emb_text) refers to rt_system.o(i.rt_stk_check) for rt_stk_check
    hal_cm4.o(.emb_text) refers to rt_task.o(.data) for os_tsk
    hal_cm4.o(.emb_text) refers to svc_table.o(SVC_TABLE) for SVC_Count
    hal_cm4.o(.emb_text) refers to rt_system.o(i.rt_pop_req) for rt_pop_req
    hal_cm4.o(.emb_text) refers to rt_system.o(i.rt_systick) for rt_systick
    hal_cm4.o(.emb_text) refers to rt_system.o(i.os_tick_irqack) for os_tick_irqack
    libspace.o(.text) refers to libspace.o(.bss) for __libspace_start
    llsdiv.o(.text) refers to lludivv7m.o(.text) for __aeabi_uldivmod
    exit.o(.text) refers to rtexit.o(.ARM.Collect$$rtexit$$00000000) for __rt_exit
    __main.o(!!!main) refers to __rtentry.o(.ARM.Collect$$rtentry$$00000000) for __rt_entry
    d2f.o(x$fpl$d2f) refers (Special) to usenofp.o(x$fpl$usenofp) for __I$use$fp
    d2f.o(x$fpl$d2f) refers to fretinf.o(x$fpl$fretinf) for __fpl_fretinf
    d2f.o(x$fpl$d2f) refers to dnaninf.o(x$fpl$dnaninf) for __fpl_dnaninf
    daddsub_clz.o(x$fpl$dadd) refers (Special) to usenofp.o(x$fpl$usenofp) for __I$use$fp
    daddsub_clz.o(x$fpl$dadd) refers to daddsub_clz.o(x$fpl$dsub) for _dsub1
    daddsub_clz.o(x$fpl$dadd) refers to dretinf.o(x$fpl$dretinf) for __fpl_dretinf
    daddsub_clz.o(x$fpl$dadd) refers to dnaninf.o(x$fpl$dnaninf) for __fpl_dnaninf
    daddsub_clz.o(x$fpl$drsb) refers (Special) to usenofp.o(x$fpl$usenofp) for __I$use$fp
    daddsub_clz.o(x$fpl$drsb) refers to daddsub_clz.o(x$fpl$dadd) for _dadd1
    daddsub_clz.o(x$fpl$drsb) refers to daddsub_clz.o(x$fpl$dsub) for _dsub1
    daddsub_clz.o(x$fpl$dsub) refers (Special) to usenofp.o(x$fpl$usenofp) for __I$use$fp
    daddsub_clz.o(x$fpl$dsub) refers to daddsub_clz.o(x$fpl$dadd) for _dadd1
    daddsub_clz.o(x$fpl$dsub) refers to dnaninf.o(x$fpl$dnaninf) for __fpl_dnaninf
    ddiv.o(x$fpl$drdiv) refers (Special) to usenofp.o(x$fpl$usenofp) for __I$use$fp
    ddiv.o(x$fpl$drdiv) refers to ddiv.o(x$fpl$ddiv) for ddiv_entry
    ddiv.o(x$fpl$ddiv) refers (Special) to usenofp.o(x$fpl$usenofp) for __I$use$fp
    ddiv.o(x$fpl$ddiv) refers to dretinf.o(x$fpl$dretinf) for __fpl_dretinf
    ddiv.o(x$fpl$ddiv) refers to dnaninf.o(x$fpl$dnaninf) for __fpl_dnaninf
    dfixu.o(x$fpl$dfixu) refers (Special) to usenofp.o(x$fpl$usenofp) for __I$use$fp
    dfixu.o(x$fpl$dfixu) refers to dnaninf.o(x$fpl$dnaninf) for __fpl_dnaninf
    dfixu.o(x$fpl$dfixur) refers (Special) to usenofp.o(x$fpl$usenofp) for __I$use$fp
    dfixu.o(x$fpl$dfixur) refers to dnaninf.o(x$fpl$dnaninf) for __fpl_dnaninf
    dflt_clz.o(x$fpl$dfltu) refers (Special) to usenofp.o(x$fpl$usenofp) for __I$use$fp
    dflt_clz.o(x$fpl$dflt) refers (Special) to usenofp.o(x$fpl$usenofp) for __I$use$fp
    dflt_clz.o(x$fpl$dfltn) refers (Special) to usenofp.o(x$fpl$usenofp) for __I$use$fp
    dmul.o(x$fpl$dmul) refers (Special) to usenofp.o(x$fpl$usenofp) for __I$use$fp
    dmul.o(x$fpl$dmul) refers to dretinf.o(x$fpl$dretinf) for __fpl_dretinf
    dmul.o(x$fpl$dmul) refers to dnaninf.o(x$fpl$dnaninf) for __fpl_dnaninf
    f2d.o(x$fpl$f2d) refers (Special) to usenofp.o(x$fpl$usenofp) for __I$use$fp
    f2d.o(x$fpl$f2d) refers to fnaninf.o(x$fpl$fnaninf) for __fpl_fnaninf
    f2d.o(x$fpl$f2d) refers to dretinf.o(x$fpl$dretinf) for __fpl_dretinf
    ffixll.o(x$fpl$llsfromf) refers (Special) to usenofp.o(x$fpl$usenofp) for __I$use$fp
    ffixll.o(x$fpl$llsfromf) refers to fnaninf.o(x$fpl$fnaninf) for __fpl_fnaninf
    ffixll.o(x$fpl$llsfromfr) refers (Special) to usenofp.o(x$fpl$usenofp) for __I$use$fp
    ffixll.o(x$fpl$llsfromfr) refers to fnaninf.o(x$fpl$fnaninf) for __fpl_fnaninf
    sin.o(i.__hardfp_sin) refers (Special) to usenofp.o(x$fpl$usenofp) for __I$use$fp
    sin.o(i.__hardfp_sin) refers to _rserrno.o(.text) for __set_errno
    sin.o(i.__hardfp_sin) refers to dunder.o(i.__mathlib_dbl_invalid) for __mathlib_dbl_invalid
    sin.o(i.__hardfp_sin) refers to dunder.o(i.__mathlib_dbl_infnan) for __mathlib_dbl_infnan
    sin.o(i.__hardfp_sin) refers to rred.o(i.__ieee754_rem_pio2) for __ieee754_rem_pio2
    sin.o(i.__hardfp_sin) refers to cos_i.o(i.__kernel_cos) for __kernel_cos
    sin.o(i.__hardfp_sin) refers to basic.o(x$fpl$basic) for __aeabi_dneg
    sin.o(i.__hardfp_sin) refers to sin_i.o(i.__kernel_sin) for __kernel_sin
    sin.o(i.__softfp_sin) refers (Special) to usenofp.o(x$fpl$usenofp) for __I$use$fp
    sin.o(i.__softfp_sin) refers to sin.o(i.__hardfp_sin) for __hardfp_sin
    sin.o(i.sin) refers (Special) to usenofp.o(x$fpl$usenofp) for __I$use$fp
    sin.o(i.sin) refers to sin.o(i.__hardfp_sin) for __hardfp_sin
    sin_x.o(i.____hardfp_sin$lsc) refers (Special) to usenofp.o(x$fpl$usenofp) for __I$use$fp
    sin_x.o(i.____hardfp_sin$lsc) refers to _rserrno.o(.text) for __set_errno
    sin_x.o(i.____hardfp_sin$lsc) refers to dunder.o(i.__mathlib_dbl_infnan) for __mathlib_dbl_infnan
    sin_x.o(i.____hardfp_sin$lsc) refers to rred.o(i.__ieee754_rem_pio2) for __ieee754_rem_pio2
    sin_x.o(i.____hardfp_sin$lsc) refers to cos_i.o(i.__kernel_cos) for __kernel_cos
    sin_x.o(i.____hardfp_sin$lsc) refers to basic.o(x$fpl$basic) for __aeabi_dneg
    sin_x.o(i.____hardfp_sin$lsc) refers to sin_i.o(i.__kernel_sin) for __kernel_sin
    sin_x.o(i.____softfp_sin$lsc) refers (Special) to usenofp.o(x$fpl$usenofp) for __I$use$fp
    sin_x.o(i.____softfp_sin$lsc) refers to sin_x.o(i.____hardfp_sin$lsc) for ____hardfp_sin$lsc
    sin_x.o(i.__sin$lsc) refers (Special) to usenofp.o(x$fpl$usenofp) for __I$use$fp
    sin_x.o(i.__sin$lsc) refers to sin_x.o(i.____hardfp_sin$lsc) for ____hardfp_sin$lsc
    __rtentry.o(.ARM.Collect$$rtentry$$00000000) refers (Special) to __rtentry2.o(.ARM.Collect$$rtentry$$0000000A) for __rt_entry_li
    __rtentry.o(.ARM.Collect$$rtentry$$00000000) refers (Special) to __rtentry2.o(.ARM.Collect$$rtentry$$0000000D) for __rt_entry_main
    __rtentry.o(.ARM.Collect$$rtentry$$00000000) refers (Special) to __rtentry2.o(.ARM.Collect$$rtentry$$0000000B) for __rt_entry_postli_1
    __rtentry.o(.ARM.Collect$$rtentry$$00000000) refers (Special) to __rtentry2.o(.ARM.Collect$$rtentry$$00000009) for __rt_entry_postsh_1
    __rtentry.o(.ARM.Collect$$rtentry$$00000000) refers (Special) to __rtentry2.o(.ARM.Collect$$rtentry$$00000002) for __rt_entry_presh_1
    __rtentry.o(.ARM.Collect$$rtentry$$00000000) refers (Special) to __rtentry4.o(.ARM.Collect$$rtentry$$00000004) for __rt_entry_sh
    rtexit.o(.ARM.Collect$$rtexit$$00000000) refers (Special) to rtexit2.o(.ARM.Collect$$rtexit$$00000004) for __rt_exit_exit
    rtexit.o(.ARM.Collect$$rtexit$$00000000) refers (Special) to rtexit2.o(.ARM.Collect$$rtexit$$00000003) for __rt_exit_ls
    rtexit.o(.ARM.Collect$$rtexit$$00000000) refers (Special) to rtexit2.o(.ARM.Collect$$rtexit$$00000002) for __rt_exit_prels_1
    rtexit.o(.ARM.exidx) refers (Special) to rtexit2.o(.ARM.Collect$$rtexit$$00000004) for __rt_exit_exit
    rtexit.o(.ARM.exidx) refers (Special) to rtexit2.o(.ARM.Collect$$rtexit$$00000003) for __rt_exit_ls
    rtexit.o(.ARM.exidx) refers (Special) to rtexit2.o(.ARM.Collect$$rtexit$$00000002) for __rt_exit_prels_1
    rtexit.o(.ARM.exidx) refers to rtexit.o(.ARM.Collect$$rtexit$$00000000) for .ARM.Collect$$rtexit$$00000000
    aeabi_ldiv0_sigfpe.o(.text) refers to rt_div0.o(.text) for __rt_div0
    _rserrno.o(.text) refers to rt_errno_addr_twolibspace.o(.text) for __aeabi_errno_addr
    basic.o(x$fpl$basic) refers (Special) to usenofp.o(x$fpl$usenofp) for __I$use$fp
    dnaninf.o(x$fpl$dnaninf) refers (Special) to usenofp.o(x$fpl$usenofp) for __I$use$fp
    dretinf.o(x$fpl$dretinf) refers (Special) to usenofp.o(x$fpl$usenofp) for __I$use$fp
    fnaninf.o(x$fpl$fnaninf) refers (Special) to usenofp.o(x$fpl$usenofp) for __I$use$fp
    fretinf.o(x$fpl$fretinf) refers (Special) to usenofp.o(x$fpl$usenofp) for __I$use$fp
    cos_i.o(i.__kernel_cos) refers (Special) to usenofp.o(x$fpl$usenofp) for __I$use$fp
    cos_i.o(i.__kernel_cos) refers to dfix.o(x$fpl$dfix) for __aeabi_d2iz
    cos_i.o(i.__kernel_cos) refers to dmul.o(x$fpl$dmul) for __aeabi_dmul
    cos_i.o(i.__kernel_cos) refers to poly.o(i.__kernel_poly) for __kernel_poly
    cos_i.o(i.__kernel_cos) refers to daddsub_clz.o(x$fpl$dsub) for __aeabi_dsub
    cos_i.o(i.__kernel_cos) refers to daddsub_clz.o(x$fpl$drsb) for __aeabi_drsub
    cos_i.o(i.__kernel_cos) refers to cos_i.o(.constdata) for .constdata
    cos_i.o(.constdata) refers (Special) to usenofp.o(x$fpl$usenofp) for __I$use$fp
    dunder.o(i.__mathlib_dbl_divzero) refers to ddiv.o(x$fpl$ddiv) for __aeabi_ddiv
    dunder.o(i.__mathlib_dbl_infnan) refers to daddsub_clz.o(x$fpl$dadd) for __aeabi_dadd
    dunder.o(i.__mathlib_dbl_infnan2) refers to daddsub_clz.o(x$fpl$dadd) for __aeabi_dadd
    dunder.o(i.__mathlib_dbl_invalid) refers to ddiv.o(x$fpl$ddiv) for __aeabi_ddiv
    dunder.o(i.__mathlib_dbl_overflow) refers to dmul.o(x$fpl$dmul) for __aeabi_dmul
    dunder.o(i.__mathlib_dbl_posinfnan) refers to dmul.o(x$fpl$dmul) for __aeabi_dmul
    dunder.o(i.__mathlib_dbl_underflow) refers to dmul.o(x$fpl$dmul) for __aeabi_dmul
    rred.o(i.__ieee754_rem_pio2) refers (Special) to usenofp.o(x$fpl$usenofp) for __I$use$fp
    rred.o(i.__ieee754_rem_pio2) refers to daddsub_clz.o(x$fpl$dsub) for __aeabi_dsub
    rred.o(i.__ieee754_rem_pio2) refers to daddsub_clz.o(x$fpl$dadd) for __aeabi_dadd
    rred.o(i.__ieee754_rem_pio2) refers to fabs.o(i.fabs) for fabs
    rred.o(i.__ieee754_rem_pio2) refers to dmul.o(x$fpl$dmul) for __aeabi_dmul
    rred.o(i.__ieee754_rem_pio2) refers to dfix.o(x$fpl$dfix) for __aeabi_d2iz
    rred.o(i.__ieee754_rem_pio2) refers to dflt_clz.o(x$fpl$dflt) for __aeabi_i2d
    rred.o(i.__ieee754_rem_pio2) refers to daddsub_clz.o(x$fpl$drsb) for __aeabi_drsub
    rred.o(i.__ieee754_rem_pio2) refers to basic.o(x$fpl$basic) for __aeabi_dneg
    rred.o(i.__ieee754_rem_pio2) refers to dflt_clz.o(x$fpl$dfltu) for __aeabi_ui2d
    rred.o(i.__ieee754_rem_pio2) refers to rred.o(.constdata) for .constdata
    rred.o(i.__use_accurate_range_reduction) refers (Special) to usenofp.o(x$fpl$usenofp) for __I$use$fp
    rred.o(.constdata) refers (Special) to usenofp.o(x$fpl$usenofp) for __I$use$fp
    sin_i.o(i.__kernel_sin) refers (Special) to usenofp.o(x$fpl$usenofp) for __I$use$fp
    sin_i.o(i.__kernel_sin) refers to fpclassify.o(i.__ARM_fpclassify) for __ARM_fpclassify
    sin_i.o(i.__kernel_sin) refers to dunder.o(i.__mathlib_dbl_underflow) for __mathlib_dbl_underflow
    sin_i.o(i.__kernel_sin) refers to dmul.o(x$fpl$dmul) for __aeabi_dmul
    sin_i.o(i.__kernel_sin) refers to poly.o(i.__kernel_poly) for __kernel_poly
    sin_i.o(i.__kernel_sin) refers to daddsub_clz.o(x$fpl$dsub) for __aeabi_dsub
    sin_i.o(i.__kernel_sin) refers to daddsub_clz.o(x$fpl$drsb) for __aeabi_drsub
    sin_i.o(i.__kernel_sin) refers to daddsub_clz.o(x$fpl$dadd) for __aeabi_dadd
    sin_i.o(i.__kernel_sin) refers to sin_i.o(.constdata) for .constdata
    sin_i.o(.constdata) refers (Special) to usenofp.o(x$fpl$usenofp) for __I$use$fp
    sin_i_x.o(i.____kernel_sin$lsc) refers (Special) to usenofp.o(x$fpl$usenofp) for __I$use$fp
    sin_i_x.o(i.____kernel_sin$lsc) refers to dmul.o(x$fpl$dmul) for __aeabi_dmul
    sin_i_x.o(i.____kernel_sin$lsc) refers to poly.o(i.__kernel_poly) for __kernel_poly
    sin_i_x.o(i.____kernel_sin$lsc) refers to daddsub_clz.o(x$fpl$dsub) for __aeabi_dsub
    sin_i_x.o(i.____kernel_sin$lsc) refers to daddsub_clz.o(x$fpl$drsb) for __aeabi_drsub
    sin_i_x.o(i.____kernel_sin$lsc) refers to daddsub_clz.o(x$fpl$dadd) for __aeabi_dadd
    sin_i_x.o(i.____kernel_sin$lsc) refers to sin_i_x.o(.constdata) for .constdata
    sin_i_x.o(.constdata) refers (Special) to usenofp.o(x$fpl$usenofp) for __I$use$fp
    __rtentry2.o(.ARM.Collect$$rtentry$$00000008) refers to boardinit2.o(.text) for _platform_post_stackheap_init
    __rtentry2.o(.ARM.Collect$$rtentry$$0000000A) refers to libinit.o(.ARM.Collect$$libinit$$00000000) for __rt_lib_init
    __rtentry2.o(.ARM.Collect$$rtentry$$0000000B) refers to rtx_conf_cm.o(.emb_text) for _platform_post_lib_init
    __rtentry2.o(.ARM.Collect$$rtentry$$0000000D) refers to exemplotiva.o(.text) for main
    __rtentry2.o(.ARM.Collect$$rtentry$$0000000D) refers to exit.o(.text) for exit
    __rtentry2.o(.ARM.exidx) refers to __rtentry2.o(.ARM.Collect$$rtentry$$00000001) for .ARM.Collect$$rtentry$$00000001
    __rtentry2.o(.ARM.exidx) refers to __rtentry2.o(.ARM.Collect$$rtentry$$00000008) for .ARM.Collect$$rtentry$$00000008
    __rtentry2.o(.ARM.exidx) refers to __rtentry2.o(.ARM.Collect$$rtentry$$0000000A) for .ARM.Collect$$rtentry$$0000000A
    __rtentry2.o(.ARM.exidx) refers to __rtentry2.o(.ARM.Collect$$rtentry$$0000000B) for .ARM.Collect$$rtentry$$0000000B
    __rtentry2.o(.ARM.exidx) refers to __rtentry2.o(.ARM.Collect$$rtentry$$0000000D) for .ARM.Collect$$rtentry$$0000000D
    __rtentry4.o(.ARM.Collect$$rtentry$$00000004) refers to sys_stackheap_outer.o(.text) for __user_setup_stackheap
    __rtentry4.o(.ARM.exidx) refers to __rtentry4.o(.ARM.Collect$$rtentry$$00000004) for .ARM.Collect$$rtentry$$00000004
    rtexit2.o(.ARM.Collect$$rtexit$$00000003) refers to libshutdown.o(.ARM.Collect$$libshutdown$$00000000) for __rt_lib_shutdown
    rtexit2.o(.ARM.Collect$$rtexit$$00000004) refers to sys_exit.o(.text) for _sys_exit
    rtexit2.o(.ARM.exidx) refers to rtexit2.o(.ARM.Collect$$rtexit$$00000001) for .ARM.Collect$$rtexit$$00000001
    rtexit2.o(.ARM.exidx) refers to rtexit2.o(.ARM.Collect$$rtexit$$00000003) for .ARM.Collect$$rtexit$$00000003
    rtexit2.o(.ARM.exidx) refers to rtexit2.o(.ARM.Collect$$rtexit$$00000004) for .ARM.Collect$$rtexit$$00000004
    rt_div0.o(.text) refers to defsig_fpe_outer.o(.text) for __rt_SIGFPE
    rt_errno_addr.o(.text) refers to rt_errno_addr.o(.bss) for __aeabi_errno_addr_data
    rt_errno_addr_intlibspace.o(.text) refers to libspace.o(.bss) for __libspace_start
    rt_errno_addr_twolibspace.o(.text) refers to rtx_conf_cm.o(.text) for __user_perthread_libspace
    dfix.o(x$fpl$dfix) refers (Special) to usenofp.o(x$fpl$usenofp) for __I$use$fp
    dfix.o(x$fpl$dfix) refers to dnaninf.o(x$fpl$dnaninf) for __fpl_dnaninf
    dfix.o(x$fpl$dfixr) refers (Special) to usenofp.o(x$fpl$usenofp) for __I$use$fp
    dfix.o(x$fpl$dfixr) refers to dnaninf.o(x$fpl$dnaninf) for __fpl_dnaninf
    fabs.o(i.__hardfp_fabs) refers (Special) to usenofp.o(x$fpl$usenofp) for __I$use$fp
    fabs.o(i.__softfp_fabs) refers (Special) to usenofp.o(x$fpl$usenofp) for __I$use$fp
    fabs.o(i.fabs) refers (Special) to usenofp.o(x$fpl$usenofp) for __I$use$fp
    fpclassify.o(i.__ARM_fpclassify) refers (Special) to usenofp.o(x$fpl$usenofp) for __I$use$fp
    poly.o(i.__kernel_poly) refers (Special) to usenofp.o(x$fpl$usenofp) for __I$use$fp
    poly.o(i.__kernel_poly) refers to dmul.o(x$fpl$dmul) for __aeabi_dmul
    poly.o(i.__kernel_poly) refers to daddsub_clz.o(x$fpl$dadd) for __aeabi_dadd
    sys_exit.o(.text) refers (Special) to use_no_semi.o(.text) for __I$use$semihosting
    sys_exit.o(.text) refers (Special) to indicate_semi.o(.text) for __semihosting_library_function
    sys_stackheap_outer.o(.text) refers to libspace.o(.text) for __user_perproc_libspace
    sys_stackheap_outer.o(.text) refers to startup_tm4c129.o(.text) for __user_initial_stackheap
    defsig_fpe_outer.o(.text) refers to defsig_fpe_inner.o(.text) for __rt_SIGFPE_inner
    defsig_fpe_outer.o(.text) refers to defsig_exit.o(.text) for __sig_exit
    defsig_fpe_formal.o(.text) refers to rt_raise.o(.text) for __rt_raise
    libinit.o(.ARM.Collect$$libinit$$00000000) refers (Special) to libinit2.o(.ARM.Collect$$libinit$$0000002E) for __rt_lib_init_alloca_1
    libinit.o(.ARM.Collect$$libinit$$00000000) refers (Special) to libinit2.o(.ARM.Collect$$libinit$$0000002C) for __rt_lib_init_argv_1
    libinit.o(.ARM.Collect$$libinit$$00000000) refers (Special) to libinit2.o(.ARM.Collect$$libinit$$0000001B) for __rt_lib_init_atexit_1
    libinit.o(.ARM.Collect$$libinit$$00000000) refers (Special) to libinit2.o(.ARM.Collect$$libinit$$00000021) for __rt_lib_init_clock_1
    libinit.o(.ARM.Collect$$libinit$$00000000) refers (Special) to libinit2.o(.ARM.Collect$$libinit$$00000032) for __rt_lib_init_cpp_1
    libinit.o(.ARM.Collect$$libinit$$00000000) refers (Special) to libinit2.o(.ARM.Collect$$libinit$$00000030) for __rt_lib_init_exceptions_1
    libinit.o(.ARM.Collect$$libinit$$00000000) refers (Special) to libinit2.o(.ARM.Collect$$libinit$$00000001) for __rt_lib_init_fp_1
    libinit.o(.ARM.Collect$$libinit$$00000000) refers (Special) to libinit2.o(.ARM.Collect$$libinit$$0000001F) for __rt_lib_init_fp_trap_1
    libinit.o(.ARM.Collect$$libinit$$00000000) refers (Special) to libinit2.o(.ARM.Collect$$libinit$$00000023) for __rt_lib_init_getenv_1
    libinit.o(.ARM.Collect$$libinit$$00000000) refers (Special) to libinit2.o(.ARM.Collect$$libinit$$0000000A) for __rt_lib_init_heap_1
    libinit.o(.ARM.Collect$$libinit$$00000000) refers (Special) to libinit2.o(.ARM.Collect$$libinit$$00000011) for __rt_lib_init_lc_collate_1
    libinit.o(.ARM.Collect$$libinit$$00000000) refers (Special) to libinit2.o(.ARM.Collect$$libinit$$00000013) for __rt_lib_init_lc_ctype_1
    libinit.o(.ARM.Collect$$libinit$$00000000) refers (Special) to libinit2.o(.ARM.Collect$$libinit$$00000015) for __rt_lib_init_lc_monetary_1
    libinit.o(.ARM.Collect$$libinit$$00000000) refers (Special) to libinit2.o(.ARM.Collect$$libinit$$00000017) for __rt_lib_init_lc_numeric_1
    libinit.o(.ARM.Collect$$libinit$$00000000) refers (Special) to libinit2.o(.ARM.Collect$$libinit$$00000019) for __rt_lib_init_lc_time_1
    libinit.o(.ARM.Collect$$libinit$$00000000) refers (Special) to libinit2.o(.ARM.Collect$$libinit$$00000004) for __rt_lib_init_preinit_1
    libinit.o(.ARM.Collect$$libinit$$00000000) refers (Special) to libinit2.o(.ARM.Collect$$libinit$$0000000E) for __rt_lib_init_rand_1
    libinit.o(.ARM.Collect$$libinit$$00000000) refers (Special) to libinit2.o(.ARM.Collect$$libinit$$00000033) for __rt_lib_init_return
    libinit.o(.ARM.Collect$$libinit$$00000000) refers (Special) to libinit2.o(.ARM.Collect$$libinit$$0000001D) for __rt_lib_init_signal_1
    libinit.o(.ARM.Collect$$libinit$$00000000) refers (Special) to libinit2.o(.ARM.Collect$$libinit$$00000025) for __rt_lib_init_stdio_1
    libinit.o(.ARM.Collect$$libinit$$00000000) refers (Special) to libinit2.o(.ARM.Collect$$libinit$$0000000C) for __rt_lib_init_user_alloc_1
    libshutdown.o(.ARM.Collect$$libshutdown$$00000000) refers (Special) to libshutdown2.o(.ARM.Collect$$libshutdown$$00000002) for __rt_lib_shutdown_cpp_1
    libshutdown.o(.ARM.Collect$$libshutdown$$00000000) refers (Special) to libshutdown2.o(.ARM.Collect$$libshutdown$$00000007) for __rt_lib_shutdown_fp_trap_1
    libshutdown.o(.ARM.Collect$$libshutdown$$00000000) refers (Special) to libshutdown2.o(.ARM.Collect$$libshutdown$$0000000F) for __rt_lib_shutdown_heap_1
    libshutdown.o(.ARM.Collect$$libshutdown$$00000000) refers (Special) to libshutdown2.o(.ARM.Collect$$libshutdown$$00000010) for __rt_lib_shutdown_return
    libshutdown.o(.ARM.Collect$$libshutdown$$00000000) refers (Special) to libshutdown2.o(.ARM.Collect$$libshutdown$$0000000A) for __rt_lib_shutdown_signal_1
    libshutdown.o(.ARM.Collect$$libshutdown$$00000000) refers (Special) to libshutdown2.o(.ARM.Collect$$libshutdown$$00000004) for __rt_lib_shutdown_stdio_1
    libshutdown.o(.ARM.Collect$$libshutdown$$00000000) refers (Special) to libshutdown2.o(.ARM.Collect$$libshutdown$$0000000C) for __rt_lib_shutdown_user_alloc_1
    rt_raise.o(.text) refers to __raise.o(.text) for __raise
    rt_raise.o(.text) refers to sys_exit.o(.text) for _sys_exit
    defsig_exit.o(.text) refers to sys_exit.o(.text) for _sys_exit
    defsig_fpe_inner.o(.text) refers to defsig_general.o(.text) for __default_signal_display
    libinit2.o(.ARM.Collect$$libinit$$00000001) refers to fpinit.o(x$fpl$fpinit) for _fp_init
    libinit2.o(.ARM.Collect$$libinit$$00000010) refers to libinit2.o(.ARM.Collect$$libinit$$0000000F) for .ARM.Collect$$libinit$$0000000F
    libinit2.o(.ARM.Collect$$libinit$$00000012) refers to libinit2.o(.ARM.Collect$$libinit$$0000000F) for .ARM.Collect$$libinit$$0000000F
    libinit2.o(.ARM.Collect$$libinit$$00000014) refers to libinit2.o(.ARM.Collect$$libinit$$0000000F) for .ARM.Collect$$libinit$$0000000F
    libinit2.o(.ARM.Collect$$libinit$$00000016) refers to libinit2.o(.ARM.Collect$$libinit$$0000000F) for .ARM.Collect$$libinit$$0000000F
    libinit2.o(.ARM.Collect$$libinit$$00000018) refers to libinit2.o(.ARM.Collect$$libinit$$0000000F) for .ARM.Collect$$libinit$$0000000F
    libinit2.o(.ARM.Collect$$libinit$$00000026) refers to argv_veneer.o(.emb_text) for __ARM_argv_veneer
    libinit2.o(.ARM.Collect$$libinit$$00000027) refers to argv_veneer.o(.emb_text) for __ARM_argv_veneer
    __raise.o(.text) refers to defsig.o(CL$$defsig) for __default_signal_handler
    defsig_general.o(.text) refers to sys_wrch.o(.text) for _ttywrch
    argv_veneer.o(.emb_text) refers to no_argv.o(.text) for __ARM_get_argv
    sys_wrch.o(.text) refers (Special) to use_no_semi.o(.text) for __I$use$semihosting
    sys_wrch.o(.text) refers (Special) to indicate_semi.o(.text) for __semihosting_library_function
    defsig.o(CL$$defsig) refers to defsig_fpe_inner.o(.text) for __rt_SIGFPE_inner
    defsig.o(CL$$defsig) refers to defsig_rtmem_inner.o(.text) for __rt_SIGRTMEM_inner
    _get_argv_nomalloc.o(.text) refers (Special) to hrguard.o(.text) for __heap_region$guard
    _get_argv_nomalloc.o(.text) refers to defsig_rtmem_outer.o(.text) for __rt_SIGRTMEM
    _get_argv_nomalloc.o(.text) refers to sys_command.o(.text) for _sys_command_string
    sys_command.o(.text) refers (Special) to use_no_semi.o(.text) for __I$use$semihosting
    sys_command.o(.text) refers (Special) to indicate_semi.o(.text) for __semihosting_library_function
    defsig_abrt_inner.o(.text) refers to defsig_general.o(.text) for __default_signal_display
    defsig_rtred_inner.o(.text) refers to defsig_general.o(.text) for __default_signal_display
    defsig_rtmem_inner.o(.text) refers to defsig_general.o(.text) for __default_signal_display
    defsig_rtmem_outer.o(.text) refers to defsig_rtmem_inner.o(.text) for __rt_SIGRTMEM_inner
    defsig_rtmem_outer.o(.text) refers to defsig_exit.o(.text) for __sig_exit
    defsig_rtmem_formal.o(.text) refers to rt_raise.o(.text) for __rt_raise
    defsig_stak_inner.o(.text) refers to defsig_general.o(.text) for __default_signal_display
    defsig_pvfn_inner.o(.text) refers to defsig_general.o(.text) for __default_signal_display
    defsig_cppl_inner.o(.text) refers to defsig_general.o(.text) for __default_signal_display
    defsig_segv_inner.o(.text) refers to defsig_general.o(.text) for __default_signal_display
    defsig_other.o(.text) refers to defsig_general.o(.text) for __default_signal_display


==============================================================================

Removing Unused input sections from the image.

    Removing exemplotiva.o(.rev16_text), (4 bytes).
    Removing exemplotiva.o(.revsh_text), (4 bytes).
    Removing exemplotiva.o(.rrx_text), (6 bytes).
    Removing uart.o(.rev16_text), (4 bytes).
    Removing uart.o(.revsh_text), (4 bytes).
    Removing uart.o(.rrx_text), (6 bytes).
    Removing uart.o(.constdata), (12 bytes).
    Removing uart.o(.constdata), (12 bytes).
    Removing accel.o(.text), (164 bytes).
    Removing cfaf128x128x16.o(.constdata), (2 bytes).
    Removing cfaf128x128x16.o(.constdata), (2 bytes).
    Removing cfaf128x128x16.o(.constdata), (2 bytes).
    Removing cfaf128x128x16.o(.constdata), (2 bytes).
    Removing cfaf128x128x16.o(.constdata), (2 bytes).
    Removing cfaf128x128x16.o(.constdata), (2 bytes).
    Removing cfaf128x128x16.o(.constdata), (2 bytes).
    Removing cfaf128x128x16.o(.constdata), (2 bytes).
    Removing cfaf128x128x16.o(.constdata), (2 bytes).
    Removing cfaf128x128x16.o(.constdata), (2 bytes).
    Removing cfaf128x128x16.o(.constdata), (2 bytes).
    Removing cfaf128x128x16.o(.constdata), (2 bytes).
    Removing led.o(.rev16_text), (4 bytes).
    Removing led.o(.revsh_text), (4 bytes).
    Removing led.o(.rrx_text), (6 bytes).
    Removing led.o(.text), (284 bytes).
    Removing led.o(.constdata), (16 bytes).
    Removing mic.o(.text), (148 bytes).
    Removing opt.o(.text), (1392 bytes).
    Removing opt.o(.data), (12 bytes).
    Removing rgb.o(.text), (596 bytes).
    Removing rgb.o(.data), (8 bytes).
    Removing servo.o(.text), (228 bytes).
    Removing servo.o(.data), (8 bytes).
    Removing joy.o(.text), (208 bytes).
    Removing temp.o(.text), (1316 bytes).
    Removing temp.o(.data), (12 bytes).
    Removing rtx_conf_cm.o(.constdata), (4 bytes).
    Removing rtx_conf_cm.o(.constdata), (2 bytes).
    Removing rtx_conf_cm.o(.constdata), (2 bytes).
    Removing rtx_conf_cm.o(.data), (4 bytes).
    Removing system_tm4c129.o(.rev16_text), (4 bytes).
    Removing system_tm4c129.o(.revsh_text), (4 bytes).
    Removing system_tm4c129.o(.rrx_text), (6 bytes).
    Removing adc.o(i.ADCBusy), (8 bytes).
    Removing adc.o(i.ADCClockConfigGet), (32 bytes).
    Removing adc.o(i.ADCClockConfigSet), (28 bytes).
    Removing adc.o(i.ADCComparatorConfigure), (10 bytes).
    Removing adc.o(i.ADCComparatorIntClear), (4 bytes).
    Removing adc.o(i.ADCComparatorIntDisable), (18 bytes).
    Removing adc.o(i.ADCComparatorIntEnable), (16 bytes).
    Removing adc.o(i.ADCComparatorIntStatus), (4 bytes).
    Removing adc.o(i.ADCComparatorRegionSet), (14 bytes).
    Removing adc.o(i.ADCComparatorReset), (40 bytes).
    Removing adc.o(i.ADCHardwareOversampleConfigure), (18 bytes).
    Removing adc.o(i.ADCIntClear), (10 bytes).
    Removing adc.o(i.ADCIntClearEx), (4 bytes).
    Removing adc.o(i.ADCIntDisable), (16 bytes).
    Removing adc.o(i.ADCIntDisableEx), (10 bytes).
    Removing adc.o(i.ADCIntEnable), (16 bytes).
    Removing adc.o(i.ADCIntEnableEx), (8 bytes).
    Removing adc.o(i.ADCIntRegister), (104 bytes).
    Removing adc.o(i.ADCIntStatus), (52 bytes).
    Removing adc.o(i.ADCIntStatusEx), (22 bytes).
    Removing adc.o(i.ADCIntUnregister), (108 bytes).
    Removing adc.o(i.ADCPhaseDelayGet), (4 bytes).
    Removing adc.o(i.ADCPhaseDelaySet), (4 bytes).
    Removing adc.o(i.ADCProcessorTrigger), (26 bytes).
    Removing adc.o(i.ADCReferenceGet), (8 bytes).
    Removing adc.o(i.ADCReferenceSet), (12 bytes).
    Removing adc.o(i.ADCSequenceConfigure), (96 bytes).
    Removing adc.o(i.ADCSequenceDMADisable), (18 bytes).
    Removing adc.o(i.ADCSequenceDMAEnable), (16 bytes).
    Removing adc.o(i.ADCSequenceDataGet), (36 bytes).
    Removing adc.o(i.ADCSequenceDisable), (16 bytes).
    Removing adc.o(i.ADCSequenceEnable), (14 bytes).
    Removing adc.o(i.ADCSequenceOverflow), (12 bytes).
    Removing adc.o(i.ADCSequenceOverflowClear), (10 bytes).
    Removing adc.o(i.ADCSequenceStepConfigure), (154 bytes).
    Removing adc.o(i.ADCSequenceUnderflow), (12 bytes).
    Removing adc.o(i.ADCSequenceUnderflowClear), (10 bytes).
    Removing adc.o(i.ADCSoftwareOversampleConfigure), (44 bytes).
    Removing adc.o(i.ADCSoftwareOversampleDataGet), (88 bytes).
    Removing adc.o(i.ADCSoftwareOversampleStepConfigure), (168 bytes).
    Removing adc.o(.data), (6 bytes).
    Removing gpio.o(i.GPIOADCTriggerDisable), (14 bytes).
    Removing gpio.o(i.GPIOADCTriggerEnable), (12 bytes).
    Removing gpio.o(i.GPIODMATriggerDisable), (14 bytes).
    Removing gpio.o(i.GPIODMATriggerEnable), (12 bytes).
    Removing gpio.o(i.GPIODirModeGet), (34 bytes).
    Removing gpio.o(i.GPIOIntClear), (6 bytes).
    Removing gpio.o(i.GPIOIntDisable), (14 bytes).
    Removing gpio.o(i.GPIOIntEnable), (12 bytes).
    Removing gpio.o(i.GPIOIntRegister), (26 bytes).
    Removing gpio.o(i.GPIOIntRegisterPin), (30 bytes).
    Removing gpio.o(i.GPIOIntStatus), (14 bytes).
    Removing gpio.o(i.GPIOIntTypeGet), (68 bytes).
    Removing gpio.o(i.GPIOIntTypeSet), (80 bytes).
    Removing gpio.o(i.GPIOIntUnregister), (22 bytes).
    Removing gpio.o(i.GPIOIntUnregisterPin), (26 bytes).
    Removing gpio.o(i.GPIOPadConfigGet), (204 bytes).
    Removing gpio.o(i.GPIOPinTypeADC), (28 bytes).
    Removing gpio.o(i.GPIOPinTypeCAN), (28 bytes).
    Removing gpio.o(i.GPIOPinTypeComparator), (28 bytes).
    Removing gpio.o(i.GPIOPinTypeComparatorOutput), (28 bytes).
    Removing gpio.o(i.GPIOPinTypeDIVSCLK), (28 bytes).
    Removing gpio.o(i.GPIOPinTypeEPI), (28 bytes).
    Removing gpio.o(i.GPIOPinTypeEthernetLED), (28 bytes).
    Removing gpio.o(i.GPIOPinTypeEthernetMII), (28 bytes).
    Removing gpio.o(i.GPIOPinTypeGPIOOutput), (28 bytes).
    Removing gpio.o(i.GPIOPinTypeGPIOOutputOD), (28 bytes).
    Removing gpio.o(i.GPIOPinTypeHibernateRTCCLK), (28 bytes).
    Removing gpio.o(i.GPIOPinTypeI2C), (28 bytes).
    Removing gpio.o(i.GPIOPinTypeI2CSCL), (28 bytes).
    Removing gpio.o(i.GPIOPinTypeLCD), (28 bytes).
    Removing gpio.o(i.GPIOPinTypeOneWire), (28 bytes).
    Removing gpio.o(i.GPIOPinTypeQEI), (28 bytes).
    Removing gpio.o(i.GPIOPinTypeSSI), (28 bytes).
    Removing gpio.o(i.GPIOPinTypeTimer), (28 bytes).
    Removing gpio.o(i.GPIOPinTypeTrace), (28 bytes).
    Removing gpio.o(i.GPIOPinTypeUSBAnalog), (28 bytes).
    Removing gpio.o(i.GPIOPinTypeUSBDigital), (28 bytes).
    Removing gpio.o(i.GPIOPinTypeWakeHigh), (30 bytes).
    Removing gpio.o(i.GPIOPinTypeWakeLow), (30 bytes).
    Removing gpio.o(i.GPIOPinWakeStatus), (6 bytes).
    Removing gpio.o(i.GPIOPinWrite), (6 bytes).
    Removing gpio.o(i._GPIOIntNumberGet), (80 bytes).
    Removing i2c.o(i.I2CFIFODataGet), (16 bytes).
    Removing i2c.o(i.I2CFIFODataGetNonBlocking), (24 bytes).
    Removing i2c.o(i.I2CFIFODataPut), (16 bytes).
    Removing i2c.o(i.I2CFIFODataPutNonBlocking), (20 bytes).
    Removing i2c.o(i.I2CFIFOStatus), (6 bytes).
    Removing i2c.o(i.I2CIntRegister), (96 bytes).
    Removing i2c.o(i.I2CIntUnregister), (96 bytes).
    Removing i2c.o(i.I2CLoopbackEnable), (10 bytes).
    Removing i2c.o(i.I2CMasterBurstCountGet), (4 bytes).
    Removing i2c.o(i.I2CMasterBurstLengthSet), (4 bytes).
    Removing i2c.o(i.I2CMasterBusBusy), (12 bytes).
    Removing i2c.o(i.I2CMasterBusy), (12 bytes).
    Removing i2c.o(i.I2CMasterControl), (4 bytes).
    Removing i2c.o(i.I2CMasterDataGet), (4 bytes).
    Removing i2c.o(i.I2CMasterDataPut), (4 bytes).
    Removing i2c.o(i.I2CMasterDisable), (10 bytes).
    Removing i2c.o(i.I2CMasterEnable), (10 bytes).
    Removing i2c.o(i.I2CMasterErr), (24 bytes).
    Removing i2c.o(i.I2CMasterGlitchFilterConfigSet), (84 bytes).
    Removing i2c.o(i.I2CMasterInitExpClk), (84 bytes).
    Removing i2c.o(i.I2CMasterIntClear), (8 bytes).
    Removing i2c.o(i.I2CMasterIntClearEx), (4 bytes).
    Removing i2c.o(i.I2CMasterIntDisable), (6 bytes).
    Removing i2c.o(i.I2CMasterIntDisableEx), (10 bytes).
    Removing i2c.o(i.I2CMasterIntEnable), (6 bytes).
    Removing i2c.o(i.I2CMasterIntEnableEx), (8 bytes).
    Removing i2c.o(i.I2CMasterIntStatus), (24 bytes).
    Removing i2c.o(i.I2CMasterIntStatusEx), (10 bytes).
    Removing i2c.o(i.I2CMasterLineStateGet), (4 bytes).
    Removing i2c.o(i.I2CMasterSlaveAddrSet), (8 bytes).
    Removing i2c.o(i.I2CMasterTimeoutSet), (4 bytes).
    Removing i2c.o(i.I2CRxFIFOConfigSet), (22 bytes).
    Removing i2c.o(i.I2CRxFIFOFlush), (14 bytes).
    Removing i2c.o(i.I2CSlaveACKOverride), (22 bytes).
    Removing i2c.o(i.I2CSlaveACKValueSet), (22 bytes).
    Removing i2c.o(i.I2CSlaveAddressSet), (24 bytes).
    Removing i2c.o(i.I2CSlaveDataGet), (6 bytes).
    Removing i2c.o(i.I2CSlaveDataPut), (6 bytes).
    Removing i2c.o(i.I2CSlaveDisable), (16 bytes).
    Removing i2c.o(i.I2CSlaveEnable), (16 bytes).
    Removing i2c.o(i.I2CSlaveFIFODisable), (8 bytes).
    Removing i2c.o(i.I2CSlaveFIFOEnable), (10 bytes).
    Removing i2c.o(i.I2CSlaveInit), (20 bytes).
    Removing i2c.o(i.I2CSlaveIntClear), (8 bytes).
    Removing i2c.o(i.I2CSlaveIntClearEx), (6 bytes).
    Removing i2c.o(i.I2CSlaveIntDisable), (14 bytes).
    Removing i2c.o(i.I2CSlaveIntDisableEx), (14 bytes).
    Removing i2c.o(i.I2CSlaveIntEnable), (14 bytes).
    Removing i2c.o(i.I2CSlaveIntEnableEx), (12 bytes).
    Removing i2c.o(i.I2CSlaveIntStatus), (28 bytes).
    Removing i2c.o(i.I2CSlaveIntStatusEx), (14 bytes).
    Removing i2c.o(i.I2CSlaveStatus), (6 bytes).
    Removing i2c.o(i.I2CTxFIFOConfigSet), (24 bytes).
    Removing i2c.o(i.I2CTxFIFOFlush), (14 bytes).
    Removing i2c.o(.constdata), (128 bytes).
    Removing interrupt.o(i.IntDisable), (100 bytes).
    Removing interrupt.o(i.IntIsEnabled), (96 bytes).
    Removing interrupt.o(i.IntMasterDisable), (14 bytes).
    Removing interrupt.o(i.IntPendClear), (68 bytes).
    Removing interrupt.o(i.IntPendSet), (84 bytes).
    Removing interrupt.o(i.IntPriorityGet), (28 bytes).
    Removing interrupt.o(i.IntPriorityGroupingGet), (36 bytes).
    Removing interrupt.o(i.IntPriorityGroupingSet), (28 bytes).
    Removing interrupt.o(i.IntPriorityMaskGet), (4 bytes).
    Removing interrupt.o(i.IntPriorityMaskSet), (4 bytes).
    Removing interrupt.o(i.IntPrioritySet), (40 bytes).
    Removing interrupt.o(i.IntRegister), (52 bytes).
    Removing interrupt.o(i.IntTrigger), (12 bytes).
    Removing interrupt.o(i.IntUnregister), (20 bytes).
    Removing interrupt.o(i._IntDefaultHandler), (2 bytes).
    Removing interrupt.o(vtable), (620 bytes).
    Removing pwm.o(i.PWMClockGet), (26 bytes).
    Removing pwm.o(i.PWMDeadBandDisable), (12 bytes).
    Removing pwm.o(i.PWMDeadBandEnable), (16 bytes).
    Removing pwm.o(i.PWMFaultIntClear), (8 bytes).
    Removing pwm.o(i.PWMFaultIntClearExt), (4 bytes).
    Removing pwm.o(i.PWMFaultIntRegister), (96 bytes).
    Removing pwm.o(i.PWMFaultIntUnregister), (88 bytes).
    Removing pwm.o(i.PWMGenDisable), (10 bytes).
    Removing pwm.o(i.PWMGenFaultClear), (18 bytes).
    Removing pwm.o(i.PWMGenFaultConfigure), (18 bytes).
    Removing pwm.o(i.PWMGenFaultStatus), (18 bytes).
    Removing pwm.o(i.PWMGenFaultTriggerGet), (12 bytes).
    Removing pwm.o(i.PWMGenFaultTriggerSet), (12 bytes).
    Removing pwm.o(i.PWMGenIntClear), (6 bytes).
    Removing pwm.o(i.PWMGenIntRegister), (26 bytes).
    Removing pwm.o(i.PWMGenIntStatus), (12 bytes).
    Removing pwm.o(i.PWMGenIntTrigDisable), (10 bytes).
    Removing pwm.o(i.PWMGenIntTrigEnable), (10 bytes).
    Removing pwm.o(i.PWMGenIntUnregister), (22 bytes).
    Removing pwm.o(i.PWMIntDisable), (10 bytes).
    Removing pwm.o(i.PWMIntEnable), (8 bytes).
    Removing pwm.o(i.PWMIntStatus), (10 bytes).
    Removing pwm.o(i.PWMOutputFault), (16 bytes).
    Removing pwm.o(i.PWMOutputFaultLevel), (16 bytes).
    Removing pwm.o(i.PWMOutputUpdateMode), (62 bytes).
    Removing pwm.o(i.PWMPulseWidthGet), (32 bytes).
    Removing pwm.o(i.PWMSyncTimeBase), (4 bytes).
    Removing pwm.o(i.PWMSyncUpdate), (4 bytes).
    Removing pwm.o(i._PWMGenIntNumberGet), (224 bytes).
    Removing sysctl.o(i.SysCtlAltClkConfig), (12 bytes).
    Removing sysctl.o(i.SysCtlClockOutConfig), (20 bytes).
    Removing sysctl.o(i.SysCtlClockSet), (288 bytes).
    Removing sysctl.o(i.SysCtlDeepSleep), (32 bytes).
    Removing sysctl.o(i.SysCtlDeepSleepClockConfigSet), (112 bytes).
    Removing sysctl.o(i.SysCtlDeepSleepClockSet), (12 bytes).
    Removing sysctl.o(i.SysCtlDeepSleepPowerSet), (12 bytes).
    Removing sysctl.o(i.SysCtlFlashSectorSizeGet), (56 bytes).
    Removing sysctl.o(i.SysCtlFlashSizeGet), (56 bytes).
    Removing sysctl.o(i.SysCtlGPIOAHBDisable), (28 bytes).
    Removing sysctl.o(i.SysCtlGPIOAHBEnable), (24 bytes).
    Removing sysctl.o(i.SysCtlIntClear), (12 bytes).
    Removing sysctl.o(i.SysCtlIntDisable), (16 bytes).
    Removing sysctl.o(i.SysCtlIntEnable), (16 bytes).
    Removing sysctl.o(i.SysCtlIntRegister), (20 bytes).
    Removing sysctl.o(i.SysCtlIntStatus), (16 bytes).
    Removing sysctl.o(i.SysCtlIntUnregister), (18 bytes).
    Removing sysctl.o(i.SysCtlLDODeepSleepGet), (12 bytes).
    Removing sysctl.o(i.SysCtlLDODeepSleepSet), (12 bytes).
    Removing sysctl.o(i.SysCtlLDOSleepGet), (12 bytes).
    Removing sysctl.o(i.SysCtlLDOSleepSet), (12 bytes).
    Removing sysctl.o(i.SysCtlMOSCConfigSet), (12 bytes).
    Removing sysctl.o(i.SysCtlNMIClear), (16 bytes).
    Removing sysctl.o(i.SysCtlNMIStatus), (12 bytes).
    Removing sysctl.o(i.SysCtlPIOSCCalibrate), (76 bytes).
    Removing sysctl.o(i.SysCtlPWMClockGet), (24 bytes).
    Removing sysctl.o(i.SysCtlPWMClockSet), (20 bytes).
    Removing sysctl.o(i.SysCtlPeripheralClockGating), (68 bytes).
    Removing sysctl.o(i.SysCtlPeripheralDeepSleepDisable), (40 bytes).
    Removing sysctl.o(i.SysCtlPeripheralDeepSleepEnable), (40 bytes).
    Removing sysctl.o(i.SysCtlPeripheralDisable), (40 bytes).
    Removing sysctl.o(i.SysCtlPeripheralPowerOff), (40 bytes).
    Removing sysctl.o(i.SysCtlPeripheralPowerOn), (40 bytes).
    Removing sysctl.o(i.SysCtlPeripheralPresent), (44 bytes).
    Removing sysctl.o(i.SysCtlPeripheralReset), (60 bytes).
    Removing sysctl.o(i.SysCtlPeripheralSleepDisable), (40 bytes).
    Removing sysctl.o(i.SysCtlPeripheralSleepEnable), (40 bytes).
    Removing sysctl.o(i.SysCtlReset), (16 bytes).
    Removing sysctl.o(i.SysCtlResetBehaviorGet), (12 bytes).
    Removing sysctl.o(i.SysCtlResetBehaviorSet), (12 bytes).
    Removing sysctl.o(i.SysCtlResetCauseClear), (16 bytes).
    Removing sysctl.o(i.SysCtlResetCauseGet), (12 bytes).
    Removing sysctl.o(i.SysCtlSRAMSizeGet), (16 bytes).
    Removing sysctl.o(i.SysCtlSleep), (4 bytes).
    Removing sysctl.o(i.SysCtlSleepPowerSet), (12 bytes).
    Removing sysctl.o(i.SysCtlUSBPLLDisable), (16 bytes).
    Removing sysctl.o(i.SysCtlUSBPLLEnable), (16 bytes).
    Removing sysctl.o(i.SysCtlVCOGet), (120 bytes).
    Removing sysctl.o(i.SysCtlVoltageEventClear), (16 bytes).
    Removing sysctl.o(i.SysCtlVoltageEventConfig), (12 bytes).
    Removing sysctl.o(i.SysCtlVoltageEventStatus), (12 bytes).
    Removing timer.o(i.TimerADCEventGet), (4 bytes).
    Removing timer.o(i.TimerADCEventSet), (4 bytes).
    Removing timer.o(i.TimerClockSourceGet), (6 bytes).
    Removing timer.o(i.TimerClockSourceSet), (6 bytes).
    Removing timer.o(i.TimerControlEvent), (18 bytes).
    Removing timer.o(i.TimerControlLevel), (22 bytes).
    Removing timer.o(i.TimerControlStall), (22 bytes).
    Removing timer.o(i.TimerControlTrigger), (80 bytes).
    Removing timer.o(i.TimerControlWaitOnTrigger), (48 bytes).
    Removing timer.o(i.TimerDMAEventGet), (4 bytes).
    Removing timer.o(i.TimerDMAEventSet), (4 bytes).
    Removing timer.o(i.TimerDisable), (16 bytes).
    Removing timer.o(i.TimerIntDisable), (10 bytes).
    Removing timer.o(i.TimerIntRegister), (104 bytes).
    Removing timer.o(i.TimerIntStatus), (10 bytes).
    Removing timer.o(i.TimerIntUnregister), (104 bytes).
    Removing timer.o(i.TimerLoadGet), (10 bytes).
    Removing timer.o(i.TimerLoadGet64), (14 bytes).
    Removing timer.o(i.TimerLoadSet64), (6 bytes).
    Removing timer.o(i.TimerMatchGet), (10 bytes).
    Removing timer.o(i.TimerMatchGet64), (14 bytes).
    Removing timer.o(i.TimerMatchSet), (18 bytes).
    Removing timer.o(i.TimerMatchSet64), (6 bytes).
    Removing timer.o(i.TimerPrescaleGet), (10 bytes).
    Removing timer.o(i.TimerPrescaleMatchGet), (10 bytes).
    Removing timer.o(i.TimerPrescaleMatchSet), (18 bytes).
    Removing timer.o(i.TimerPrescaleSet), (18 bytes).
    Removing timer.o(i.TimerRTCDisable), (10 bytes).
    Removing timer.o(i.TimerRTCEnable), (10 bytes).
    Removing timer.o(i.TimerSynchronize), (4 bytes).
    Removing timer.o(i.TimerUpdateMode), (42 bytes).
    Removing timer.o(i.TimerValueGet), (10 bytes).
    Removing timer.o(i.TimerValueGet64), (14 bytes).
    Removing timer.o(.constdata), (160 bytes).
    Removing uart.o(i.UART9BitAddrSend), (38 bytes).
    Removing uart.o(i.UART9BitAddrSet), (10 bytes).
    Removing uart.o(i.UART9BitDisable), (14 bytes).
    Removing uart.o(i.UART9BitEnable), (14 bytes).
    Removing uart.o(i.UARTBreakCtl), (18 bytes).
    Removing uart.o(i.UARTBusy), (8 bytes).
    Removing uart.o(i.UARTCharGet), (12 bytes).
    Removing uart.o(i.UARTCharGetNonBlocking), (16 bytes).
    Removing uart.o(i.UARTCharPut), (12 bytes).
    Removing uart.o(i.UARTCharPutNonBlocking), (16 bytes).
    Removing uart.o(i.UARTCharsAvail), (10 bytes).
    Removing uart.o(i.UARTClockSourceGet), (6 bytes).
    Removing uart.o(i.UARTClockSourceSet), (6 bytes).
    Removing uart.o(i.UARTConfigGetExpClk), (46 bytes).
    Removing uart.o(i.UARTDMADisable), (10 bytes).
    Removing uart.o(i.UARTDMAEnable), (8 bytes).
    Removing uart.o(i.UARTDisable), (30 bytes).
    Removing uart.o(i.UARTDisableSIR), (10 bytes).
    Removing uart.o(i.UARTEnableSIR), (18 bytes).
    Removing uart.o(i.UARTFIFODisable), (10 bytes).
    Removing uart.o(i.UARTFIFOEnable), (10 bytes).
    Removing uart.o(i.UARTFIFOLevelGet), (16 bytes).
    Removing uart.o(i.UARTFIFOLevelSet), (6 bytes).
    Removing uart.o(i.UARTFlowControlGet), (8 bytes).
    Removing uart.o(i.UARTFlowControlSet), (12 bytes).
    Removing uart.o(i.UARTIntClear), (4 bytes).
    Removing uart.o(i.UARTIntDisable), (10 bytes).
    Removing uart.o(i.UARTIntEnable), (8 bytes).
    Removing uart.o(i.UARTIntRegister), (88 bytes).
    Removing uart.o(i.UARTIntStatus), (10 bytes).
    Removing uart.o(i.UARTIntUnregister), (88 bytes).
    Removing uart.o(i.UARTLoopbackEnable), (10 bytes).
    Removing uart.o(i.UARTModemControlClear), (14 bytes).
    Removing uart.o(i.UARTModemControlGet), (8 bytes).
    Removing uart.o(i.UARTModemControlSet), (12 bytes).
    Removing uart.o(i.UARTModemStatusGet), (10 bytes).
    Removing uart.o(i.UARTParityModeGet), (8 bytes).
    Removing uart.o(i.UARTParityModeSet), (12 bytes).
    Removing uart.o(i.UARTRxErrorClear), (6 bytes).
    Removing uart.o(i.UARTRxErrorGet), (8 bytes).
    Removing uart.o(i.UARTSmartCardDisable), (10 bytes).
    Removing uart.o(i.UARTSmartCardEnable), (22 bytes).
    Removing uart.o(i.UARTSpaceAvail), (10 bytes).
    Removing uart.o(i.UARTTxIntModeGet), (8 bytes).
    Removing uart.o(i.UARTTxIntModeSet), (12 bytes).
    Removing uart.o(.constdata), (128 bytes).
    Removing context.o(i.GrContextClipRegionSet), (112 bytes).
    Removing context.o(i.GrLibInit), (12 bytes).
    Removing string.o(i.GrCodepageMapTableSet), (10 bytes).
    Removing string.o(i.GrFontBaselineGet), (44 bytes).
    Removing string.o(i.GrFontBlockCodepointsGet), (84 bytes).
    Removing string.o(i.GrFontCodepageGet), (32 bytes).
    Removing string.o(i.GrFontHeightGet), (44 bytes).
    Removing string.o(i.GrFontInfoGet), (48 bytes).
    Removing string.o(i.GrFontMaxWidthGet), (44 bytes).
    Removing string.o(i.GrFontNumBlocksGet), (32 bytes).
    Removing string.o(i.GrStringCodepageSet), (6 bytes).
    Removing string.o(i.GrStringGet), (596 bytes).
    Removing string.o(i.GrStringLanguageSet), (48 bytes).
    Removing string.o(i.GrStringNextCharGet), (52 bytes).
    Removing string.o(i.GrStringTableSet), (36 bytes).
    Removing string.o(i.GrStringWidthGet), (192 bytes).
    Removing string.o(.data), (20 bytes).
    Removing rt_cmsis.o(.rev16_text), (4 bytes).
    Removing rt_cmsis.o(.revsh_text), (4 bytes).
    Removing rt_cmsis.o(.rrx_text), (6 bytes).
    Removing rt_cmsis.o(i.isrSemaphoreRelease), (40 bytes).
    Removing rt_cmsis.o(i.osKernelRunning), (36 bytes).
    Removing rt_cmsis.o(i.osKernelSysTick), (24 bytes).
    Removing rt_cmsis.o(i.osMailCAlloc), (48 bytes).
    Removing rt_cmsis.o(i.osMailFree), (28 bytes).
    Removing rt_cmsis.o(i.osMutexDelete), (24 bytes).
    Removing rt_cmsis.o(i.osPoolCAlloc), (52 bytes).
    Removing rt_cmsis.o(i.osSemaphoreCreate), (44 bytes).
    Removing rt_cmsis.o(i.osSemaphoreDelete), (24 bytes).
    Removing rt_cmsis.o(i.osSemaphoreRelease), (24 bytes).
    Removing rt_cmsis.o(i.osSemaphoreWait), (24 bytes).
    Removing rt_cmsis.o(i.osThreadGetId), (24 bytes).
    Removing rt_cmsis.o(i.osThreadGetPriority), (24 bytes).
    Removing rt_cmsis.o(i.osThreadSetPriority), (24 bytes).
    Removing rt_cmsis.o(i.osThreadTerminate), (24 bytes).
    Removing rt_cmsis.o(i.osThreadYield), (24 bytes).
    Removing rt_cmsis.o(i.osTimerDelete), (24 bytes).
    Removing rt_cmsis.o(i.osTimerStart), (24 bytes).
    Removing rt_cmsis.o(i.osTimerStop), (24 bytes).
    Removing rt_cmsis.o(i.osWait), (4 bytes).
    Removing rt_cmsis.o(i.os_resume), (12 bytes).
    Removing rt_cmsis.o(i.os_suspend), (12 bytes).
    Removing rt_cmsis.o(i.rt_clr_box), (24 bytes).
    Removing rt_cmsis.o(i.rt_timer_remove), (60 bytes).
    Removing rt_cmsis.o(i.svcKernelRunning), (12 bytes).
    Removing rt_cmsis.o(i.svcKernelSysTick), (56 bytes).
    Removing rt_cmsis.o(i.svcMutexDelete), (26 bytes).
    Removing rt_cmsis.o(i.svcSemaphoreCreate), (36 bytes).
    Removing rt_cmsis.o(i.svcSemaphoreDelete), (26 bytes).
    Removing rt_cmsis.o(i.svcSemaphoreRelease), (40 bytes).
    Removing rt_cmsis.o(i.svcSemaphoreWait), (50 bytes).
    Removing rt_cmsis.o(i.svcThreadGetPriority), (18 bytes).
    Removing rt_cmsis.o(i.svcThreadSetPriority), (46 bytes).
    Removing rt_cmsis.o(i.svcThreadYield), (10 bytes).
    Removing rt_cmsis.o(i.svcTimerDelete), (40 bytes).
    Removing rt_cmsis.o(i.svcTimerStart), (100 bytes).
    Removing rt_cmsis.o(i.svcTimerStop), (36 bytes).
    Removing rt_cmsis.o(i.sysMailFree), (96 bytes).
    Removing rt_cmsis.o(i.sysUserTimerUpdate), (48 bytes).
    Removing rt_cmsis.o(i.sysUserTimerWakeupTime), (20 bytes).
    Removing rt_task.o(i.rt_tsk_pass), (48 bytes).
    Removing rt_mutex.o(i.rt_mut_delete), (176 bytes).
    Removing charmap.o(i.GrMapISO8859_10_Unicode), (32 bytes).
    Removing charmap.o(i.GrMapISO8859_11_Unicode), (16 bytes).
    Removing charmap.o(i.GrMapISO8859_13_Unicode), (32 bytes).
    Removing charmap.o(i.GrMapISO8859_14_Unicode), (96 bytes).
    Removing charmap.o(i.GrMapISO8859_15_Unicode), (88 bytes).
    Removing charmap.o(i.GrMapISO8859_16_Unicode), (32 bytes).
    Removing charmap.o(i.GrMapISO8859_2_Unicode), (32 bytes).
    Removing charmap.o(i.GrMapISO8859_3_Unicode), (32 bytes).
    Removing charmap.o(i.GrMapISO8859_4_Unicode), (32 bytes).
    Removing charmap.o(i.GrMapISO8859_5_Unicode), (16 bytes).
    Removing charmap.o(i.GrMapISO8859_6_Unicode), (22 bytes).
    Removing charmap.o(i.GrMapISO8859_7_Unicode), (44 bytes).
    Removing charmap.o(i.GrMapISO8859_8_Unicode), (38 bytes).
    Removing charmap.o(i.GrMapISO8859_9_Unicode), (68 bytes).
    Removing charmap.o(i.GrMapUTF16BE_Unicode), (6 bytes).
    Removing charmap.o(i.GrMapUTF16LE_Unicode), (6 bytes).
    Removing charmap.o(i.GrMapUTF16_Unicode), (120 bytes).
    Removing charmap.o(i.GrMapUTF8_Unicode), (146 bytes).
    Removing charmap.o(i.GrMapUnicode_Unicode), (22 bytes).
    Removing charmap.o(i.GrMapWIN1250_Unicode), (32 bytes).
    Removing charmap.o(i.GrMapWIN1251_Unicode), (48 bytes).
    Removing charmap.o(i.GrMapWIN1252_Unicode), (40 bytes).
    Removing charmap.o(i.GrMapWIN1253_Unicode), (48 bytes).
    Removing charmap.o(i.GrMapWIN1254_Unicode), (96 bytes).
    Removing charmap.o(.constdata), (1900 bytes).
    Removing rt_system.o(.emb_text), (0 bytes).
    Removing rt_system.o(i.os_tick_ovf), (16 bytes).
    Removing rt_system.o(i.os_tick_val), (20 bytes).
    Removing rt_system.o(i.rt_resume), (136 bytes).
    Removing rt_system.o(i.rt_suspend), (36 bytes).
    Removing rt_system.o(i.rt_tsk_lock), (80 bytes).
    Removing rt_system.o(i.rt_tsk_unlock), (80 bytes).
    Removing rt_event.o(i.rt_evt_get), (12 bytes).
    Removing rt_list.o(i.rt_get_same_rdy_prio), (36 bytes).
    Removing rt_semaphore.o(i.isr_sem_send), (16 bytes).
    Removing rt_semaphore.o(i.rt_sem_delete), (92 bytes).
    Removing rt_semaphore.o(i.rt_sem_init), (12 bytes).
    Removing rt_semaphore.o(i.rt_sem_send), (42 bytes).
    Removing rt_semaphore.o(i.rt_sem_wait), (64 bytes).
    Removing rt_time.o(i.rt_itv_set), (24 bytes).
    Removing rt_time.o(i.rt_itv_wait), (40 bytes).
    Removing rt_time.o(i.rt_time_get), (12 bytes).
    Removing rt_membox.o(i._calloc_box), (30 bytes).

462 unused section(s) (total 20422 bytes) removed from the image.

==============================================================================

Image Symbol Table

    Local Symbols

    Symbol Name                              Value     Ov Type        Size  Object(Section)

    RESET                                    0x00000000   Section      512  startup_tm4c129.o(RESET)
    ../clib/angel/boardlib.s                 0x00000000   Number         0  boardinit1.o ABSOLUTE
    ../clib/angel/boardlib.s                 0x00000000   Number         0  boardinit2.o ABSOLUTE
    ../clib/angel/boardlib.s                 0x00000000   Number         0  boardshut.o ABSOLUTE
    ../clib/angel/handlers.s                 0x00000000   Number         0  __scatter_zi.o ABSOLUTE
    ../clib/angel/handlers.s                 0x00000000   Number         0  __scatter_copy.o ABSOLUTE
    ../clib/angel/kernel.s                   0x00000000   Number         0  __rtentry.o ABSOLUTE
    ../clib/angel/kernel.s                   0x00000000   Number         0  rtexit.o ABSOLUTE
    ../clib/angel/kernel.s                   0x00000000   Number         0  __rtentry2.o ABSOLUTE
    ../clib/angel/kernel.s                   0x00000000   Number         0  __rtentry4.o ABSOLUTE
    ../clib/angel/kernel.s                   0x00000000   Number         0  rtexit2.o ABSOLUTE
    ../clib/angel/rt.s                       0x00000000   Number         0  rt_div0.o ABSOLUTE
    ../clib/angel/rt.s                       0x00000000   Number         0  rt_errno_addr.o ABSOLUTE
    ../clib/angel/rt.s                       0x00000000   Number         0  rt_raise.o ABSOLUTE
    ../clib/angel/rt.s                       0x00000000   Number         0  rt_errno_addr_intlibspace.o ABSOLUTE
    ../clib/angel/rt.s                       0x00000000   Number         0  rt_errno_addr_twolibspace.o ABSOLUTE
    ../clib/angel/rt.s                       0x00000000   Number         0  aeabi_ldiv0.o ABSOLUTE
    ../clib/angel/rt.s                       0x00000000   Number         0  aeabi_ldiv0_sigfpe.o ABSOLUTE
    ../clib/angel/scatter.s                  0x00000000   Number         0  __scatter.o ABSOLUTE
    ../clib/angel/startup.s                  0x00000000   Number         0  __main.o ABSOLUTE
    ../clib/angel/sys.s                      0x00000000   Number         0  sys_stackheap_outer.o ABSOLUTE
    ../clib/angel/sys.s                      0x00000000   Number         0  indicate_semi.o ABSOLUTE
    ../clib/angel/sys.s                      0x00000000   Number         0  libspace.o ABSOLUTE
    ../clib/angel/sys.s                      0x00000000   Number         0  use_no_semi.o ABSOLUTE
    ../clib/angel/sysapp.c                   0x00000000   Number         0  sys_exit.o ABSOLUTE
    ../clib/angel/sysapp.c                   0x00000000   Number         0  sys_command.o ABSOLUTE
    ../clib/angel/sysapp.c                   0x00000000   Number         0  sys_wrch.o ABSOLUTE
    ../clib/armsys.c                         0x00000000   Number         0  argv_veneer.o ABSOLUTE
    ../clib/armsys.c                         0x00000000   Number         0  no_argv.o ABSOLUTE
    ../clib/armsys.c                         0x00000000   Number         0  _get_argv_nomalloc.o ABSOLUTE
    ../clib/armsys.c                         0x00000000   Number         0  argv_veneer.o ABSOLUTE
    ../clib/fenv.c                           0x00000000   Number         0  _rserrno.o ABSOLUTE
    ../clib/heapalloc.c                      0x00000000   Number         0  hrguard.o ABSOLUTE
    ../clib/heapaux.c                        0x00000000   Number         0  heapauxi.o ABSOLUTE
    ../clib/libinit.s                        0x00000000   Number         0  libinit2.o ABSOLUTE
    ../clib/libinit.s                        0x00000000   Number         0  libinit.o ABSOLUTE
    ../clib/libinit.s                        0x00000000   Number         0  libshutdown.o ABSOLUTE
    ../clib/libinit.s                        0x00000000   Number         0  libshutdown2.o ABSOLUTE
    ../clib/longlong.s                       0x00000000   Number         0  lludivv7m.o ABSOLUTE
    ../clib/longlong.s                       0x00000000   Number         0  llsdiv.o ABSOLUTE
    ../clib/signal.c                         0x00000000   Number         0  defsig_general.o ABSOLUTE
    ../clib/signal.c                         0x00000000   Number         0  defsig_exit.o ABSOLUTE
    ../clib/signal.c                         0x00000000   Number         0  defsig_segv_inner.o ABSOLUTE
    ../clib/signal.c                         0x00000000   Number         0  defsig_fpe_inner.o ABSOLUTE
    ../clib/signal.c                         0x00000000   Number         0  defsig_fpe_outer.o ABSOLUTE
    ../clib/signal.c                         0x00000000   Number         0  defsig_rtmem_outer.o ABSOLUTE
    ../clib/signal.c                         0x00000000   Number         0  defsig_fpe_formal.o ABSOLUTE
    ../clib/signal.c                         0x00000000   Number         0  defsig_other.o ABSOLUTE
    ../clib/signal.c                         0x00000000   Number         0  __raise.o ABSOLUTE
    ../clib/signal.c                         0x00000000   Number         0  defsig_cppl_inner.o ABSOLUTE
    ../clib/signal.c                         0x00000000   Number         0  defsig_pvfn_inner.o ABSOLUTE
    ../clib/signal.c                         0x00000000   Number         0  defsig_rtmem_formal.o ABSOLUTE
    ../clib/signal.c                         0x00000000   Number         0  defsig_rtmem_inner.o ABSOLUTE
    ../clib/signal.c                         0x00000000   Number         0  defsig_rtred_inner.o ABSOLUTE
    ../clib/signal.c                         0x00000000   Number         0  defsig_abrt_inner.o ABSOLUTE
    ../clib/signal.c                         0x00000000   Number         0  defsig_stak_inner.o ABSOLUTE
    ../clib/signal.s                         0x00000000   Number         0  defsig.o ABSOLUTE
    ../clib/stdlib.c                         0x00000000   Number         0  exit.o ABSOLUTE
    ../fplib/basic.s                         0x00000000   Number         0  basic.o ABSOLUTE
    ../fplib/d2f.s                           0x00000000   Number         0  d2f.o ABSOLUTE
    ../fplib/daddsub.s                       0x00000000   Number         0  daddsub_clz.o ABSOLUTE
    ../fplib/ddiv.s                          0x00000000   Number         0  ddiv.o ABSOLUTE
    ../fplib/dfix.s                          0x00000000   Number         0  dfix.o ABSOLUTE
    ../fplib/dfixu.s                         0x00000000   Number         0  dfixu.o ABSOLUTE
    ../fplib/dflt.s                          0x00000000   Number         0  dflt_clz.o ABSOLUTE
    ../fplib/dmul.s                          0x00000000   Number         0  dmul.o ABSOLUTE
    ../fplib/dnaninf.s                       0x00000000   Number         0  dnaninf.o ABSOLUTE
    ../fplib/dretinf.s                       0x00000000   Number         0  dretinf.o ABSOLUTE
    ../fplib/f2d.s                           0x00000000   Number         0  f2d.o ABSOLUTE
    ../fplib/ffixll.s                        0x00000000   Number         0  ffixll.o ABSOLUTE
    ../fplib/fnaninf.s                       0x00000000   Number         0  fnaninf.o ABSOLUTE
    ../fplib/fpinit.s                        0x00000000   Number         0  fpinit.o ABSOLUTE
    ../fplib/fretinf.s                       0x00000000   Number         0  fretinf.o ABSOLUTE
    ../fplib/usenofp.s                       0x00000000   Number         0  usenofp.o ABSOLUTE
    ../mathlib/cos_i.c                       0x00000000   Number         0  cos_i.o ABSOLUTE
    ../mathlib/dunder.c                      0x00000000   Number         0  dunder.o ABSOLUTE
    ../mathlib/fabs.c                        0x00000000   Number         0  fabs.o ABSOLUTE
    ../mathlib/fpclassify.c                  0x00000000   Number         0  fpclassify.o ABSOLUTE
    ../mathlib/poly.c                        0x00000000   Number         0  poly.o ABSOLUTE
    ../mathlib/rred.c                        0x00000000   Number         0  rred.o ABSOLUTE
    ../mathlib/sin.c                         0x00000000   Number         0  sin.o ABSOLUTE
    ../mathlib/sin.c                         0x00000000   Number         0  sin_x.o ABSOLUTE
    ../mathlib/sin_i.c                       0x00000000   Number         0  sin_i_x.o ABSOLUTE
    ../mathlib/sin_i.c                       0x00000000   Number         0  sin_i.o ABSOLUTE
    ..\HAL_CM.c                              0x00000000   Number         0  hal_cm.o ABSOLUTE
    ..\\rt_CMSIS.c                           0x00000000   Number         0  rt_cmsis.o ABSOLUTE
    ..\\rt_System.c                          0x00000000   Number         0  rt_system.o ABSOLUTE
    ..\rt_CMSIS.c                            0x00000000   Number         0  rt_cmsis.o ABSOLUTE
    ..\rt_Event.c                            0x00000000   Number         0  rt_event.o ABSOLUTE
    ..\rt_List.c                             0x00000000   Number         0  rt_list.o ABSOLUTE
    ..\rt_Mailbox.c                          0x00000000   Number         0  rt_mailbox.o ABSOLUTE
    ..\rt_MemBox.c                           0x00000000   Number         0  rt_membox.o ABSOLUTE
    ..\rt_Memory.c                           0x00000000   Number         0  rt_memory.o ABSOLUTE
    ..\rt_Mutex.c                            0x00000000   Number         0  rt_mutex.o ABSOLUTE
    ..\rt_Robin.c                            0x00000000   Number         0  rt_robin.o ABSOLUTE
    ..\rt_Semaphore.c                        0x00000000   Number         0  rt_semaphore.o ABSOLUTE
    ..\rt_System.c                           0x00000000   Number         0  rt_system.o ABSOLUTE
    ..\rt_Task.c                             0x00000000   Number         0  rt_task.o ABSOLUTE
    ..\rt_Time.c                             0x00000000   Number         0  rt_time.o ABSOLUTE
    HAL_CM4.c                                0x00000000   Number         0  hal_cm4.o ABSOLUTE
    HAL_CM4.c                                0x00000000   Number         0  hal_cm4.o ABSOLUTE
    PWM.c                                    0x00000000   Number         0  pwm.o ABSOLUTE
    RTE\CMSIS\RTX_Conf_CM.c                  0x00000000   Number         0  rtx_conf_cm.o ABSOLUTE
    RTE\Device\TM4C1294NCPDT\startup_TM4C129.s 0x00000000   Number         0  startup_tm4c129.o ABSOLUTE
    RTE\Device\TM4C1294NCPDT\system_TM4C129.c 0x00000000   Number         0  system_tm4c129.o ABSOLUTE
    RTE\\CMSIS\\RTX_Conf_CM.c                0x00000000   Number         0  rtx_conf_cm.o ABSOLUTE
    RTE\\Device\\TM4C1294NCPDT\\system_TM4C129.c 0x00000000   Number         0  system_tm4c129.o ABSOLUTE
    SVC_Table.s                              0x00000000   Number         0  svc_table.o ABSOLUTE
    UART.c                                   0x00000000   Number         0  uart.o ABSOLUTE
    UART.c                                   0x00000000   Number         0  uart.o ABSOLUTE
    accel.c                                  0x00000000   Number         0  accel.o ABSOLUTE
    adc.c                                    0x00000000   Number         0  adc.o ABSOLUTE
    buttons.c                                0x00000000   Number         0  buttons.o ABSOLUTE
    buzzer.c                                 0x00000000   Number         0  buzzer.o ABSOLUTE
    cfaf128x128x16.c                         0x00000000   Number         0  cfaf128x128x16.o ABSOLUTE
    charmap.c                                0x00000000   Number         0  charmap.o ABSOLUTE
    context.c                                0x00000000   Number         0  context.o ABSOLUTE
    cpu.c                                    0x00000000   Number         0  cpu.o ABSOLUTE
    cpu.c                                    0x00000000   Number         0  cpu.o ABSOLUTE
    dc.s                                     0x00000000   Number         0  dc.o ABSOLUTE
    exemploTIVA.c                            0x00000000   Number         0  exemplotiva.o ABSOLUTE
    exemploTIVA.c                            0x00000000   Number         0  exemplotiva.o ABSOLUTE
    fonts\fontfixed6x8.c                     0x00000000   Number         0  fontfixed6x8.o ABSOLUTE
    gpio.c                                   0x00000000   Number         0  gpio.o ABSOLUTE
    i2c.c                                    0x00000000   Number         0  i2c.o ABSOLUTE
    interrupt.c                              0x00000000   Number         0  interrupt.o ABSOLUTE
    joy.c                                    0x00000000   Number         0  joy.o ABSOLUTE
    led.c                                    0x00000000   Number         0  led.o ABSOLUTE
    led.c                                    0x00000000   Number         0  led.o ABSOLUTE
    mic.c                                    0x00000000   Number         0  mic.o ABSOLUTE
    opt.c                                    0x00000000   Number         0  opt.o ABSOLUTE
    pwm.c                                    0x00000000   Number         0  pwm.o ABSOLUTE
    rgb.c                                    0x00000000   Number         0  rgb.o ABSOLUTE
    servo.c                                  0x00000000   Number         0  servo.o ABSOLUTE
    string.c                                 0x00000000   Number         0  string.o ABSOLUTE
    sysctl.c                                 0x00000000   Number         0  sysctl.o ABSOLUTE
    sysctl.c                                 0x00000000   Number         0  sysctl.o ABSOLUTE
    temp.c                                   0x00000000   Number         0  temp.o ABSOLUTE
    timer.c                                  0x00000000   Number         0  timer.o ABSOLUTE
    uart.c                                   0x00000000   Number         0  uart.o ABSOLUTE
    utils.s                                  0x00000000   Number         0  utils.o ABSOLUTE
    !!!main                                  0x00000200   Section        8  __main.o(!!!main)
    !!!scatter                               0x00000208   Section       52  __scatter.o(!!!scatter)
    !!handler_copy                           0x0000023c   Section       26  __scatter_copy.o(!!handler_copy)
    !!handler_zi                             0x00000258   Section       28  __scatter_zi.o(!!handler_zi)
    .ARM.Collect$$libinit$$00000000          0x00000274   Section        2  libinit.o(.ARM.Collect$$libinit$$00000000)
    .ARM.Collect$$libinit$$00000001          0x00000276   Section        4  libinit2.o(.ARM.Collect$$libinit$$00000001)
    .ARM.Collect$$libinit$$00000004          0x0000027a   Section        0  libinit2.o(.ARM.Collect$$libinit$$00000004)
    .ARM.Collect$$libinit$$0000000A          0x0000027a   Section        0  libinit2.o(.ARM.Collect$$libinit$$0000000A)
    .ARM.Collect$$libinit$$0000000C          0x0000027a   Section        0  libinit2.o(.ARM.Collect$$libinit$$0000000C)
    .ARM.Collect$$libinit$$0000000E          0x0000027a   Section        0  libinit2.o(.ARM.Collect$$libinit$$0000000E)
    .ARM.Collect$$libinit$$00000011          0x0000027a   Section        0  libinit2.o(.ARM.Collect$$libinit$$00000011)
    .ARM.Collect$$libinit$$00000013          0x0000027a   Section        0  libinit2.o(.ARM.Collect$$libinit$$00000013)
    .ARM.Collect$$libinit$$00000015          0x0000027a   Section        0  libinit2.o(.ARM.Collect$$libinit$$00000015)
    .ARM.Collect$$libinit$$00000017          0x0000027a   Section        0  libinit2.o(.ARM.Collect$$libinit$$00000017)
    .ARM.Collect$$libinit$$00000019          0x0000027a   Section        0  libinit2.o(.ARM.Collect$$libinit$$00000019)
    .ARM.Collect$$libinit$$0000001B          0x0000027a   Section        0  libinit2.o(.ARM.Collect$$libinit$$0000001B)
    .ARM.Collect$$libinit$$0000001D          0x0000027a   Section        0  libinit2.o(.ARM.Collect$$libinit$$0000001D)
    .ARM.Collect$$libinit$$0000001F          0x0000027a   Section        0  libinit2.o(.ARM.Collect$$libinit$$0000001F)
    .ARM.Collect$$libinit$$00000021          0x0000027a   Section        0  libinit2.o(.ARM.Collect$$libinit$$00000021)
    .ARM.Collect$$libinit$$00000023          0x0000027a   Section        0  libinit2.o(.ARM.Collect$$libinit$$00000023)
    .ARM.Collect$$libinit$$00000025          0x0000027a   Section        0  libinit2.o(.ARM.Collect$$libinit$$00000025)
    .ARM.Collect$$libinit$$0000002C          0x0000027a   Section        0  libinit2.o(.ARM.Collect$$libinit$$0000002C)
    .ARM.Collect$$libinit$$0000002E          0x0000027a   Section        0  libinit2.o(.ARM.Collect$$libinit$$0000002E)
    .ARM.Collect$$libinit$$00000030          0x0000027a   Section        0  libinit2.o(.ARM.Collect$$libinit$$00000030)
    .ARM.Collect$$libinit$$00000032          0x0000027a   Section        0  libinit2.o(.ARM.Collect$$libinit$$00000032)
    .ARM.Collect$$libinit$$00000033          0x0000027a   Section        2  libinit2.o(.ARM.Collect$$libinit$$00000033)
    .ARM.Collect$$libshutdown$$00000000      0x0000027c   Section        2  libshutdown.o(.ARM.Collect$$libshutdown$$00000000)
    .ARM.Collect$$libshutdown$$00000002      0x0000027e   Section        0  libshutdown2.o(.ARM.Collect$$libshutdown$$00000002)
    .ARM.Collect$$libshutdown$$00000004      0x0000027e   Section        0  libshutdown2.o(.ARM.Collect$$libshutdown$$00000004)
    .ARM.Collect$$libshutdown$$00000007      0x0000027e   Section        0  libshutdown2.o(.ARM.Collect$$libshutdown$$00000007)
    .ARM.Collect$$libshutdown$$0000000A      0x0000027e   Section        0  libshutdown2.o(.ARM.Collect$$libshutdown$$0000000A)
    .ARM.Collect$$libshutdown$$0000000C      0x0000027e   Section        0  libshutdown2.o(.ARM.Collect$$libshutdown$$0000000C)
    .ARM.Collect$$libshutdown$$0000000F      0x0000027e   Section        0  libshutdown2.o(.ARM.Collect$$libshutdown$$0000000F)
    .ARM.Collect$$libshutdown$$00000010      0x0000027e   Section        2  libshutdown2.o(.ARM.Collect$$libshutdown$$00000010)
    .ARM.Collect$$rtentry$$00000000          0x00000280   Section        0  __rtentry.o(.ARM.Collect$$rtentry$$00000000)
    .ARM.Collect$$rtentry$$00000002          0x00000280   Section        0  __rtentry2.o(.ARM.Collect$$rtentry$$00000002)
    .ARM.Collect$$rtentry$$00000004          0x00000280   Section        6  __rtentry4.o(.ARM.Collect$$rtentry$$00000004)
    .ARM.Collect$$rtentry$$00000009          0x00000286   Section        0  __rtentry2.o(.ARM.Collect$$rtentry$$00000009)
    .ARM.Collect$$rtentry$$0000000A          0x00000286   Section        4  __rtentry2.o(.ARM.Collect$$rtentry$$0000000A)
    .ARM.Collect$$rtentry$$0000000B          0x0000028a   Section        8  __rtentry2.o(.ARM.Collect$$rtentry$$0000000B)
    .ARM.Collect$$rtentry$$0000000D          0x00000292   Section        8  __rtentry2.o(.ARM.Collect$$rtentry$$0000000D)
    .ARM.Collect$$rtexit$$00000000           0x0000029a   Section        2  rtexit.o(.ARM.Collect$$rtexit$$00000000)
    .ARM.Collect$$rtexit$$00000002           0x0000029c   Section        0  rtexit2.o(.ARM.Collect$$rtexit$$00000002)
    .ARM.Collect$$rtexit$$00000003           0x0000029c   Section        4  rtexit2.o(.ARM.Collect$$rtexit$$00000003)
    .ARM.Collect$$rtexit$$00000004           0x000002a0   Section        6  rtexit2.o(.ARM.Collect$$rtexit$$00000004)
    .emb_text                                0x000002a8   Section       28  rtx_conf_cm.o(.emb_text)
    $v0                                      0x000002a8   Number         0  rtx_conf_cm.o(.emb_text)
    .emb_text                                0x000002c4   Section        6  sysctl.o(.emb_text)
    $v0                                      0x000002c4   Number         0  sysctl.o(.emb_text)
    .emb_text                                0x000002cc   Section       38  cpu.o(.emb_text)
    $v0                                      0x000002cc   Number         0  cpu.o(.emb_text)
    .emb_text                                0x000002f4   Section      408  hal_cm4.o(.emb_text)
    $v0                                      0x000002f4   Number         0  hal_cm4.o(.emb_text)
    .text                                    0x0000048c   Section        0  exemplotiva.o(.text)
    intToString                              0x0000048f   Thumb Code   198  exemplotiva.o(.text)
    floatToString                            0x00000555   Thumb Code   180  exemplotiva.o(.text)
    .text                                    0x000011b4   Section        0  pwm.o(.text)
    .text                                    0x000012d8   Section        0  uart.o(.text)
    .text                                    0x000015f4   Section      492  utils.o(.text)
    $v0                                      0x000015f4   Number         0  utils.o(.text)
    .text                                    0x000017e0   Section        0  buzzer.o(.text)
    buzzer_div_set                           0x000017e1   Thumb Code    76  buzzer.o(.text)
    .text                                    0x00001934   Section        0  buttons.o(.text)
    .text                                    0x00001990   Section        0  cfaf128x128x16.o(.text)
    swap_ui16                                0x00001991   Thumb Code    10  cfaf128x128x16.o(.text)
    swap_i32                                 0x0000199b   Thumb Code    10  cfaf128x128x16.o(.text)
    cfaf128x128x16SsiTransfer                0x000019a5   Thumb Code    46  cfaf128x128x16.o(.text)
    cfaf128x128x16WriteCommand               0x000019d3   Thumb Code    56  cfaf128x128x16.o(.text)
    cfaf128x128x16WriteData                  0x00001a0b   Thumb Code    70  cfaf128x128x16.o(.text)
    cfaf128x128x16WriteRegister              0x00001a51   Thumb Code    16  cfaf128x128x16.o(.text)
    cfaf128x128x16SetWindow                  0x00001a61   Thumb Code   192  cfaf128x128x16.o(.text)
    cfaf128x128x16PixelDraw                  0x00001bc1   Thumb Code    10  cfaf128x128x16.o(.text)
    cfaf128x128x16PixelDrawMultiple          0x00001bcb   Thumb Code   360  cfaf128x128x16.o(.text)
    cfaf128x128x16LineDrawH                  0x00001d33   Thumb Code    46  cfaf128x128x16.o(.text)
    cfaf128x128x16LineDrawV                  0x00001d61   Thumb Code    60  cfaf128x128x16.o(.text)
    cfaf128x128x16RectFill                   0x00001d9d   Thumb Code    80  cfaf128x128x16.o(.text)
    cfaf128x128x16ColorTranslate             0x00001ded   Thumb Code    22  cfaf128x128x16.o(.text)
    cfaf128x128x16Flush                      0x00001e03   Thumb Code     2  cfaf128x128x16.o(.text)
    .text                                    0x0000208c   Section        0  rtx_conf_cm.o(.text)
    __tagsym$$used                           0x000020d3   Number         0  rtx_conf_cm.o(.text)
    __tagsym$$used                           0x000020e9   Number         0  rtx_conf_cm.o(.text)
    .text                                    0x00002118   Section      300  startup_tm4c129.o(.text)
    $v0                                      0x00002118   Number         0  startup_tm4c129.o(.text)
    .text                                    0x00002244   Section        0  system_tm4c129.o(.text)
    .text                                    0x0000226c   Section        8  libspace.o(.text)
    .text                                    0x00002274   Section      238  lludivv7m.o(.text)
    .text                                    0x00002362   Section       72  llsdiv.o(.text)
    .text                                    0x000023aa   Section        0  exit.o(.text)
    .text                                    0x000023bc   Section        0  heapauxi.o(.text)
    .text                                    0x000023c2   Section        0  _rserrno.o(.text)
    .text                                    0x000023d8   Section        4  rt_errno_addr_twolibspace.o(.text)
    .text                                    0x000023dc   Section        0  sys_exit.o(.text)
    .text                                    0x000023e8   Section       74  sys_stackheap_outer.o(.text)
    .text                                    0x00002432   Section        2  use_no_semi.o(.text)
    .text                                    0x00002434   Section        0  indicate_semi.o(.text)
    SVC_TABLE                                0x00002434   Section        4  svc_table.o(SVC_TABLE)
    i.GPIODirModeSet                         0x00002438   Section        0  gpio.o(i.GPIODirModeSet)
    i.GPIOPadConfigSet                       0x00002460   Section        0  gpio.o(i.GPIOPadConfigSet)
    i.GPIOPinConfigure                       0x00002598   Section        0  gpio.o(i.GPIOPinConfigure)
    i.GPIOPinRead                            0x000025dc   Section        0  gpio.o(i.GPIOPinRead)
    i.GPIOPinTypeGPIOInput                   0x000025e2   Section        0  gpio.o(i.GPIOPinTypeGPIOInput)
    i.GPIOPinTypePWM                         0x000025fe   Section        0  gpio.o(i.GPIOPinTypePWM)
    i.GPIOPinTypeUART                        0x0000261a   Section        0  gpio.o(i.GPIOPinTypeUART)
    i.GrContextFontSet                       0x00002636   Section        0  string.o(i.GrContextFontSet)
    i.GrContextInit                          0x0000263c   Section        0  context.o(i.GrContextInit)
    i.GrDefaultStringRenderer                0x000026a0   Section        0  string.o(i.GrDefaultStringRenderer)
    i.GrFontGlyphDataGet                     0x000027b8   Section        0  string.o(i.GrFontGlyphDataGet)
    i.GrFontGlyphRender                      0x0000285e   Section        0  string.o(i.GrFontGlyphRender)
    i.GrMapISO8859_1_Unicode                 0x00002ae6   Section        0  charmap.o(i.GrMapISO8859_1_Unicode)
    i.GrStringDraw                           0x00002aee   Section        0  string.o(i.GrStringDraw)
    i.IntEnable                              0x00002b10   Section        0  interrupt.o(i.IntEnable)
    i.IntMasterEnable                        0x00002b74   Section        0  interrupt.o(i.IntMasterEnable)
    i.PWMClockSet                            0x00002b82   Section        0  pwm.o(i.PWMClockSet)
    i.PWMGenConfigure                        0x00002b96   Section        0  pwm.o(i.PWMGenConfigure)
    i.PWMGenEnable                           0x00002bbc   Section        0  pwm.o(i.PWMGenEnable)
    i.PWMGenPeriodGet                        0x00002bc6   Section        0  pwm.o(i.PWMGenPeriodGet)
    i.PWMGenPeriodSet                        0x00002bd8   Section        0  pwm.o(i.PWMGenPeriodSet)
    i.PWMOutputInvert                        0x00002bea   Section        0  pwm.o(i.PWMOutputInvert)
    i.PWMOutputState                         0x00002bfa   Section        0  pwm.o(i.PWMOutputState)
    i.PWMPulseWidthSet                       0x00002c0a   Section        0  pwm.o(i.PWMPulseWidthSet)
    i.SysCtlClockFreqSet                     0x00002c2c   Section        0  sysctl.o(i.SysCtlClockFreqSet)
    i.SysCtlClockGet                         0x00002f18   Section        0  sysctl.o(i.SysCtlClockGet)
    i.SysCtlPeripheralEnable                 0x0000306c   Section        0  sysctl.o(i.SysCtlPeripheralEnable)
    i.SysCtlPeripheralReady                  0x00003094   Section        0  sysctl.o(i.SysCtlPeripheralReady)
    i.TimerConfigure                         0x000030c0   Section        0  timer.o(i.TimerConfigure)
    i.TimerEnable                            0x00003120   Section        0  timer.o(i.TimerEnable)
    i.TimerIntClear                          0x0000312e   Section        0  timer.o(i.TimerIntClear)
    i.TimerIntEnable                         0x00003132   Section        0  timer.o(i.TimerIntEnable)
    i.TimerLoadSet                           0x0000313a   Section        0  timer.o(i.TimerLoadSet)
    i.UARTConfigSetExpClk                    0x0000314c   Section        0  uart.o(i.UARTConfigSetExpClk)
    i.UARTEnable                             0x000031ba   Section        0  uart.o(i.UARTEnable)
    i.UpdateContextCharMapping               0x000031ce   Section        0  string.o(i.UpdateContextCharMapping)
    UpdateContextCharMapping                 0x000031cf   Thumb Code   108  string.o(i.UpdateContextCharMapping)
    i.__ARM_fpclassify                       0x0000323a   Section        0  fpclassify.o(i.__ARM_fpclassify)
    i.__hardfp_sin                           0x00003270   Section        0  sin.o(i.__hardfp_sin)
    i.__ieee754_rem_pio2                     0x00003338   Section        0  rred.o(i.__ieee754_rem_pio2)
    i.__kernel_cos                           0x00003770   Section        0  cos_i.o(i.__kernel_cos)
    i.__kernel_poly                          0x000038e0   Section        0  poly.o(i.__kernel_poly)
    i.__kernel_sin                           0x000039d8   Section        0  sin_i.o(i.__kernel_sin)
    i.__mathlib_dbl_infnan                   0x00003b08   Section        0  dunder.o(i.__mathlib_dbl_infnan)
    i.__mathlib_dbl_invalid                  0x00003b20   Section        0  dunder.o(i.__mathlib_dbl_invalid)
    i.__mathlib_dbl_underflow                0x00003b40   Section        0  dunder.o(i.__mathlib_dbl_underflow)
    i._init_box                              0x00003b60   Section        0  rt_membox.o(i._init_box)
    i.dbg_init                               0x00003ba8   Section        0  hal_cm.o(i.dbg_init)
    i.dbg_task_notify                        0x00003bd8   Section        0  hal_cm.o(i.dbg_task_notify)
    i.dbg_task_switch                        0x00003bf8   Section        0  hal_cm.o(i.dbg_task_switch)
    i.fabs                                   0x00003c08   Section        0  fabs.o(i.fabs)
    i.isrMessageGet                          0x00003c20   Section        0  rt_cmsis.o(i.isrMessageGet)
    i.isrMessagePut                          0x00003c4a   Section        0  rt_cmsis.o(i.isrMessagePut)
    i.isrSignalSet                           0x00003c76   Section        0  rt_cmsis.o(i.isrSignalSet)
    i.isr_evt_set                            0x00003c9c   Section        0  rt_event.o(i.isr_evt_set)
    i.isr_mbx_receive                        0x00003cc4   Section        0  rt_mailbox.o(i.isr_mbx_receive)
    i.isr_mbx_send                           0x00003d1a   Section        0  rt_mailbox.o(i.isr_mbx_send)
    i.osDelay                                0x00003d28   Section        0  rt_cmsis.o(i.osDelay)
    i.osKernelInitialize                     0x00003d40   Section        0  rt_cmsis.o(i.osKernelInitialize)
    i.osKernelStart                          0x00003d64   Section        0  rt_cmsis.o(i.osKernelStart)
    i.osMailAlloc                            0x00003dd0   Section        0  rt_cmsis.o(i.osMailAlloc)
    i.osMailCreate                           0x00003dec   Section        0  rt_cmsis.o(i.osMailCreate)
    i.osMailGet                              0x00003e18   Section        0  rt_cmsis.o(i.osMailGet)
    i.osMailPut                              0x00003e2e   Section        0  rt_cmsis.o(i.osMailPut)
    i.osMessageCreate                        0x00003e44   Section        0  rt_cmsis.o(i.osMessageCreate)
    i.osMessageGet                           0x00003e70   Section        0  rt_cmsis.o(i.osMessageGet)
    i.osMessagePut                           0x00003e88   Section        0  rt_cmsis.o(i.osMessagePut)
    i.osMutexCreate                          0x00003ea0   Section        0  rt_cmsis.o(i.osMutexCreate)
    i.osMutexRelease                         0x00003ecc   Section        0  rt_cmsis.o(i.osMutexRelease)
    i.osMutexWait                            0x00003ee4   Section        0  rt_cmsis.o(i.osMutexWait)
    i.osPoolAlloc                            0x00003efc   Section        0  rt_cmsis.o(i.osPoolAlloc)
    i.osPoolCreate                           0x00003f1c   Section        0  rt_cmsis.o(i.osPoolCreate)
    i.osPoolFree                             0x00003f48   Section        0  rt_cmsis.o(i.osPoolFree)
    i.osSignalClear                          0x00003f68   Section        0  rt_cmsis.o(i.osSignalClear)
    i.osSignalSet                            0x00003f80   Section        0  rt_cmsis.o(i.osSignalSet)
    i.osSignalWait                           0x00003f98   Section        0  rt_cmsis.o(i.osSignalWait)
    i.osThreadCreate                         0x00003fb0   Section        0  rt_cmsis.o(i.osThreadCreate)
    i.osThreadExit                           0x00003fdc   Section        0  rt_cmsis.o(i.osThreadExit)
    i.osTimerCall                            0x00003ff4   Section        0  rt_cmsis.o(i.osTimerCall)
    i.osTimerCreate                          0x00004000   Section        0  rt_cmsis.o(i.osTimerCreate)
    i.osTimerThread                          0x0000402c   Section        0  rt_cmsis.o(i.osTimerThread)
    i.os_tick_init                           0x00004058   Section        0  rt_system.o(i.os_tick_init)
    i.os_tick_irqack                         0x00004080   Section        0  rt_system.o(i.os_tick_irqack)
    i.rt_alloc_box                           0x00004082   Section        0  rt_membox.o(i.rt_alloc_box)
    i.rt_alloc_mem                           0x0000409c   Section        0  rt_memory.o(i.rt_alloc_mem)
    i.rt_block                               0x000040dc   Section        0  rt_task.o(i.rt_block)
    i.rt_chk_robin                           0x00004114   Section        0  rt_robin.o(i.rt_chk_robin)
    i.rt_dec_dly                             0x0000415c   Section        0  rt_list.o(i.rt_dec_dly)
    i.rt_dispatch                            0x000041cc   Section        0  rt_task.o(i.rt_dispatch)
    i.rt_dly_wait                            0x00004210   Section        0  rt_time.o(i.rt_dly_wait)
    i.rt_evt_clr                             0x00004218   Section        0  rt_event.o(i.rt_evt_clr)
    i.rt_evt_psh                             0x00004234   Section        0  rt_event.o(i.rt_evt_psh)
    i.rt_evt_set                             0x00004284   Section        0  rt_event.o(i.rt_evt_set)
    i.rt_evt_wait                            0x000042e0   Section        0  rt_event.o(i.rt_evt_wait)
    i.rt_free_box                            0x0000431c   Section        0  rt_membox.o(i.rt_free_box)
    i.rt_free_mem                            0x00004348   Section        0  rt_memory.o(i.rt_free_mem)
    i.rt_get_first                           0x00004370   Section        0  rt_list.o(i.rt_get_first)
    i.rt_id2obj                              0x00004398   Section        0  rt_cmsis.o(i.rt_id2obj)
    rt_id2obj                                0x00004399   Thumb Code     8  rt_cmsis.o(i.rt_id2obj)
    i.rt_init_context                        0x000043a0   Section        0  rt_task.o(i.rt_init_context)
    rt_init_context                          0x000043a1   Thumb Code    66  rt_task.o(i.rt_init_context)
    i.rt_init_mem                            0x000043e8   Section        0  rt_memory.o(i.rt_init_mem)
    i.rt_init_robin                          0x00004404   Section        0  rt_robin.o(i.rt_init_robin)
    i.rt_init_stack                          0x0000441c   Section        0  hal_cm.o(i.rt_init_stack)
    i.rt_mbx_check                           0x0000449c   Section        0  rt_mailbox.o(i.rt_mbx_check)
    i.rt_mbx_init                            0x000044a4   Section        0  rt_mailbox.o(i.rt_mbx_init)
    i.rt_mbx_psh                             0x000044c0   Section        0  rt_mailbox.o(i.rt_mbx_psh)
    i.rt_mbx_send                            0x000045b0   Section        0  rt_mailbox.o(i.rt_mbx_send)
    i.rt_mbx_wait                            0x00004648   Section        0  rt_mailbox.o(i.rt_mbx_wait)
    i.rt_ms2tick                             0x000046fc   Section        0  rt_cmsis.o(i.rt_ms2tick)
    rt_ms2tick                               0x000046fd   Thumb Code    58  rt_cmsis.o(i.rt_ms2tick)
    i.rt_mut_init                            0x00004740   Section        0  rt_mutex.o(i.rt_mut_init)
    i.rt_mut_release                         0x00004750   Section        0  rt_mutex.o(i.rt_mut_release)
    i.rt_mut_wait                            0x00004828   Section        0  rt_mutex.o(i.rt_mut_wait)
    i.rt_pop_req                             0x000048a0   Section        0  rt_system.o(i.rt_pop_req)
    i.rt_psh_req                             0x0000491c   Section        0  rt_system.o(i.rt_psh_req)
    i.rt_psq_enq                             0x0000493c   Section        0  rt_list.o(i.rt_psq_enq)
    i.rt_put_dly                             0x00004998   Section        0  rt_list.o(i.rt_put_dly)
    i.rt_put_prio                            0x000049e0   Section        0  rt_list.o(i.rt_put_prio)
    i.rt_put_rdy_first                       0x00004a18   Section        0  rt_list.o(i.rt_put_rdy_first)
    i.rt_resort_prio                         0x00004a2c   Section        0  rt_list.o(i.rt_resort_prio)
    i.rt_ret_regs                            0x00004a60   Section        0  hal_cm.o(i.rt_ret_regs)
    rt_ret_regs                              0x00004a61   Thumb Code    16  hal_cm.o(i.rt_ret_regs)
    i.rt_ret_val                             0x00004a70   Section        0  hal_cm.o(i.rt_ret_val)
    i.rt_ret_val2                            0x00004a7c   Section        0  hal_cm.o(i.rt_ret_val2)
    i.rt_rmv_dly                             0x00004a8c   Section        0  rt_list.o(i.rt_rmv_dly)
    i.rt_rmv_list                            0x00004ab4   Section        0  rt_list.o(i.rt_rmv_list)
    i.rt_sem_psh                             0x00004ae4   Section        0  rt_semaphore.o(i.rt_sem_psh)
    i.rt_stk_check                           0x00004b18   Section        0  rt_system.o(i.rt_stk_check)
    i.rt_switch_req                          0x00004b3c   Section        0  rt_task.o(i.rt_switch_req)
    i.rt_sys_init                            0x00004b64   Section        0  rt_task.o(i.rt_sys_init)
    i.rt_sys_start                           0x00004c30   Section        0  rt_task.o(i.rt_sys_start)
    i.rt_systick                             0x00004ca8   Section        0  rt_system.o(i.rt_systick)
    i.rt_tid2ptcb                            0x00004ce8   Section        0  rt_cmsis.o(i.rt_tid2ptcb)
    rt_tid2ptcb                              0x00004ce9   Thumb Code    18  rt_cmsis.o(i.rt_tid2ptcb)
    i.rt_timer_insert                        0x00004cfc   Section        0  rt_cmsis.o(i.rt_timer_insert)
    rt_timer_insert                          0x00004cfd   Thumb Code    48  rt_cmsis.o(i.rt_timer_insert)
    i.rt_tsk_create                          0x00004d30   Section        0  rt_task.o(i.rt_tsk_create)
    i.rt_tsk_delete                          0x00004db8   Section        0  rt_task.o(i.rt_tsk_delete)
    i.rt_tsk_prio                            0x00004f34   Section        0  rt_task.o(i.rt_tsk_prio)
    i.rt_tsk_self                            0x00004fb0   Section        0  rt_task.o(i.rt_tsk_self)
    i.svcDelay                               0x00004fc0   Section        0  rt_cmsis.o(i.svcDelay)
    i.svcKernelInitialize                    0x00004fd4   Section        0  rt_cmsis.o(i.svcKernelInitialize)
    i.svcKernelStart                         0x00005044   Section        0  rt_cmsis.o(i.svcKernelStart)
    i.svcMailCreate                          0x0000508c   Section        0  rt_cmsis.o(i.svcMailCreate)
    i.svcMessageCreate                       0x000050ce   Section        0  rt_cmsis.o(i.svcMessageCreate)
    i.svcMessageGet                          0x000050f2   Section        0  rt_cmsis.o(i.svcMessageGet)
    i.svcMessagePut                          0x0000512c   Section        0  rt_cmsis.o(i.svcMessagePut)
    i.svcMutexCreate                         0x00005162   Section        0  rt_cmsis.o(i.svcMutexCreate)
    i.svcMutexRelease                        0x0000517e   Section        0  rt_cmsis.o(i.svcMutexRelease)
    i.svcMutexWait                           0x000051a0   Section        0  rt_cmsis.o(i.svcMutexWait)
    i.svcPoolCreate                          0x000051da   Section        0  rt_cmsis.o(i.svcPoolCreate)
    i.svcSignalClear                         0x00005202   Section        0  rt_cmsis.o(i.svcSignalClear)
    i.svcSignalSet                           0x00005226   Section        0  rt_cmsis.o(i.svcSignalSet)
    i.svcSignalWait                          0x0000524c   Section        0  rt_cmsis.o(i.svcSignalWait)
    i.svcThreadCreate                        0x000052a0   Section        0  rt_cmsis.o(i.svcThreadCreate)
    i.svcThreadGetId                         0x0000530c   Section        0  rt_cmsis.o(i.svcThreadGetId)
    i.svcThreadTerminate                     0x00005328   Section        0  rt_cmsis.o(i.svcThreadTerminate)
    i.svcTimerCall                           0x00005360   Section        0  rt_cmsis.o(i.svcTimerCall)
    i.svcTimerCreate                         0x00005378   Section        0  rt_cmsis.o(i.svcTimerCreate)
    i.sysMailAlloc                           0x000053b0   Section        0  rt_cmsis.o(i.sysMailAlloc)
    i.sysPoolAlloc                           0x00005408   Section        0  rt_cmsis.o(i.sysPoolAlloc)
    i.sysPoolFree                            0x00005412   Section        0  rt_cmsis.o(i.sysPoolFree)
    i.sysTimerTick                           0x00005428   Section        0  rt_cmsis.o(i.sysTimerTick)
    x$fpl$basic                              0x00005484   Section       24  basic.o(x$fpl$basic)
    $v0                                      0x00005484   Number         0  basic.o(x$fpl$basic)
    x$fpl$d2f                                0x0000549c   Section       98  d2f.o(x$fpl$d2f)
    $v0                                      0x0000549c   Number         0  d2f.o(x$fpl$d2f)
    x$fpl$dadd                               0x00005500   Section      336  daddsub_clz.o(x$fpl$dadd)
    $v0                                      0x00005500   Number         0  daddsub_clz.o(x$fpl$dadd)
    _dadd1                                   0x00005511   Thumb Code     0  daddsub_clz.o(x$fpl$dadd)
    x$fpl$ddiv                               0x00005650   Section      688  ddiv.o(x$fpl$ddiv)
    $v0                                      0x00005650   Number         0  ddiv.o(x$fpl$ddiv)
    ddiv_entry                               0x00005657   Thumb Code     0  ddiv.o(x$fpl$ddiv)
    x$fpl$dfix                               0x00005900   Section       94  dfix.o(x$fpl$dfix)
    $v0                                      0x00005900   Number         0  dfix.o(x$fpl$dfix)
    x$fpl$dfixu                              0x00005960   Section       90  dfixu.o(x$fpl$dfixu)
    $v0                                      0x00005960   Number         0  dfixu.o(x$fpl$dfixu)
    x$fpl$dflt                               0x000059ba   Section       46  dflt_clz.o(x$fpl$dflt)
    $v0                                      0x000059ba   Number         0  dflt_clz.o(x$fpl$dflt)
    x$fpl$dfltu                              0x000059e8   Section       38  dflt_clz.o(x$fpl$dfltu)
    $v0                                      0x000059e8   Number         0  dflt_clz.o(x$fpl$dfltu)
    x$fpl$dmul                               0x00005a10   Section      340  dmul.o(x$fpl$dmul)
    $v0                                      0x00005a10   Number         0  dmul.o(x$fpl$dmul)
    x$fpl$dnaninf                            0x00005b64   Section      156  dnaninf.o(x$fpl$dnaninf)
    $v0                                      0x00005b64   Number         0  dnaninf.o(x$fpl$dnaninf)
    x$fpl$dretinf                            0x00005c00   Section       12  dretinf.o(x$fpl$dretinf)
    $v0                                      0x00005c00   Number         0  dretinf.o(x$fpl$dretinf)
    x$fpl$drsb                               0x00005c0c   Section       22  daddsub_clz.o(x$fpl$drsb)
    $v0                                      0x00005c0c   Number         0  daddsub_clz.o(x$fpl$drsb)
    x$fpl$dsub                               0x00005c24   Section      468  daddsub_clz.o(x$fpl$dsub)
    $v0                                      0x00005c24   Number         0  daddsub_clz.o(x$fpl$dsub)
    _dsub1                                   0x00005c35   Thumb Code     0  daddsub_clz.o(x$fpl$dsub)
    x$fpl$f2d                                0x00005df8   Section       86  f2d.o(x$fpl$f2d)
    $v0                                      0x00005df8   Number         0  f2d.o(x$fpl$f2d)
    x$fpl$fnaninf                            0x00005e4e   Section      140  fnaninf.o(x$fpl$fnaninf)
    $v0                                      0x00005e4e   Number         0  fnaninf.o(x$fpl$fnaninf)
    x$fpl$fpinit                             0x00005eda   Section       10  fpinit.o(x$fpl$fpinit)
    $v0                                      0x00005eda   Number         0  fpinit.o(x$fpl$fpinit)
    x$fpl$fretinf                            0x00005ee4   Section       10  fretinf.o(x$fpl$fretinf)
    $v0                                      0x00005ee4   Number         0  fretinf.o(x$fpl$fretinf)
    x$fpl$llsfromf                           0x00005ef0   Section      134  ffixll.o(x$fpl$llsfromf)
    $v0                                      0x00005ef0   Number         0  ffixll.o(x$fpl$llsfromf)
    x$fpl$usenofp                            0x00005f76   Section        0  usenofp.o(x$fpl$usenofp)
    .constdata                               0x00005f78   Section      164  exemplotiva.o(.constdata)
    .constdata                               0x0000601c   Section       40  cfaf128x128x16.o(.constdata)
    .constdata                               0x00006044   Section        2  rtx_conf_cm.o(.constdata)
    .constdata                               0x00006048   Section        4  rtx_conf_cm.o(.constdata)
    .constdata                               0x0000604c   Section        4  rtx_conf_cm.o(.constdata)
    .constdata                               0x00006050   Section        4  rtx_conf_cm.o(.constdata)
    .constdata                               0x00006054   Section        1  rtx_conf_cm.o(.constdata)
    .constdata                               0x00006058   Section       16  rtx_conf_cm.o(.constdata)
    __tagsym$$used                           0x00006058   Number         0  rtx_conf_cm.o(.constdata)
    __tagsym$$used                           0x0000605c   Number         0  rtx_conf_cm.o(.constdata)
    __tagsym$$used                           0x00006060   Number         0  rtx_conf_cm.o(.constdata)
    __tagsym$$used                           0x00006064   Number         0  rtx_conf_cm.o(.constdata)
    .constdata                               0x00006068   Section        2  rtx_conf_cm.o(.constdata)
    .constdata                               0x0000606c   Section        4  rtx_conf_cm.o(.constdata)
    .constdata                               0x00006070   Section        4  rtx_conf_cm.o(.constdata)
    .constdata                               0x00006074   Section        1  rtx_conf_cm.o(.constdata)
    .constdata                               0x00006078   Section       16  rtx_conf_cm.o(.constdata)
    .constdata                               0x00006088   Section        8  rtx_conf_cm.o(.constdata)
    .constdata                               0x00006090   Section        2  rtx_conf_cm.o(.constdata)
    .constdata                               0x00006094   Section       16  rtx_conf_cm.o(.constdata)
    .constdata                               0x000060a4   Section      552  gpio.o(.constdata)
    g_ppui32GPIOIntMapBlizzard               0x000060a4   Data         192  gpio.o(.constdata)
    g_ppui32GPIOIntMapSnowflake              0x00006164   Data         216  gpio.o(.constdata)
    g_pui32GPIOBaseAddrs                     0x0000623c   Data         144  gpio.o(.constdata)
    .constdata                               0x000062cc   Section      268  interrupt.o(.constdata)
    g_pui32Priority                          0x000062cc   Data          32  interrupt.o(.constdata)
    g_pui32Regs                              0x000062ec   Data         156  interrupt.o(.constdata)
    g_pui32EnRegs                            0x00006388   Data          20  interrupt.o(.constdata)
    g_pui32Dii16Regs                         0x0000639c   Data          20  interrupt.o(.constdata)
    g_pui32PendRegs                          0x000063b0   Data          20  interrupt.o(.constdata)
    g_pui32UnpendRegs                        0x000063c4   Data          20  interrupt.o(.constdata)
    .constdata                               0x000063d8   Section      596  sysctl.o(.constdata)
    g_pui32VCOFrequencies                    0x000063d8   Data           8  sysctl.o(.constdata)
    g_pui32Xtals                             0x000063e0   Data         108  sysctl.o(.constdata)
    g_pppui32XTALtoVCO                       0x0000644c   Data         432  sysctl.o(.constdata)
    g_sXTALtoMEMTIM                          0x000065fc   Data          48  sysctl.o(.constdata)
    .constdata                               0x0000662c   Section       16  context.o(.constdata)
    .constdata                               0x0000663c   Section      760  fontfixed6x8.o(.constdata)
    g_pui8FontFixed6x8Data                   0x0000663c   Data         760  fontfixed6x8.o(.constdata)
    .constdata                               0x00006934   Section      200  fontfixed6x8.o(.constdata)
    .constdata                               0x00006a00   Section       48  cos_i.o(.constdata)
    C                                        0x00006a00   Data          48  cos_i.o(.constdata)
    .constdata                               0x00006a30   Section      200  rred.o(.constdata)
    pio2s                                    0x00006a30   Data          48  rred.o(.constdata)
    twooverpi                                0x00006a60   Data         152  rred.o(.constdata)
    .constdata                               0x00006af8   Section       40  sin_i.o(.constdata)
    S                                        0x00006af8   Data          40  sin_i.o(.constdata)
    .conststring                             0x00006b20   Section       37  exemplotiva.o(.conststring)
    .data                                    0x20000000   Section        8  exemplotiva.o(.data)
    .data                                    0x20000008   Section        8  exemplotiva.o(.data)
    .data                                    0x20000010   Section       64  exemplotiva.o(.data)
    pAscii                                   0x20000010   Data           4  exemplotiva.o(.data)
    pAscii                                   0x20000014   Data           4  exemplotiva.o(.data)
    .data                                    0x20000050   Section        8  pwm.o(.data)
    g_current_state                          0x20000050   Data           1  pwm.o(.data)
    g_current_per                            0x20000052   Data           2  pwm.o(.data)
    g_current_amp                            0x20000054   Data           4  pwm.o(.data)
    .data                                    0x20000058   Section        4  uart.o(.data)
    g_ulBase                                 0x20000058   Data           4  uart.o(.data)
    .data                                    0x2000005c   Section       12  buzzer.o(.data)
    g_current_state                          0x2000005c   Data           1  buzzer.o(.data)
    g_current_per                            0x2000005e   Data           2  buzzer.o(.data)
    g_ui32SysClock                           0x20000060   Data           4  buzzer.o(.data)
    g_current_vol                            0x20000064   Data           4  buzzer.o(.data)
    .data                                    0x20000068   Section        8  cfaf128x128x16.o(.data)
    _orientation                             0x20000068   Data           1  cfaf128x128x16.o(.data)
    g_ui32SysClock                           0x2000006c   Data           4  cfaf128x128x16.o(.data)
    .data                                    0x20000070   Section        4  rtx_conf_cm.o(.data)
    .data                                    0x20000074   Section        4  rtx_conf_cm.o(.data)
    .data                                    0x20000078   Section        4  rtx_conf_cm.o(.data)
    .data                                    0x2000007c   Section        4  rtx_conf_cm.o(.data)
    nr_mutex                                 0x2000007c   Data           4  rtx_conf_cm.o(.data)
    .data                                    0x20000080   Section        4  system_tm4c129.o(.data)
    .data                                    0x20000084   Section        4  context.o(.data)
    g_psGrLibDefaults                        0x20000084   Data           4  context.o(.data)
    .data                                    0x20000088   Section        8  rt_cmsis.o(.data)
    .data                                    0x20000090   Section        8  rt_task.o(.data)
    .data                                    0x20000098   Section        8  rt_system.o(.data)
    os_lock                                  0x20000098   Data           1  rt_system.o(.data)
    os_psh_flag                              0x20000099   Data           1  rt_system.o(.data)
    pend_flags                               0x2000009a   Data           1  rt_system.o(.data)
    .data                                    0x200000a0   Section        4  rt_time.o(.data)
    .data                                    0x200000a4   Section        8  rt_robin.o(.data)
    .data                                    0x200000ac   Section        1  hal_cm.o(.data)
    .bss                                     0x200000b0   Section       80  exemplotiva.o(.bss)
    .bss                                     0x20000100   Section       80  exemplotiva.o(.bss)
    .bss                                     0x20000150   Section       80  exemplotiva.o(.bss)
    .bss                                     0x200001a0   Section       80  exemplotiva.o(.bss)
    .bss                                     0x200001f0   Section       16  exemplotiva.o(.bss)
    .bss                                     0x20000200   Section       44  exemplotiva.o(.bss)
    .bss                                     0x2000022c   Section       24  exemplotiva.o(.bss)
    .bss                                     0x20000244   Section      204  exemplotiva.o(.bss)
    .bss                                     0x20000310   Section       76  exemplotiva.o(.bss)
    .bss                                     0x2000035c   Section       76  exemplotiva.o(.bss)
    .bss                                     0x200003a8   Section       76  exemplotiva.o(.bss)
    .bss                                     0x200003f4   Section       76  exemplotiva.o(.bss)
    .bss                                     0x20000440   Section      204  exemplotiva.o(.bss)
    .bss                                     0x2000050c   Section       32  rtx_conf_cm.o(.bss)
    .bss                                     0x2000052c   Section      480  rtx_conf_cm.o(.bss)
    .bss                                     0x20000710   Section     6416  rtx_conf_cm.o(.bss)
    .bss                                     0x20002020   Section     1032  rtx_conf_cm.o(.bss)
    .bss                                     0x20002428   Section      132  rtx_conf_cm.o(.bss)
    .bss                                     0x200024ac   Section       36  rtx_conf_cm.o(.bss)
    .bss                                     0x200024d0   Section      992  rtx_conf_cm.o(.bss)
    std_libspace                             0x200024d0   Data         864  rtx_conf_cm.o(.bss)
    std_libmutex                             0x20002830   Data         128  rtx_conf_cm.o(.bss)
    .bss                                     0x200028b0   Section       52  rt_task.o(.bss)
    .bss                                     0x200028e4   Section       48  rt_list.o(.bss)
    .bss                                     0x20002914   Section       96  libspace.o(.bss)
    HEAP                                     0x20002978   Section        0  startup_tm4c129.o(HEAP)
    STACK                                    0x20002978   Section      512  startup_tm4c129.o(STACK)
    Heap_Mem                                 0x20002978   Data           0  startup_tm4c129.o(HEAP)
    Stack_Mem                                0x20002978   Data         512  startup_tm4c129.o(STACK)
    __initial_sp                             0x20002b78   Data           0  startup_tm4c129.o(STACK)

    Global Symbols

    Symbol Name                              Value     Ov Type        Size  Object(Section)

    BuildAttributes$$THM_ISAv4$E$P$D$K$B$S$7EM$VFPi3$EXTD16$VFPS$VFMA$PE$A:L22UL41UL21$X:L11$S22US41US21$IEEE1$IW$USESV6$~STKCKD$USESV7$~SHL$OTIME$ROPI$IEEEX$EBA8$UX$STANDARDLIB$REQ8$PRES8$EABIv2 0x00000000   Number         0  anon$$obj.o ABSOLUTE
    __ARM_use_no_argv                        0x00000000   Number         0  exemplotiva.o ABSOLUTE
    __Vectors                                0x00000000   Data           4  startup_tm4c129.o(RESET)
    __ARM_exceptions_init                     - Undefined Weak Reference
    __alloca_initialize                       - Undefined Weak Reference
    __arm_preinit_                            - Undefined Weak Reference
    __cpp_initialize__aeabi_                  - Undefined Weak Reference
    __cxa_finalize                            - Undefined Weak Reference
    __rt_locale                               - Undefined Weak Reference
    __sigvec_lookup                           - Undefined Weak Reference
    _atexit_init                              - Undefined Weak Reference
    _call_atexit_fns                          - Undefined Weak Reference
    _clock_init                               - Undefined Weak Reference
    _fp_trap_init                             - Undefined Weak Reference
    _fp_trap_shutdown                         - Undefined Weak Reference
    _get_lc_collate                           - Undefined Weak Reference
    _get_lc_ctype                             - Undefined Weak Reference
    _get_lc_monetary                          - Undefined Weak Reference
    _get_lc_numeric                           - Undefined Weak Reference
    _get_lc_time                              - Undefined Weak Reference
    _getenv_init                              - Undefined Weak Reference
    _handle_redirection                       - Undefined Weak Reference
    _init_alloc                               - Undefined Weak Reference
    _init_user_alloc                          - Undefined Weak Reference
    _initio                                   - Undefined Weak Reference
    _rand_init                                - Undefined Weak Reference
    _signal_finish                            - Undefined Weak Reference
    _signal_init                              - Undefined Weak Reference
    _terminate_alloc                          - Undefined Weak Reference
    _terminate_user_alloc                     - Undefined Weak Reference
    _terminateio                              - Undefined Weak Reference
    __Vectors_End                            0x00000200   Data           0  startup_tm4c129.o(RESET)
    __Vectors_Size                           0x00000200   Number         0  startup_tm4c129.o ABSOLUTE
    __main                                   0x00000201   Thumb Code     8  __main.o(!!!main)
    __scatterload                            0x00000209   Thumb Code     0  __scatter.o(!!!scatter)
    __scatterload_rt2                        0x00000209   Thumb Code    44  __scatter.o(!!!scatter)
    __scatterload_rt2_thumb_only             0x00000209   Thumb Code     0  __scatter.o(!!!scatter)
    __scatterload_null                       0x00000217   Thumb Code     0  __scatter.o(!!!scatter)
    __scatterload_copy                       0x0000023d   Thumb Code    26  __scatter_copy.o(!!handler_copy)
    __scatterload_zeroinit                   0x00000259   Thumb Code    28  __scatter_zi.o(!!handler_zi)
    __rt_lib_init                            0x00000275   Thumb Code     0  libinit.o(.ARM.Collect$$libinit$$00000000)
    __rt_lib_init_fp_1                       0x00000277   Thumb Code     0  libinit2.o(.ARM.Collect$$libinit$$00000001)
    __rt_lib_init_alloca_1                   0x0000027b   Thumb Code     0  libinit2.o(.ARM.Collect$$libinit$$0000002E)
    __rt_lib_init_argv_1                     0x0000027b   Thumb Code     0  libinit2.o(.ARM.Collect$$libinit$$0000002C)
    __rt_lib_init_atexit_1                   0x0000027b   Thumb Code     0  libinit2.o(.ARM.Collect$$libinit$$0000001B)
    __rt_lib_init_clock_1                    0x0000027b   Thumb Code     0  libinit2.o(.ARM.Collect$$libinit$$00000021)
    __rt_lib_init_cpp_1                      0x0000027b   Thumb Code     0  libinit2.o(.ARM.Collect$$libinit$$00000032)
    __rt_lib_init_exceptions_1               0x0000027b   Thumb Code     0  libinit2.o(.ARM.Collect$$libinit$$00000030)
    __rt_lib_init_fp_trap_1                  0x0000027b   Thumb Code     0  libinit2.o(.ARM.Collect$$libinit$$0000001F)
    __rt_lib_init_getenv_1                   0x0000027b   Thumb Code     0  libinit2.o(.ARM.Collect$$libinit$$00000023)
    __rt_lib_init_heap_1                     0x0000027b   Thumb Code     0  libinit2.o(.ARM.Collect$$libinit$$0000000A)
    __rt_lib_init_lc_collate_1               0x0000027b   Thumb Code     0  libinit2.o(.ARM.Collect$$libinit$$00000011)
    __rt_lib_init_lc_ctype_1                 0x0000027b   Thumb Code     0  libinit2.o(.ARM.Collect$$libinit$$00000013)
    __rt_lib_init_lc_monetary_1              0x0000027b   Thumb Code     0  libinit2.o(.ARM.Collect$$libinit$$00000015)
    __rt_lib_init_lc_numeric_1               0x0000027b   Thumb Code     0  libinit2.o(.ARM.Collect$$libinit$$00000017)
    __rt_lib_init_lc_time_1                  0x0000027b   Thumb Code     0  libinit2.o(.ARM.Collect$$libinit$$00000019)
    __rt_lib_init_preinit_1                  0x0000027b   Thumb Code     0  libinit2.o(.ARM.Collect$$libinit$$00000004)
    __rt_lib_init_rand_1                     0x0000027b   Thumb Code     0  libinit2.o(.ARM.Collect$$libinit$$0000000E)
    __rt_lib_init_return                     0x0000027b   Thumb Code     0  libinit2.o(.ARM.Collect$$libinit$$00000033)
    __rt_lib_init_signal_1                   0x0000027b   Thumb Code     0  libinit2.o(.ARM.Collect$$libinit$$0000001D)
    __rt_lib_init_stdio_1                    0x0000027b   Thumb Code     0  libinit2.o(.ARM.Collect$$libinit$$00000025)
    __rt_lib_init_user_alloc_1               0x0000027b   Thumb Code     0  libinit2.o(.ARM.Collect$$libinit$$0000000C)
    __rt_lib_shutdown                        0x0000027d   Thumb Code     0  libshutdown.o(.ARM.Collect$$libshutdown$$00000000)
    __rt_lib_shutdown_cpp_1                  0x0000027f   Thumb Code     0  libshutdown2.o(.ARM.Collect$$libshutdown$$00000002)
    __rt_lib_shutdown_fp_trap_1              0x0000027f   Thumb Code     0  libshutdown2.o(.ARM.Collect$$libshutdown$$00000007)
    __rt_lib_shutdown_heap_1                 0x0000027f   Thumb Code     0  libshutdown2.o(.ARM.Collect$$libshutdown$$0000000F)
    __rt_lib_shutdown_return                 0x0000027f   Thumb Code     0  libshutdown2.o(.ARM.Collect$$libshutdown$$00000010)
    __rt_lib_shutdown_signal_1               0x0000027f   Thumb Code     0  libshutdown2.o(.ARM.Collect$$libshutdown$$0000000A)
    __rt_lib_shutdown_stdio_1                0x0000027f   Thumb Code     0  libshutdown2.o(.ARM.Collect$$libshutdown$$00000004)
    __rt_lib_shutdown_user_alloc_1           0x0000027f   Thumb Code     0  libshutdown2.o(.ARM.Collect$$libshutdown$$0000000C)
    __rt_entry                               0x00000281   Thumb Code     0  __rtentry.o(.ARM.Collect$$rtentry$$00000000)
    __rt_entry_presh_1                       0x00000281   Thumb Code     0  __rtentry2.o(.ARM.Collect$$rtentry$$00000002)
    __rt_entry_sh                            0x00000281   Thumb Code     0  __rtentry4.o(.ARM.Collect$$rtentry$$00000004)
    __rt_entry_li                            0x00000287   Thumb Code     0  __rtentry2.o(.ARM.Collect$$rtentry$$0000000A)
    __rt_entry_postsh_1                      0x00000287   Thumb Code     0  __rtentry2.o(.ARM.Collect$$rtentry$$00000009)
    __rt_entry_postli_1                      0x0000028b   Thumb Code     0  __rtentry2.o(.ARM.Collect$$rtentry$$0000000B)
    __rt_entry_main                          0x00000293   Thumb Code     0  __rtentry2.o(.ARM.Collect$$rtentry$$0000000D)
    __rt_exit                                0x0000029b   Thumb Code     0  rtexit.o(.ARM.Collect$$rtexit$$00000000)
    __rt_exit_ls                             0x0000029d   Thumb Code     0  rtexit2.o(.ARM.Collect$$rtexit$$00000003)
    __rt_exit_prels_1                        0x0000029d   Thumb Code     0  rtexit2.o(.ARM.Collect$$rtexit$$00000002)
    __rt_exit_exit                           0x000002a1   Thumb Code     0  rtexit2.o(.ARM.Collect$$rtexit$$00000004)
    _platform_post_lib_init                  0x000002a9   Thumb Code    24  rtx_conf_cm.o(.emb_text)
    SysCtlDelay                              0x000002c5   Thumb Code     6  sysctl.o(.emb_text)
    CPUcpsid                                 0x000002cd   Thumb Code     8  cpu.o(.emb_text)
    CPUprimask                               0x000002d5   Thumb Code     6  cpu.o(.emb_text)
    CPUcpsie                                 0x000002db   Thumb Code     8  cpu.o(.emb_text)
    CPUwfi                                   0x000002e3   Thumb Code     4  cpu.o(.emb_text)
    CPUbasepriSet                            0x000002e7   Thumb Code     6  cpu.o(.emb_text)
    CPUbasepriGet                            0x000002ed   Thumb Code     6  cpu.o(.emb_text)
    rt_set_PSP                               0x000002f5   Thumb Code     6  hal_cm4.o(.emb_text)
    rt_get_PSP                               0x000002fb   Thumb Code     6  hal_cm4.o(.emb_text)
    os_set_env                               0x00000301   Thumb Code    24  hal_cm4.o(.emb_text)
    _alloc_box                               0x0000031d   Thumb Code    28  hal_cm4.o(.emb_text)
    _free_box                                0x0000033d   Thumb Code    28  hal_cm4.o(.emb_text)
    SVC_Handler                              0x0000035d   Thumb Code   168  hal_cm4.o(.emb_text)
    PendSV_Handler                           0x00000415   Thumb Code    96  hal_cm4.o(.emb_text)
    SysTick_Handler                          0x00000479   Thumb Code     8  hal_cm4.o(.emb_text)
    OS_Tick_Handler                          0x00000481   Thumb Code    12  hal_cm4.o(.emb_text)
    __RL_RTX_VER                             0x00000482   Number         0  rt_system.o ABSOLUTE
    timer_callback                           0x0000048d   Thumb Code     2  exemplotiva.o(.text)
    draw_pixel                               0x00000609   Thumb Code    60  exemplotiva.o(.text)
    Timer_Init                               0x00000645   Thumb Code    64  exemplotiva.o(.text)
    TIMER0A_Handler                          0x00000685   Thumb Code     8  exemplotiva.o(.text)
    UART0_Handler                            0x0000068d   Thumb Code    94  exemplotiva.o(.text)
    Init_Thread                              0x000006eb   Thumb Code    82  exemplotiva.o(.text)
    init_all                                 0x0000073d   Thumb Code    58  exemplotiva.o(.text)
    PrintCaracteristics                      0x00000777   Thumb Code   328  exemplotiva.o(.text)
    t_GenerateSignal                         0x000008bf   Thumb Code  1398  exemplotiva.o(.text)
    t_Display                                0x00000e35   Thumb Code   272  exemplotiva.o(.text)
    t_PWM                                    0x00000f45   Thumb Code    98  exemplotiva.o(.text)
    t_UART                                   0x00000fa7   Thumb Code   352  exemplotiva.o(.text)
    main                                     0x00001107   Thumb Code   148  exemplotiva.o(.text)
    PWM_enable                               0x000011b5   Thumb Code    30  pwm.o(.text)
    PWM_amplitude_set                        0x000011d3   Thumb Code    58  pwm.o(.text)
    PWM_per_set                              0x0000120d   Thumb Code    46  pwm.o(.text)
    PWM_function_init                        0x0000123b   Thumb Code   128  pwm.o(.text)
    UARTsend                                 0x000012d9   Thumb Code    12  uart.o(.text)
    UARTprintString                          0x000012e5   Thumb Code    20  uart.o(.text)
    UART_Enable                              0x000012f9   Thumb Code   170  uart.o(.text)
    UARTreceive                              0x000013a3   Thumb Code    14  uart.o(.text)
    UARTprintMenu                            0x000013b1   Thumb Code   142  uart.o(.text)
    PLL_Init                                 0x000015f5   Thumb Code     0  utils.o(.text)
    ConfigInterruptPortJ                     0x0000171d   Thumb Code     0  utils.o(.text)
    SysTick_Init                             0x00001733   Thumb Code     0  utils.o(.text)
    SysTick_Wait1ms                          0x00001769   Thumb Code     0  utils.o(.text)
    buzzer_write                             0x0000182d   Thumb Code    14  buzzer.o(.text)
    buzzer_vol_set                           0x0000183b   Thumb Code    54  buzzer.o(.text)
    buzzer_per_set                           0x00001871   Thumb Code    48  buzzer.o(.text)
    buzzer_init                              0x000018a1   Thumb Code   120  buzzer.o(.text)
    button_init                              0x00001935   Thumb Code    42  buttons.o(.text)
    button_read_s1                           0x0000195f   Thumb Code    20  buttons.o(.text)
    button_read_s2                           0x00001973   Thumb Code    20  buttons.o(.text)
    cfaf128x128x16Rect                       0x00001b21   Thumb Code   100  cfaf128x128x16.o(.text)
    cfaf128x128x16LineVer                    0x00001b85   Thumb Code    22  cfaf128x128x16.o(.text)
    cfaf128x128x16LineHor                    0x00001b9b   Thumb Code    16  cfaf128x128x16.o(.text)
    cfaf128x128x16Dot                        0x00001bab   Thumb Code    22  cfaf128x128x16.o(.text)
    cfaf128x128x16SetOrientation             0x00001e05   Thumb Code    70  cfaf128x128x16.o(.text)
    cfaf128x128x16ClearColor                 0x00001e4b   Thumb Code    36  cfaf128x128x16.o(.text)
    cfaf128x128x16Clear                      0x00001e6f   Thumb Code     4  cfaf128x128x16.o(.text)
    InitSSICom                               0x00001e73   Thumb Code   138  cfaf128x128x16.o(.text)
    cfaf128x128x16Init                       0x00001efd   Thumb Code   322  cfaf128x128x16.o(.text)
    os_idle_demon                            0x0000208d   Thumb Code     2  rtx_conf_cm.o(.text)
    os_error                                 0x0000208f   Thumb Code     2  rtx_conf_cm.o(.text)
    __user_perthread_libspace                0x00002091   Thumb Code    32  rtx_conf_cm.o(.text)
    _mutex_initialize                        0x000020b1   Thumb Code    34  rtx_conf_cm.o(.text)
    _mutex_acquire                           0x000020d3   Thumb Code    22  rtx_conf_cm.o(.text)
    _mutex_release                           0x000020e9   Thumb Code    18  rtx_conf_cm.o(.text)
    Reset_Handler                            0x00002119   Thumb Code     8  startup_tm4c129.o(.text)
    NMI_Handler                              0x00002121   Thumb Code     2  startup_tm4c129.o(.text)
    HardFault_Handler                        0x00002123   Thumb Code     2  startup_tm4c129.o(.text)
    MemManage_Handler                        0x00002125   Thumb Code     2  startup_tm4c129.o(.text)
    BusFault_Handler                         0x00002127   Thumb Code     2  startup_tm4c129.o(.text)
    UsageFault_Handler                       0x00002129   Thumb Code     2  startup_tm4c129.o(.text)
    DebugMon_Handler                         0x0000212d   Thumb Code     2  startup_tm4c129.o(.text)
    GPIOA_Handler                            0x00002133   Thumb Code     2  startup_tm4c129.o(.text)
    GPIOB_Handler                            0x00002135   Thumb Code     2  startup_tm4c129.o(.text)
    GPIOC_Handler                            0x00002137   Thumb Code     2  startup_tm4c129.o(.text)
    GPIOD_Handler                            0x00002139   Thumb Code     2  startup_tm4c129.o(.text)
    GPIOE_Handler                            0x0000213b   Thumb Code     2  startup_tm4c129.o(.text)
    UART1_Handler                            0x0000213f   Thumb Code     2  startup_tm4c129.o(.text)
    SSI0_Handler                             0x00002141   Thumb Code     2  startup_tm4c129.o(.text)
    I2C0_Handler                             0x00002143   Thumb Code     2  startup_tm4c129.o(.text)
    PMW0_FAULT_Handler                       0x00002145   Thumb Code     2  startup_tm4c129.o(.text)
    PWM0_0_Handler                           0x00002147   Thumb Code     2  startup_tm4c129.o(.text)
    PWM0_1_Handler                           0x00002149   Thumb Code     2  startup_tm4c129.o(.text)
    PWM0_2_Handler                           0x0000214b   Thumb Code     2  startup_tm4c129.o(.text)
    QEI0_Handler                             0x0000214d   Thumb Code     2  startup_tm4c129.o(.text)
    ADC0SS0_Handler                          0x0000214f   Thumb Code     2  startup_tm4c129.o(.text)
    ADC0SS1_Handler                          0x00002151   Thumb Code     2  startup_tm4c129.o(.text)
    ADC0SS2_Handler                          0x00002153   Thumb Code     2  startup_tm4c129.o(.text)
    ADC0SS3_Handler                          0x00002155   Thumb Code     2  startup_tm4c129.o(.text)
    WDT0_Handler                             0x00002157   Thumb Code     2  startup_tm4c129.o(.text)
    TIMER0B_Handler                          0x0000215b   Thumb Code     2  startup_tm4c129.o(.text)
    TIMER1A_Handler                          0x0000215d   Thumb Code     2  startup_tm4c129.o(.text)
    TIMER1B_Handler                          0x0000215f   Thumb Code     2  startup_tm4c129.o(.text)
    TIMER2A_Handler                          0x00002161   Thumb Code     2  startup_tm4c129.o(.text)
    TIMER2B_Handler                          0x00002163   Thumb Code     2  startup_tm4c129.o(.text)
    COMP0_Handler                            0x00002165   Thumb Code     2  startup_tm4c129.o(.text)
    COMP1_Handler                            0x00002167   Thumb Code     2  startup_tm4c129.o(.text)
    COMP2_Handler                            0x00002169   Thumb Code     2  startup_tm4c129.o(.text)
    SYSCTL_Handler                           0x0000216b   Thumb Code     2  startup_tm4c129.o(.text)
    FLASH_Handler                            0x0000216d   Thumb Code     2  startup_tm4c129.o(.text)
    GPIOF_Handler                            0x0000216f   Thumb Code     2  startup_tm4c129.o(.text)
    GPIOG_Handler                            0x00002171   Thumb Code     2  startup_tm4c129.o(.text)
    GPIOH_Handler                            0x00002173   Thumb Code     2  startup_tm4c129.o(.text)
    UART2_Handler                            0x00002175   Thumb Code     2  startup_tm4c129.o(.text)
    SSI1_Handler                             0x00002177   Thumb Code     2  startup_tm4c129.o(.text)
    TIMER3A_Handler                          0x00002179   Thumb Code     2  startup_tm4c129.o(.text)
    TIMER3B_Handler                          0x0000217b   Thumb Code     2  startup_tm4c129.o(.text)
    I2C1_Handler                             0x0000217d   Thumb Code     2  startup_tm4c129.o(.text)
    CAN0_Handler                             0x0000217f   Thumb Code     2  startup_tm4c129.o(.text)
    CAN1_Handler                             0x00002181   Thumb Code     2  startup_tm4c129.o(.text)
    ETH_Handler                              0x00002183   Thumb Code     2  startup_tm4c129.o(.text)
    HIB_Handler                              0x00002185   Thumb Code     2  startup_tm4c129.o(.text)
    USB0_Handler                             0x00002187   Thumb Code     2  startup_tm4c129.o(.text)
    PWM0_3_Handler                           0x00002189   Thumb Code     2  startup_tm4c129.o(.text)
    UDMA_Handler                             0x0000218b   Thumb Code     2  startup_tm4c129.o(.text)
    UDMAERR_Handler                          0x0000218d   Thumb Code     2  startup_tm4c129.o(.text)
    ADC1SS0_Handler                          0x0000218f   Thumb Code     2  startup_tm4c129.o(.text)
    ADC1SS1_Handler                          0x00002191   Thumb Code     2  startup_tm4c129.o(.text)
    ADC1SS2_Handler                          0x00002193   Thumb Code     2  startup_tm4c129.o(.text)
    ADC1SS3_Handler                          0x00002195   Thumb Code     2  startup_tm4c129.o(.text)
    EBI0_Handler                             0x00002197   Thumb Code     2  startup_tm4c129.o(.text)
    GPIOJ_Handler                            0x00002199   Thumb Code     2  startup_tm4c129.o(.text)
    GPIOK_Handler                            0x0000219b   Thumb Code     2  startup_tm4c129.o(.text)
    GPIOL_Handler                            0x0000219d   Thumb Code     2  startup_tm4c129.o(.text)
    SSI2_Handler                             0x0000219f   Thumb Code     2  startup_tm4c129.o(.text)
    SSI3_Handler                             0x000021a1   Thumb Code     2  startup_tm4c129.o(.text)
    UART3_Handler                            0x000021a3   Thumb Code     2  startup_tm4c129.o(.text)
    UART4_Handler                            0x000021a5   Thumb Code     2  startup_tm4c129.o(.text)
    UART5_Handler                            0x000021a7   Thumb Code     2  startup_tm4c129.o(.text)
    UART6_Handler                            0x000021a9   Thumb Code     2  startup_tm4c129.o(.text)
    UART7_Handler                            0x000021ab   Thumb Code     2  startup_tm4c129.o(.text)
    I2C2_Handler                             0x000021ad   Thumb Code     2  startup_tm4c129.o(.text)
    I2C3_Handler                             0x000021af   Thumb Code     2  startup_tm4c129.o(.text)
    TIMER4A_Handler                          0x000021b1   Thumb Code     2  startup_tm4c129.o(.text)
    TIMER4B_Handler                          0x000021b3   Thumb Code     2  startup_tm4c129.o(.text)
    TIMER5A_Handler                          0x000021b5   Thumb Code     2  startup_tm4c129.o(.text)
    TIMER5B_Handler                          0x000021b7   Thumb Code     2  startup_tm4c129.o(.text)
    WTIMER0A_Handler                         0x000021b9   Thumb Code     2  startup_tm4c129.o(.text)
    WTIMER0B_Handler                         0x000021bb   Thumb Code     2  startup_tm4c129.o(.text)
    WTIMER1A_Handler                         0x000021bd   Thumb Code     2  startup_tm4c129.o(.text)
    WTIMER1B_Handler                         0x000021bf   Thumb Code     2  startup_tm4c129.o(.text)
    WTIMER2A_Handler                         0x000021c1   Thumb Code     2  startup_tm4c129.o(.text)
    WTIMER2B_Handler                         0x000021c3   Thumb Code     2  startup_tm4c129.o(.text)
    WTIMER3A_Handler                         0x000021c5   Thumb Code     2  startup_tm4c129.o(.text)
    WTIMER3B_Handler                         0x000021c7   Thumb Code     2  startup_tm4c129.o(.text)
    WTIMER4A_Handler                         0x000021c9   Thumb Code     2  startup_tm4c129.o(.text)
    WTIMER4B_Handler                         0x000021cb   Thumb Code     2  startup_tm4c129.o(.text)
    WTIMER5A_Handler                         0x000021cd   Thumb Code     2  startup_tm4c129.o(.text)
    WTIMER5B_Handler                         0x000021cf   Thumb Code     2  startup_tm4c129.o(.text)
    FPU_Handler                              0x000021d1   Thumb Code     2  startup_tm4c129.o(.text)
    I2C4_Handler                             0x000021d3   Thumb Code     2  startup_tm4c129.o(.text)
    I2C5_Handler                             0x000021d5   Thumb Code     2  startup_tm4c129.o(.text)
    GPIOM_Handler                            0x000021d7   Thumb Code     2  startup_tm4c129.o(.text)
    GPION_Handler                            0x000021d9   Thumb Code     2  startup_tm4c129.o(.text)
    TAMPER_Handler                           0x000021db   Thumb Code     2  startup_tm4c129.o(.text)
    GPIOP0_Handler                           0x000021dd   Thumb Code     2  startup_tm4c129.o(.text)
    GPIOP1_Handler                           0x000021df   Thumb Code     2  startup_tm4c129.o(.text)
    GPIOP2_Handler                           0x000021e1   Thumb Code     2  startup_tm4c129.o(.text)
    GPIOP3_Handler                           0x000021e3   Thumb Code     2  startup_tm4c129.o(.text)
    GPIOP4_Handler                           0x000021e5   Thumb Code     2  startup_tm4c129.o(.text)
    GPIOP5_Handler                           0x000021e7   Thumb Code     2  startup_tm4c129.o(.text)
    GPIOP6_Handler                           0x000021e9   Thumb Code     2  startup_tm4c129.o(.text)
    GPIOP7_Handler                           0x000021eb   Thumb Code     2  startup_tm4c129.o(.text)
    GPIOQ0_Handler                           0x000021ed   Thumb Code     2  startup_tm4c129.o(.text)
    GPIOQ1_Handler                           0x000021ef   Thumb Code     2  startup_tm4c129.o(.text)
    GPIOQ2_Handler                           0x000021f1   Thumb Code     2  startup_tm4c129.o(.text)
    GPIOQ3_Handler                           0x000021f3   Thumb Code     2  startup_tm4c129.o(.text)
    GPIOQ4_Handler                           0x000021f5   Thumb Code     2  startup_tm4c129.o(.text)
    GPIOQ5_Handler                           0x000021f7   Thumb Code     2  startup_tm4c129.o(.text)
    GPIOQ6_Handler                           0x000021f9   Thumb Code     2  startup_tm4c129.o(.text)
    GPIOQ7_Handler                           0x000021fb   Thumb Code     2  startup_tm4c129.o(.text)
    GPIOR_Handler                            0x000021fd   Thumb Code     2  startup_tm4c129.o(.text)
    GPIOS_Handler                            0x000021ff   Thumb Code     2  startup_tm4c129.o(.text)
    SHAMD5_Handler                           0x00002201   Thumb Code     2  startup_tm4c129.o(.text)
    AES_Handler                              0x00002203   Thumb Code     2  startup_tm4c129.o(.text)
    DES3DES_Handler                          0x00002205   Thumb Code     2  startup_tm4c129.o(.text)
    LCDCONTROLLER_Handler                    0x00002207   Thumb Code     2  startup_tm4c129.o(.text)
    TIMER6A_Handler                          0x00002209   Thumb Code     2  startup_tm4c129.o(.text)
    TIMER6B_Handler                          0x0000220b   Thumb Code     2  startup_tm4c129.o(.text)
    TIMER7A_Handler                          0x0000220d   Thumb Code     2  startup_tm4c129.o(.text)
    TIMER7B_Handler                          0x0000220f   Thumb Code     2  startup_tm4c129.o(.text)
    I2C6_Handler                             0x00002211   Thumb Code     2  startup_tm4c129.o(.text)
    I2C7_Handler                             0x00002213   Thumb Code     2  startup_tm4c129.o(.text)
    HIMSCANKEYBOARD_Handler                  0x00002215   Thumb Code     2  startup_tm4c129.o(.text)
    ONEWIRE_Handler                          0x00002217   Thumb Code     2  startup_tm4c129.o(.text)
    HIMPS2_Handler                           0x00002219   Thumb Code     2  startup_tm4c129.o(.text)
    HIMLEDSEQUENCER_Handler                  0x0000221b   Thumb Code     2  startup_tm4c129.o(.text)
    HIMCONSUMERIR_Handler                    0x0000221d   Thumb Code     2  startup_tm4c129.o(.text)
    I2C8_Handler                             0x0000221f   Thumb Code     2  startup_tm4c129.o(.text)
    I2C9_Handler                             0x00002221   Thumb Code     2  startup_tm4c129.o(.text)
    GPIOT_Handler                            0x00002223   Thumb Code     2  startup_tm4c129.o(.text)
    __user_initial_stackheap                 0x00002225   Thumb Code     0  startup_tm4c129.o(.text)
    SystemCoreClockUpdate                    0x00002245   Thumb Code     8  system_tm4c129.o(.text)
    SystemInit                               0x0000224d   Thumb Code    18  system_tm4c129.o(.text)
    __user_libspace                          0x0000226d   Thumb Code     8  libspace.o(.text)
    __user_perproc_libspace                  0x0000226d   Thumb Code     0  libspace.o(.text)
    __aeabi_uldivmod                         0x00002275   Thumb Code     0  lludivv7m.o(.text)
    _ll_udiv                                 0x00002275   Thumb Code   238  lludivv7m.o(.text)
    __aeabi_ldivmod                          0x00002363   Thumb Code     0  llsdiv.o(.text)
    _ll_sdiv                                 0x00002363   Thumb Code    72  llsdiv.o(.text)
    exit                                     0x000023ab   Thumb Code    18  exit.o(.text)
    __use_two_region_memory                  0x000023bd   Thumb Code     2  heapauxi.o(.text)
    __rt_heap_escrow$2region                 0x000023bf   Thumb Code     2  heapauxi.o(.text)
    __rt_heap_expand$2region                 0x000023c1   Thumb Code     2  heapauxi.o(.text)
    __read_errno                             0x000023c3   Thumb Code    10  _rserrno.o(.text)
    __set_errno                              0x000023cd   Thumb Code    12  _rserrno.o(.text)
    __aeabi_errno_addr                       0x000023d9   Thumb Code     4  rt_errno_addr_twolibspace.o(.text)
    __errno$twolibspace                      0x000023d9   Thumb Code     0  rt_errno_addr_twolibspace.o(.text)
    __rt_errno_addr$twolibspace              0x000023d9   Thumb Code     0  rt_errno_addr_twolibspace.o(.text)
    _sys_exit                                0x000023dd   Thumb Code     8  sys_exit.o(.text)
    __user_setup_stackheap                   0x000023e9   Thumb Code    74  sys_stackheap_outer.o(.text)
    __I$use$semihosting                      0x00002433   Thumb Code     0  use_no_semi.o(.text)
    __use_no_semihosting_swi                 0x00002433   Thumb Code     2  use_no_semi.o(.text)
    SVC_Count                                0x00002434   Data           4  svc_table.o(SVC_TABLE)
    __semihosting_library_function           0x00002435   Thumb Code     0  indicate_semi.o(.text)
    GPIODirModeSet                           0x00002439   Thumb Code    40  gpio.o(i.GPIODirModeSet)
    SVC_Table                                0x00002438   Data           0  svc_table.o(SVC_TABLE)
    GPIOPadConfigSet                         0x00002461   Thumb Code   312  gpio.o(i.GPIOPadConfigSet)
    GPIOPinConfigure                         0x00002599   Thumb Code    60  gpio.o(i.GPIOPinConfigure)
    GPIOPinRead                              0x000025dd   Thumb Code     6  gpio.o(i.GPIOPinRead)
    GPIOPinTypeGPIOInput                     0x000025e3   Thumb Code    28  gpio.o(i.GPIOPinTypeGPIOInput)
    GPIOPinTypePWM                           0x000025ff   Thumb Code    28  gpio.o(i.GPIOPinTypePWM)
    GPIOPinTypeUART                          0x0000261b   Thumb Code    28  gpio.o(i.GPIOPinTypeUART)
    GrContextFontSet                         0x00002637   Thumb Code     6  string.o(i.GrContextFontSet)
    GrContextInit                            0x0000263d   Thumb Code    88  context.o(i.GrContextInit)
    GrDefaultStringRenderer                  0x000026a1   Thumb Code   280  string.o(i.GrDefaultStringRenderer)
    GrFontGlyphDataGet                       0x000027b9   Thumb Code   166  string.o(i.GrFontGlyphDataGet)
    GrFontGlyphRender                        0x0000285f   Thumb Code   648  string.o(i.GrFontGlyphRender)
    GrMapISO8859_1_Unicode                   0x00002ae7   Thumb Code     8  charmap.o(i.GrMapISO8859_1_Unicode)
    GrStringDraw                             0x00002aef   Thumb Code    32  string.o(i.GrStringDraw)
    IntEnable                                0x00002b11   Thumb Code    92  interrupt.o(i.IntEnable)
    IntMasterEnable                          0x00002b75   Thumb Code    14  interrupt.o(i.IntMasterEnable)
    PWMClockSet                              0x00002b83   Thumb Code    20  pwm.o(i.PWMClockSet)
    PWMGenConfigure                          0x00002b97   Thumb Code    38  pwm.o(i.PWMGenConfigure)
    PWMGenEnable                             0x00002bbd   Thumb Code    10  pwm.o(i.PWMGenEnable)
    PWMGenPeriodGet                          0x00002bc7   Thumb Code    18  pwm.o(i.PWMGenPeriodGet)
    PWMGenPeriodSet                          0x00002bd9   Thumb Code    18  pwm.o(i.PWMGenPeriodSet)
    PWMOutputInvert                          0x00002beb   Thumb Code    16  pwm.o(i.PWMOutputInvert)
    PWMOutputState                           0x00002bfb   Thumb Code    16  pwm.o(i.PWMOutputState)
    PWMPulseWidthSet                         0x00002c0b   Thumb Code    32  pwm.o(i.PWMPulseWidthSet)
    SysCtlClockFreqSet                       0x00002c2d   Thumb Code   706  sysctl.o(i.SysCtlClockFreqSet)
    SysCtlClockGet                           0x00002f19   Thumb Code   304  sysctl.o(i.SysCtlClockGet)
    SysCtlPeripheralEnable                   0x0000306d   Thumb Code    36  sysctl.o(i.SysCtlPeripheralEnable)
    SysCtlPeripheralReady                    0x00003095   Thumb Code    40  sysctl.o(i.SysCtlPeripheralReady)
    TimerConfigure                           0x000030c1   Thumb Code    88  timer.o(i.TimerConfigure)
    TimerEnable                              0x00003121   Thumb Code    14  timer.o(i.TimerEnable)
    TimerIntClear                            0x0000312f   Thumb Code     4  timer.o(i.TimerIntClear)
    TimerIntEnable                           0x00003133   Thumb Code     8  timer.o(i.TimerIntEnable)
    TimerLoadSet                             0x0000313b   Thumb Code    18  timer.o(i.TimerLoadSet)
    UARTConfigSetExpClk                      0x0000314d   Thumb Code   110  uart.o(i.UARTConfigSetExpClk)
    UARTEnable                               0x000031bb   Thumb Code    20  uart.o(i.UARTEnable)
    __ARM_fpclassify                         0x0000323b   Thumb Code    48  fpclassify.o(i.__ARM_fpclassify)
    __hardfp_sin                             0x00003271   Thumb Code   180  sin.o(i.__hardfp_sin)
    __ieee754_rem_pio2                       0x00003339   Thumb Code   938  rred.o(i.__ieee754_rem_pio2)
    __kernel_cos                             0x00003771   Thumb Code   322  cos_i.o(i.__kernel_cos)
    __kernel_poly                            0x000038e1   Thumb Code   248  poly.o(i.__kernel_poly)
    __kernel_sin                             0x000039d9   Thumb Code   280  sin_i.o(i.__kernel_sin)
    __mathlib_dbl_infnan                     0x00003b09   Thumb Code    20  dunder.o(i.__mathlib_dbl_infnan)
    __mathlib_dbl_invalid                    0x00003b21   Thumb Code    24  dunder.o(i.__mathlib_dbl_invalid)
    __mathlib_dbl_underflow                  0x00003b41   Thumb Code    24  dunder.o(i.__mathlib_dbl_underflow)
    _init_box                                0x00003b61   Thumb Code    70  rt_membox.o(i._init_box)
    dbg_init                                 0x00003ba9   Thumb Code    34  hal_cm.o(i.dbg_init)
    dbg_task_notify                          0x00003bd9   Thumb Code    32  hal_cm.o(i.dbg_task_notify)
    dbg_task_switch                          0x00003bf9   Thumb Code    16  hal_cm.o(i.dbg_task_switch)
    fabs                                     0x00003c09   Thumb Code    24  fabs.o(i.fabs)
    isrMessageGet                            0x00003c21   Thumb Code    42  rt_cmsis.o(i.isrMessageGet)
    isrMessagePut                            0x00003c4b   Thumb Code    44  rt_cmsis.o(i.isrMessagePut)
    isrSignalSet                             0x00003c77   Thumb Code    36  rt_cmsis.o(i.isrSignalSet)
    isr_evt_set                              0x00003c9d   Thumb Code    34  rt_event.o(i.isr_evt_set)
    isr_mbx_receive                          0x00003cc5   Thumb Code    86  rt_mailbox.o(i.isr_mbx_receive)
    isr_mbx_send                             0x00003d1b   Thumb Code    14  rt_mailbox.o(i.isr_mbx_send)
    osDelay                                  0x00003d29   Thumb Code    18  rt_cmsis.o(i.osDelay)
    osKernelInitialize                       0x00003d41   Thumb Code    30  rt_cmsis.o(i.osKernelInitialize)
    osKernelStart                            0x00003d65   Thumb Code    98  rt_cmsis.o(i.osKernelStart)
    osMailAlloc                              0x00003dd1   Thumb Code    22  rt_cmsis.o(i.osMailAlloc)
    osMailCreate                             0x00003ded   Thumb Code    36  rt_cmsis.o(i.osMailCreate)
    osMailGet                                0x00003e19   Thumb Code    22  rt_cmsis.o(i.osMailGet)
    osMailPut                                0x00003e2f   Thumb Code    20  rt_cmsis.o(i.osMailPut)
    osMessageCreate                          0x00003e45   Thumb Code    36  rt_cmsis.o(i.osMessageCreate)
    osMessageGet                             0x00003e71   Thumb Code    18  rt_cmsis.o(i.osMessageGet)
    osMessagePut                             0x00003e89   Thumb Code    18  rt_cmsis.o(i.osMessagePut)
    osMutexCreate                            0x00003ea1   Thumb Code    36  rt_cmsis.o(i.osMutexCreate)
    osMutexRelease                           0x00003ecd   Thumb Code    18  rt_cmsis.o(i.osMutexRelease)
    osMutexWait                              0x00003ee5   Thumb Code    18  rt_cmsis.o(i.osMutexWait)
    osPoolAlloc                              0x00003efd   Thumb Code    26  rt_cmsis.o(i.osPoolAlloc)
    osPoolCreate                             0x00003f1d   Thumb Code    36  rt_cmsis.o(i.osPoolCreate)
    osPoolFree                               0x00003f49   Thumb Code    26  rt_cmsis.o(i.osPoolFree)
    osSignalClear                            0x00003f69   Thumb Code    20  rt_cmsis.o(i.osSignalClear)
    osSignalSet                              0x00003f81   Thumb Code    18  rt_cmsis.o(i.osSignalSet)
    osSignalWait                             0x00003f99   Thumb Code    18  rt_cmsis.o(i.osSignalWait)
    osThreadCreate                           0x00003fb1   Thumb Code    36  rt_cmsis.o(i.osThreadCreate)
    osThreadExit                             0x00003fdd   Thumb Code    14  rt_cmsis.o(i.osThreadExit)
    osTimerCall                              0x00003ff5   Thumb Code     8  rt_cmsis.o(i.osTimerCall)
    osTimerCreate                            0x00004001   Thumb Code    36  rt_cmsis.o(i.osTimerCreate)
    osTimerThread                            0x0000402d   Thumb Code    38  rt_cmsis.o(i.osTimerThread)
    os_tick_init                             0x00004059   Thumb Code    32  rt_system.o(i.os_tick_init)
    os_tick_irqack                           0x00004081   Thumb Code     2  rt_system.o(i.os_tick_irqack)
    rt_alloc_box                             0x00004083   Thumb Code    26  rt_membox.o(i.rt_alloc_box)
    rt_alloc_mem                             0x0000409d   Thumb Code    62  rt_memory.o(i.rt_alloc_mem)
    rt_block                                 0x000040dd   Thumb Code    48  rt_task.o(i.rt_block)
    rt_chk_robin                             0x00004115   Thumb Code    60  rt_robin.o(i.rt_chk_robin)
    rt_dec_dly                               0x0000415d   Thumb Code   102  rt_list.o(i.rt_dec_dly)
    rt_dispatch                              0x000041cd   Thumb Code    60  rt_task.o(i.rt_dispatch)
    rt_dly_wait                              0x00004211   Thumb Code     6  rt_time.o(i.rt_dly_wait)
    rt_evt_clr                               0x00004219   Thumb Code    22  rt_event.o(i.rt_evt_clr)
    rt_evt_psh                               0x00004235   Thumb Code    76  rt_event.o(i.rt_evt_psh)
    rt_evt_set                               0x00004285   Thumb Code    88  rt_event.o(i.rt_evt_set)
    rt_evt_wait                              0x000042e1   Thumb Code    56  rt_event.o(i.rt_evt_wait)
    rt_free_box                              0x0000431d   Thumb Code    44  rt_membox.o(i.rt_free_box)
    rt_free_mem                              0x00004349   Thumb Code    40  rt_memory.o(i.rt_free_mem)
    rt_get_first                             0x00004371   Thumb Code    40  rt_list.o(i.rt_get_first)
    rt_init_mem                              0x000043e9   Thumb Code    26  rt_memory.o(i.rt_init_mem)
    rt_init_robin                            0x00004405   Thumb Code    14  rt_robin.o(i.rt_init_robin)
    rt_init_stack                            0x0000441d   Thumb Code   118  hal_cm.o(i.rt_init_stack)
    rt_mbx_check                             0x0000449d   Thumb Code     8  rt_mailbox.o(i.rt_mbx_check)
    rt_mbx_init                              0x000044a5   Thumb Code    26  rt_mailbox.o(i.rt_mbx_init)
    rt_mbx_psh                               0x000044c1   Thumb Code   236  rt_mailbox.o(i.rt_mbx_psh)
    rt_mbx_send                              0x000045b1   Thumb Code   148  rt_mailbox.o(i.rt_mbx_send)
    rt_mbx_wait                              0x00004649   Thumb Code   174  rt_mailbox.o(i.rt_mbx_wait)
    rt_mut_init                              0x00004741   Thumb Code    16  rt_mutex.o(i.rt_mut_init)
    rt_mut_release                           0x00004751   Thumb Code   208  rt_mutex.o(i.rt_mut_release)
    rt_mut_wait                              0x00004829   Thumb Code   114  rt_mutex.o(i.rt_mut_wait)
    rt_pop_req                               0x000048a1   Thumb Code   112  rt_system.o(i.rt_pop_req)
    rt_psh_req                               0x0000491d   Thumb Code    22  rt_system.o(i.rt_psh_req)
    rt_psq_enq                               0x0000493d   Thumb Code    88  rt_list.o(i.rt_psq_enq)
    rt_put_dly                               0x00004999   Thumb Code    68  rt_list.o(i.rt_put_dly)
    rt_put_prio                              0x000049e1   Thumb Code    54  rt_list.o(i.rt_put_prio)
    rt_put_rdy_first                         0x00004a19   Thumb Code    14  rt_list.o(i.rt_put_rdy_first)
    rt_resort_prio                           0x00004a2d   Thumb Code    46  rt_list.o(i.rt_resort_prio)
    rt_ret_val                               0x00004a71   Thumb Code    12  hal_cm.o(i.rt_ret_val)
    rt_ret_val2                              0x00004a7d   Thumb Code    16  hal_cm.o(i.rt_ret_val2)
    rt_rmv_dly                               0x00004a8d   Thumb Code    40  rt_list.o(i.rt_rmv_dly)
    rt_rmv_list                              0x00004ab5   Thumb Code    44  rt_list.o(i.rt_rmv_list)
    rt_sem_psh                               0x00004ae5   Thumb Code    48  rt_semaphore.o(i.rt_sem_psh)
    rt_stk_check                             0x00004b19   Thumb Code    28  rt_system.o(i.rt_stk_check)
    rt_switch_req                            0x00004b3d   Thumb Code    30  rt_task.o(i.rt_switch_req)
    rt_sys_init                              0x00004b65   Thumb Code   138  rt_task.o(i.rt_sys_init)
    rt_sys_start                             0x00004c31   Thumb Code   110  rt_task.o(i.rt_sys_start)
    rt_systick                               0x00004ca9   Thumb Code    50  rt_system.o(i.rt_systick)
    rt_tsk_create                            0x00004d31   Thumb Code   118  rt_task.o(i.rt_tsk_create)
    rt_tsk_delete                            0x00004db9   Thumb Code   352  rt_task.o(i.rt_tsk_delete)
    rt_tsk_prio                              0x00004f35   Thumb Code   108  rt_task.o(i.rt_tsk_prio)
    rt_tsk_self                              0x00004fb1   Thumb Code    12  rt_task.o(i.rt_tsk_self)
    svcDelay                                 0x00004fc1   Thumb Code    18  rt_cmsis.o(i.svcDelay)
    svcKernelInitialize                      0x00004fd5   Thumb Code    80  rt_cmsis.o(i.svcKernelInitialize)
    svcKernelStart                           0x00005045   Thumb Code    62  rt_cmsis.o(i.svcKernelStart)
    svcMailCreate                            0x0000508d   Thumb Code    66  rt_cmsis.o(i.svcMailCreate)
    svcMessageCreate                         0x000050cf   Thumb Code    36  rt_cmsis.o(i.svcMessageCreate)
    svcMessageGet                            0x000050f3   Thumb Code    58  rt_cmsis.o(i.svcMessageGet)
    svcMessagePut                            0x0000512d   Thumb Code    54  rt_cmsis.o(i.svcMessagePut)
    svcMutexCreate                           0x00005163   Thumb Code    28  rt_cmsis.o(i.svcMutexCreate)
    svcMutexRelease                          0x0000517f   Thumb Code    34  rt_cmsis.o(i.svcMutexRelease)
    svcMutexWait                             0x000051a1   Thumb Code    58  rt_cmsis.o(i.svcMutexWait)
    svcPoolCreate                            0x000051db   Thumb Code    40  rt_cmsis.o(i.svcPoolCreate)
    svcSignalClear                           0x00005203   Thumb Code    36  rt_cmsis.o(i.svcSignalClear)
    svcSignalSet                             0x00005227   Thumb Code    36  rt_cmsis.o(i.svcSignalSet)
    svcSignalWait                            0x0000524d   Thumb Code    80  rt_cmsis.o(i.svcSignalWait)
    svcThreadCreate                          0x000052a1   Thumb Code    96  rt_cmsis.o(i.svcThreadCreate)
    svcThreadGetId                           0x0000530d   Thumb Code    22  rt_cmsis.o(i.svcThreadGetId)
    svcThreadTerminate                       0x00005329   Thumb Code    50  rt_cmsis.o(i.svcThreadTerminate)
    svcTimerCall                             0x00005361   Thumb Code    24  rt_cmsis.o(i.svcTimerCall)
    svcTimerCreate                           0x00005379   Thumb Code    52  rt_cmsis.o(i.svcTimerCreate)
    sysMailAlloc                             0x000053b1   Thumb Code    84  rt_cmsis.o(i.sysMailAlloc)
    sysPoolAlloc                             0x00005409   Thumb Code    10  rt_cmsis.o(i.sysPoolAlloc)
    sysPoolFree                              0x00005413   Thumb Code    20  rt_cmsis.o(i.sysPoolFree)
    sysTimerTick                             0x00005429   Thumb Code    84  rt_cmsis.o(i.sysTimerTick)
    __aeabi_dneg                             0x00005485   Thumb Code     0  basic.o(x$fpl$basic)
    _dneg                                    0x00005485   Thumb Code     6  basic.o(x$fpl$basic)
    __aeabi_fneg                             0x0000548b   Thumb Code     0  basic.o(x$fpl$basic)
    _fneg                                    0x0000548b   Thumb Code     6  basic.o(x$fpl$basic)
    _dabs                                    0x00005491   Thumb Code     6  basic.o(x$fpl$basic)
    _fabs                                    0x00005497   Thumb Code     6  basic.o(x$fpl$basic)
    __aeabi_d2f                              0x0000549d   Thumb Code     0  d2f.o(x$fpl$d2f)
    _d2f                                     0x0000549d   Thumb Code    98  d2f.o(x$fpl$d2f)
    __aeabi_dadd                             0x00005501   Thumb Code     0  daddsub_clz.o(x$fpl$dadd)
    _dadd                                    0x00005501   Thumb Code   332  daddsub_clz.o(x$fpl$dadd)
    __aeabi_ddiv                             0x00005651   Thumb Code     0  ddiv.o(x$fpl$ddiv)
    _ddiv                                    0x00005651   Thumb Code   552  ddiv.o(x$fpl$ddiv)
    __aeabi_d2iz                             0x00005901   Thumb Code     0  dfix.o(x$fpl$dfix)
    _dfix                                    0x00005901   Thumb Code    94  dfix.o(x$fpl$dfix)
    __aeabi_d2uiz                            0x00005961   Thumb Code     0  dfixu.o(x$fpl$dfixu)
    _dfixu                                   0x00005961   Thumb Code    90  dfixu.o(x$fpl$dfixu)
    __aeabi_i2d                              0x000059bb   Thumb Code     0  dflt_clz.o(x$fpl$dflt)
    _dflt                                    0x000059bb   Thumb Code    46  dflt_clz.o(x$fpl$dflt)
    __aeabi_ui2d                             0x000059e9   Thumb Code     0  dflt_clz.o(x$fpl$dfltu)
    _dfltu                                   0x000059e9   Thumb Code    38  dflt_clz.o(x$fpl$dfltu)
    __aeabi_dmul                             0x00005a11   Thumb Code     0  dmul.o(x$fpl$dmul)
    _dmul                                    0x00005a11   Thumb Code   332  dmul.o(x$fpl$dmul)
    __fpl_dnaninf                            0x00005b65   Thumb Code   156  dnaninf.o(x$fpl$dnaninf)
    __fpl_dretinf                            0x00005c01   Thumb Code    12  dretinf.o(x$fpl$dretinf)
    __aeabi_drsub                            0x00005c0d   Thumb Code     0  daddsub_clz.o(x$fpl$drsb)
    _drsb                                    0x00005c0d   Thumb Code    22  daddsub_clz.o(x$fpl$drsb)
    __aeabi_dsub                             0x00005c25   Thumb Code     0  daddsub_clz.o(x$fpl$dsub)
    _dsub                                    0x00005c25   Thumb Code   464  daddsub_clz.o(x$fpl$dsub)
    __aeabi_f2d                              0x00005df9   Thumb Code     0  f2d.o(x$fpl$f2d)
    _f2d                                     0x00005df9   Thumb Code    86  f2d.o(x$fpl$f2d)
    __fpl_fnaninf                            0x00005e4f   Thumb Code   140  fnaninf.o(x$fpl$fnaninf)
    _fp_init                                 0x00005edb   Thumb Code    10  fpinit.o(x$fpl$fpinit)
    __fplib_config_fpu_vfp                   0x00005ee3   Thumb Code     0  fpinit.o(x$fpl$fpinit)
    __fplib_config_pureend_doubles           0x00005ee3   Thumb Code     0  fpinit.o(x$fpl$fpinit)
    __fpl_fretinf                            0x00005ee5   Thumb Code    10  fretinf.o(x$fpl$fretinf)
    __aeabi_f2lz                             0x00005ef1   Thumb Code     0  ffixll.o(x$fpl$llsfromf)
    _ll_sfrom_f                              0x00005ef1   Thumb Code   134  ffixll.o(x$fpl$llsfromf)
    __I$use$fp                               0x00005f76   Number         0  usenofp.o(x$fpl$usenofp)
    os_mutex_def_mutex_display               0x00005f78   Data           4  exemplotiva.o(.constdata)
    os_timer_def_Timer                       0x00005f7c   Data           8  exemplotiva.o(.constdata)
    os_messageQ_def_gen2dis                  0x00005f84   Data           8  exemplotiva.o(.constdata)
    os_messageQ_def_gen2pwm                  0x00005f8c   Data           8  exemplotiva.o(.constdata)
    os_pool_def_sig                          0x00005f94   Data          12  exemplotiva.o(.constdata)
    os_pool_def_pt                           0x00005fa0   Data          12  exemplotiva.o(.constdata)
    os_pool_def_msg                          0x00005fac   Data          12  exemplotiva.o(.constdata)
    os_pool_def_pwm_msg                      0x00005fb8   Data          12  exemplotiva.o(.constdata)
    os_thread_def_t_Display                  0x00005fc4   Data          16  exemplotiva.o(.constdata)
    os_thread_def_t_PWM                      0x00005fd4   Data          16  exemplotiva.o(.constdata)
    os_thread_def_t_GenerateSignal           0x00005fe4   Data          16  exemplotiva.o(.constdata)
    os_thread_def_t_UART                     0x00005ff4   Data          16  exemplotiva.o(.constdata)
    os_mailQ_def_uart_msg                    0x00006004   Data          12  exemplotiva.o(.constdata)
    os_mailQ_def_usr2gen                     0x00006010   Data          12  exemplotiva.o(.constdata)
    g_sCfaf128x128x16                        0x0000601c   Data          40  cfaf128x128x16.o(.constdata)
    os_maxtaskrun                            0x00006044   Data           2  rtx_conf_cm.o(.constdata)
    os_stackinfo                             0x00006048   Data           4  rtx_conf_cm.o(.constdata)
    os_rrobin                                0x0000604c   Data           4  rtx_conf_cm.o(.constdata)
    os_trv                                   0x00006050   Data           4  rtx_conf_cm.o(.constdata)
    os_flags                                 0x00006054   Data           1  rtx_conf_cm.o(.constdata)
    CMSIS_RTOS_API_Version                   0x00006058   Data           4  rtx_conf_cm.o(.constdata)
    CMSIS_RTOS_RTX_Version                   0x0000605c   Data           4  rtx_conf_cm.o(.constdata)
    os_clockrate                             0x00006060   Data           4  rtx_conf_cm.o(.constdata)
    os_timernum                              0x00006064   Data           4  rtx_conf_cm.o(.constdata)
    mp_tcb_size                              0x00006068   Data           2  rtx_conf_cm.o(.constdata)
    mp_stk_size                              0x0000606c   Data           4  rtx_conf_cm.o(.constdata)
    os_stack_sz                              0x00006070   Data           4  rtx_conf_cm.o(.constdata)
    os_fifo_size                             0x00006074   Data           1  rtx_conf_cm.o(.constdata)
    os_thread_def_osTimerThread              0x00006078   Data          16  rtx_conf_cm.o(.constdata)
    os_messageQ_def_osTimerMessageQ          0x00006088   Data           8  rtx_conf_cm.o(.constdata)
    mp_tmr_size                              0x00006090   Data           2  rtx_conf_cm.o(.constdata)
    os_thread_def_main                       0x00006094   Data          16  rtx_conf_cm.o(.constdata)
    g_psDefaultCodePointMapTable             0x0000662c   Data          16  context.o(.constdata)
    g_sFontFixed6x8                          0x00006934   Data         200  fontfixed6x8.o(.constdata)
    Region$$Table$$Base                      0x00006b48   Number         0  anon$$obj.o(Region$$Table)
    Region$$Table$$Limit                     0x00006b68   Number         0  anon$$obj.o(Region$$Table)
    os_mailQ_p_uart_msg                      0x20000000   Data           8  exemplotiva.o(.data)
    os_mailQ_p_usr2gen                       0x20000008   Data           8  exemplotiva.o(.data)
    Timer_ID                                 0x20000018   Data           4  exemplotiva.o(.data)
    sig                                      0x2000001c   Data           4  exemplotiva.o(.data)
    pt                                       0x20000020   Data           4  exemplotiva.o(.data)
    msg                                      0x20000024   Data           4  exemplotiva.o(.data)
    pwm_msg                                  0x20000028   Data           4  exemplotiva.o(.data)
    t_display_id                             0x2000002c   Data           4  exemplotiva.o(.data)
    t_PWM_id                                 0x20000030   Data           4  exemplotiva.o(.data)
    t_generatesignal_id                      0x20000034   Data           4  exemplotiva.o(.data)
    t_uart_id                                0x20000038   Data           4  exemplotiva.o(.data)
    uart_msg_id                              0x2000003c   Data           4  exemplotiva.o(.data)
    usr2gen_id                               0x20000040   Data           4  exemplotiva.o(.data)
    gen2dis_id                               0x20000044   Data           4  exemplotiva.o(.data)
    gen2pwm_id                               0x20000048   Data           4  exemplotiva.o(.data)
    mutex_display_id                         0x2000004c   Data           4  exemplotiva.o(.data)
    m_tmr                                    0x20000070   Data           4  rtx_conf_cm.o(.data)
    osThreadId_osTimerThread                 0x20000074   Data           4  rtx_conf_cm.o(.data)
    osMessageQId_osTimerMessageQ             0x20000078   Data           4  rtx_conf_cm.o(.data)
    SystemCoreClock                          0x20000080   Data           4  system_tm4c129.o(.data)
    os_initialized                           0x20000088   Data           1  rt_cmsis.o(.data)
    os_running                               0x20000089   Data           1  rt_cmsis.o(.data)
    os_timer_head                            0x2000008c   Data           4  rt_cmsis.o(.data)
    os_tsk                                   0x20000090   Data           8  rt_task.o(.data)
    os_tick_irqn                             0x2000009c   Data           4  rt_system.o(.data)
    os_time                                  0x200000a0   Data           4  rt_time.o(.data)
    os_robin                                 0x200000a4   Data           8  rt_robin.o(.data)
    dbg_msg                                  0x200000ac   Data           1  hal_cm.o(.data)
    os_mailQ_q_uart_msg                      0x200000b0   Data          80  exemplotiva.o(.bss)
    os_mailQ_q_usr2gen                       0x20000100   Data          80  exemplotiva.o(.bss)
    os_messageQ_q_gen2dis                    0x20000150   Data          80  exemplotiva.o(.bss)
    os_messageQ_q_gen2pwm                    0x200001a0   Data          80  exemplotiva.o(.bss)
    os_mutex_cb_mutex_display                0x200001f0   Data          16  exemplotiva.o(.bss)
    sContext                                 0x20000200   Data          44  exemplotiva.o(.bss)
    os_timer_cb_Timer                        0x2000022c   Data          24  exemplotiva.o(.bss)
    os_pool_m_sig                            0x20000244   Data         204  exemplotiva.o(.bss)
    os_pool_m_pt                             0x20000310   Data          76  exemplotiva.o(.bss)
    os_pool_m_msg                            0x2000035c   Data          76  exemplotiva.o(.bss)
    os_pool_m_pwm_msg                        0x200003a8   Data          76  exemplotiva.o(.bss)
    os_mailQ_m_uart_msg                      0x200003f4   Data          76  exemplotiva.o(.bss)
    os_mailQ_m_usr2gen                       0x20000440   Data         204  exemplotiva.o(.bss)
    os_messageQ_q_osTimerMessageQ            0x2000050c   Data          32  rtx_conf_cm.o(.bss)
    mp_tcb                                   0x2000052c   Data         480  rtx_conf_cm.o(.bss)
    mp_stk                                   0x20000710   Data        6416  rtx_conf_cm.o(.bss)
    os_stack_mem                             0x20002020   Data        1032  rtx_conf_cm.o(.bss)
    os_fifo                                  0x20002428   Data         132  rtx_conf_cm.o(.bss)
    os_active_TCB                            0x200024ac   Data          36  rtx_conf_cm.o(.bss)
    os_idle_TCB                              0x200028b0   Data          52  rt_task.o(.bss)
    os_rdy                                   0x200028e4   Data          24  rt_list.o(.bss)
    os_dly                                   0x200028fc   Data          24  rt_list.o(.bss)
    __libspace_start                         0x20002914   Data          96  libspace.o(.bss)
    __temporary_stack_top$libspace           0x20002974   Data           0  libspace.o(.bss)



==============================================================================

Memory Map of the image

  Image Entry point : 0x00000201

  Load Region LR_IROM1 (Base: 0x00000000, Size: 0x00006c18, Max: 0x00100000, ABSOLUTE)

    Execution Region ER_IROM1 (Exec base: 0x00000000, Load base: 0x00000000, Size: 0x00006b68, Max: 0x00100000, ABSOLUTE)

    Exec Addr    Load Addr    Size         Type   Attr      Idx    E Section Name        Object

    0x00000000   0x00000000   0x00000200   Data   RO          504    RESET               startup_tm4c129.o
    0x00000200   0x00000200   0x00000008   Code   RO         4269  * !!!main             c_w.l(__main.o)
    0x00000208   0x00000208   0x00000034   Code   RO         4534    !!!scatter          c_w.l(__scatter.o)
    0x0000023c   0x0000023c   0x0000001a   Code   RO         4536    !!handler_copy      c_w.l(__scatter_copy.o)
    0x00000256   0x00000256   0x00000002   PAD
    0x00000258   0x00000258   0x0000001c   Code   RO         4538    !!handler_zi        c_w.l(__scatter_zi.o)
    0x00000274   0x00000274   0x00000002   Code   RO         4420    .ARM.Collect$$libinit$$00000000  c_w.l(libinit.o)
    0x00000276   0x00000276   0x00000004   Code   RO         4431    .ARM.Collect$$libinit$$00000001  c_w.l(libinit2.o)
    0x0000027a   0x0000027a   0x00000000   Code   RO         4434    .ARM.Collect$$libinit$$00000004  c_w.l(libinit2.o)
    0x0000027a   0x0000027a   0x00000000   Code   RO         4437    .ARM.Collect$$libinit$$0000000A  c_w.l(libinit2.o)
    0x0000027a   0x0000027a   0x00000000   Code   RO         4439    .ARM.Collect$$libinit$$0000000C  c_w.l(libinit2.o)
    0x0000027a   0x0000027a   0x00000000   Code   RO         4441    .ARM.Collect$$libinit$$0000000E  c_w.l(libinit2.o)
    0x0000027a   0x0000027a   0x00000000   Code   RO         4444    .ARM.Collect$$libinit$$00000011  c_w.l(libinit2.o)
    0x0000027a   0x0000027a   0x00000000   Code   RO         4446    .ARM.Collect$$libinit$$00000013  c_w.l(libinit2.o)
    0x0000027a   0x0000027a   0x00000000   Code   RO         4448    .ARM.Collect$$libinit$$00000015  c_w.l(libinit2.o)
    0x0000027a   0x0000027a   0x00000000   Code   RO         4450    .ARM.Collect$$libinit$$00000017  c_w.l(libinit2.o)
    0x0000027a   0x0000027a   0x00000000   Code   RO         4452    .ARM.Collect$$libinit$$00000019  c_w.l(libinit2.o)
    0x0000027a   0x0000027a   0x00000000   Code   RO         4454    .ARM.Collect$$libinit$$0000001B  c_w.l(libinit2.o)
    0x0000027a   0x0000027a   0x00000000   Code   RO         4456    .ARM.Collect$$libinit$$0000001D  c_w.l(libinit2.o)
    0x0000027a   0x0000027a   0x00000000   Code   RO         4458    .ARM.Collect$$libinit$$0000001F  c_w.l(libinit2.o)
    0x0000027a   0x0000027a   0x00000000   Code   RO         4460    .ARM.Collect$$libinit$$00000021  c_w.l(libinit2.o)
    0x0000027a   0x0000027a   0x00000000   Code   RO         4462    .ARM.Collect$$libinit$$00000023  c_w.l(libinit2.o)
    0x0000027a   0x0000027a   0x00000000   Code   RO         4464    .ARM.Collect$$libinit$$00000025  c_w.l(libinit2.o)
    0x0000027a   0x0000027a   0x00000000   Code   RO         4468    .ARM.Collect$$libinit$$0000002C  c_w.l(libinit2.o)
    0x0000027a   0x0000027a   0x00000000   Code   RO         4470    .ARM.Collect$$libinit$$0000002E  c_w.l(libinit2.o)
    0x0000027a   0x0000027a   0x00000000   Code   RO         4472    .ARM.Collect$$libinit$$00000030  c_w.l(libinit2.o)
    0x0000027a   0x0000027a   0x00000000   Code   RO         4474    .ARM.Collect$$libinit$$00000032  c_w.l(libinit2.o)
    0x0000027a   0x0000027a   0x00000002   Code   RO         4475    .ARM.Collect$$libinit$$00000033  c_w.l(libinit2.o)
    0x0000027c   0x0000027c   0x00000002   Code   RO         4421    .ARM.Collect$$libshutdown$$00000000  c_w.l(libshutdown.o)
    0x0000027e   0x0000027e   0x00000000   Code   RO         4477    .ARM.Collect$$libshutdown$$00000002  c_w.l(libshutdown2.o)
    0x0000027e   0x0000027e   0x00000000   Code   RO         4479    .ARM.Collect$$libshutdown$$00000004  c_w.l(libshutdown2.o)
    0x0000027e   0x0000027e   0x00000000   Code   RO         4482    .ARM.Collect$$libshutdown$$00000007  c_w.l(libshutdown2.o)
    0x0000027e   0x0000027e   0x00000000   Code   RO         4485    .ARM.Collect$$libshutdown$$0000000A  c_w.l(libshutdown2.o)
    0x0000027e   0x0000027e   0x00000000   Code   RO         4487    .ARM.Collect$$libshutdown$$0000000C  c_w.l(libshutdown2.o)
    0x0000027e   0x0000027e   0x00000000   Code   RO         4490    .ARM.Collect$$libshutdown$$0000000F  c_w.l(libshutdown2.o)
    0x0000027e   0x0000027e   0x00000002   Code   RO         4491    .ARM.Collect$$libshutdown$$00000010  c_w.l(libshutdown2.o)
    0x00000280   0x00000280   0x00000000   Code   RO         4313    .ARM.Collect$$rtentry$$00000000  c_w.l(__rtentry.o)
    0x00000280   0x00000280   0x00000000   Code   RO         4362    .ARM.Collect$$rtentry$$00000002  c_w.l(__rtentry2.o)
    0x00000280   0x00000280   0x00000006   Code   RO         4374    .ARM.Collect$$rtentry$$00000004  c_w.l(__rtentry4.o)
    0x00000286   0x00000286   0x00000000   Code   RO         4364    .ARM.Collect$$rtentry$$00000009  c_w.l(__rtentry2.o)
    0x00000286   0x00000286   0x00000004   Code   RO         4365    .ARM.Collect$$rtentry$$0000000A  c_w.l(__rtentry2.o)
    0x0000028a   0x0000028a   0x00000008   Code   RO         4366    .ARM.Collect$$rtentry$$0000000B  c_w.l(__rtentry2.o)
    0x00000292   0x00000292   0x00000008   Code   RO         4368    .ARM.Collect$$rtentry$$0000000D  c_w.l(__rtentry2.o)
    0x0000029a   0x0000029a   0x00000002   Code   RO         4314    .ARM.Collect$$rtexit$$00000000  c_w.l(rtexit.o)
    0x0000029c   0x0000029c   0x00000000   Code   RO         4377    .ARM.Collect$$rtexit$$00000002  c_w.l(rtexit2.o)
    0x0000029c   0x0000029c   0x00000004   Code   RO         4378    .ARM.Collect$$rtexit$$00000003  c_w.l(rtexit2.o)
    0x000002a0   0x000002a0   0x00000006   Code   RO         4379    .ARM.Collect$$rtexit$$00000004  c_w.l(rtexit2.o)
    0x000002a6   0x000002a6   0x00000002   PAD
    0x000002a8   0x000002a8   0x0000001c   Code   RO          448    .emb_text           rtx_conf_cm.o
    0x000002c4   0x000002c4   0x00000006   Code   RO         1810    .emb_text           driverlib.lib(sysctl.o)
    0x000002ca   0x000002ca   0x00000002   PAD
    0x000002cc   0x000002cc   0x00000026   Code   RO         3615    .emb_text           driverlib.lib(cpu.o)
    0x000002f2   0x000002f2   0x00000002   PAD
    0x000002f4   0x000002f4   0x00000198   Code   RO         4243    .emb_text           RTX_CM4.lib(hal_cm4.o)
    0x0000048c   0x0000048c   0x00000d28   Code   RO            4    .text               exemplotiva.o
    0x000011b4   0x000011b4   0x00000124   Code   RO          160    .text               pwm.o
    0x000012d8   0x000012d8   0x0000031c   Code   RO          180    .text               uart.o
    0x000015f4   0x000015f4   0x000001ec   Code   RO          221    .text               utils.o
    0x000017e0   0x000017e0   0x00000154   Code   RO          224    .text               buzzer.o
    0x00001934   0x00001934   0x0000005c   Code   RO          259    .text               buttons.o
    0x00001990   0x00001990   0x000006fc   Code   RO          274    .text               cfaf128x128x16.o
    0x0000208c   0x0000208c   0x0000008c   Code   RO          449    .text               rtx_conf_cm.o
    0x00002118   0x00002118   0x0000012c   Code   RO          505    .text               startup_tm4c129.o
    0x00002244   0x00002244   0x00000028   Code   RO          512    .text               system_tm4c129.o
    0x0000226c   0x0000226c   0x00000008   Code   RO         4258    .text               c_w.l(libspace.o)
    0x00002274   0x00002274   0x000000ee   Code   RO         4261    .text               c_w.l(lludivv7m.o)
    0x00002362   0x00002362   0x00000048   Code   RO         4263    .text               c_w.l(llsdiv.o)
    0x000023aa   0x000023aa   0x00000012   Code   RO         4265    .text               c_w.l(exit.o)
    0x000023bc   0x000023bc   0x00000006   Code   RO         4267    .text               c_w.l(heapauxi.o)
    0x000023c2   0x000023c2   0x00000016   Code   RO         4320    .text               c_w.l(_rserrno.o)
    0x000023d8   0x000023d8   0x00000004   Code   RO         4390    .text               c_w.l(rt_errno_addr_twolibspace.o)
    0x000023dc   0x000023dc   0x0000000c   Code   RO         4406    .text               c_w.l(sys_exit.o)
    0x000023e8   0x000023e8   0x0000004a   Code   RO         4408    .text               c_w.l(sys_stackheap_outer.o)
    0x00002432   0x00002432   0x00000002   Code   RO         4422    .text               c_w.l(use_no_semi.o)
    0x00002434   0x00002434   0x00000000   Code   RO         4424    .text               c_w.l(indicate_semi.o)
    0x00002434   0x00002434   0x00000004   Code   RO         4253    SVC_TABLE           RTX_CM4.lib(svc_table.o)
    0x00002438   0x00002438   0x00000028   Code   RO          822    i.GPIODirModeSet    driverlib.lib(gpio.o)
    0x00002460   0x00002460   0x00000138   Code   RO          834    i.GPIOPadConfigSet  driverlib.lib(gpio.o)
    0x00002598   0x00002598   0x00000044   Code   RO          835    i.GPIOPinConfigure  driverlib.lib(gpio.o)
    0x000025dc   0x000025dc   0x00000006   Code   RO          836    i.GPIOPinRead       driverlib.lib(gpio.o)
    0x000025e2   0x000025e2   0x0000001c   Code   RO          845    i.GPIOPinTypeGPIOInput  driverlib.lib(gpio.o)
    0x000025fe   0x000025fe   0x0000001c   Code   RO          853    i.GPIOPinTypePWM    driverlib.lib(gpio.o)
    0x0000261a   0x0000261a   0x0000001c   Code   RO          858    i.GPIOPinTypeUART   driverlib.lib(gpio.o)
    0x00002636   0x00002636   0x00000006   Code   RO         2745    i.GrContextFontSet  grlib.lib(string.o)
    0x0000263c   0x0000263c   0x00000064   Code   RO         2696    i.GrContextInit     grlib.lib(context.o)
    0x000026a0   0x000026a0   0x00000118   Code   RO         2746    i.GrDefaultStringRenderer  grlib.lib(string.o)
    0x000027b8   0x000027b8   0x000000a6   Code   RO         2750    i.GrFontGlyphDataGet  grlib.lib(string.o)
    0x0000285e   0x0000285e   0x00000288   Code   RO         2751    i.GrFontGlyphRender  grlib.lib(string.o)
    0x00002ae6   0x00002ae6   0x00000008   Code   RO         3631    i.GrMapISO8859_1_Unicode  grlib.lib(charmap.o)
    0x00002aee   0x00002aee   0x00000020   Code   RO         2757    i.GrStringDraw      grlib.lib(string.o)
    0x00002b0e   0x00002b0e   0x00000002   PAD
    0x00002b10   0x00002b10   0x00000064   Code   RO         1462    i.IntEnable         driverlib.lib(interrupt.o)
    0x00002b74   0x00002b74   0x0000000e   Code   RO         1465    i.IntMasterEnable   driverlib.lib(interrupt.o)
    0x00002b82   0x00002b82   0x00000014   Code   RO         1578    i.PWMClockSet       driverlib.lib(pwm.o)
    0x00002b96   0x00002b96   0x00000026   Code   RO         1585    i.PWMGenConfigure   driverlib.lib(pwm.o)
    0x00002bbc   0x00002bbc   0x0000000a   Code   RO         1587    i.PWMGenEnable      driverlib.lib(pwm.o)
    0x00002bc6   0x00002bc6   0x00000012   Code   RO         1599    i.PWMGenPeriodGet   driverlib.lib(pwm.o)
    0x00002bd8   0x00002bd8   0x00000012   Code   RO         1600    i.PWMGenPeriodSet   driverlib.lib(pwm.o)
    0x00002bea   0x00002bea   0x00000010   Code   RO         1606    i.PWMOutputInvert   driverlib.lib(pwm.o)
    0x00002bfa   0x00002bfa   0x00000010   Code   RO         1607    i.PWMOutputState    driverlib.lib(pwm.o)
    0x00002c0a   0x00002c0a   0x00000020   Code   RO         1610    i.PWMPulseWidthSet  driverlib.lib(pwm.o)
    0x00002c2a   0x00002c2a   0x00000002   PAD
    0x00002c2c   0x00002c2c   0x000002ec   Code   RO         1812    i.SysCtlClockFreqSet  driverlib.lib(sysctl.o)
    0x00002f18   0x00002f18   0x00000154   Code   RO         1813    i.SysCtlClockGet    driverlib.lib(sysctl.o)
    0x0000306c   0x0000306c   0x00000028   Code   RO         1844    i.SysCtlPeripheralEnable  driverlib.lib(sysctl.o)
    0x00003094   0x00003094   0x0000002c   Code   RO         1848    i.SysCtlPeripheralReady  driverlib.lib(sysctl.o)
    0x000030c0   0x000030c0   0x00000060   Code   RO         2162    i.TimerConfigure    driverlib.lib(timer.o)
    0x00003120   0x00003120   0x0000000e   Code   RO         2171    i.TimerEnable       driverlib.lib(timer.o)
    0x0000312e   0x0000312e   0x00000004   Code   RO         2172    i.TimerIntClear     driverlib.lib(timer.o)
    0x00003132   0x00003132   0x00000008   Code   RO         2174    i.TimerIntEnable    driverlib.lib(timer.o)
    0x0000313a   0x0000313a   0x00000012   Code   RO         2180    i.TimerLoadSet      driverlib.lib(timer.o)
    0x0000314c   0x0000314c   0x0000006e   Code   RO         2414    i.UARTConfigSetExpClk  driverlib.lib(uart.o)
    0x000031ba   0x000031ba   0x00000014   Code   RO         2419    i.UARTEnable        driverlib.lib(uart.o)
    0x000031ce   0x000031ce   0x0000006c   Code   RO         2763    i.UpdateContextCharMapping  grlib.lib(string.o)
    0x0000323a   0x0000323a   0x00000030   Code   RO         4402    i.__ARM_fpclassify  m_wm.l(fpclassify.o)
    0x0000326a   0x0000326a   0x00000006   PAD
    0x00003270   0x00003270   0x000000c8   Code   RO         4301    i.__hardfp_sin      m_wm.l(sin.o)
    0x00003338   0x00003338   0x00000438   Code   RO         4350    i.__ieee754_rem_pio2  m_wm.l(rred.o)
    0x00003770   0x00003770   0x00000170   Code   RO         4333    i.__kernel_cos      m_wm.l(cos_i.o)
    0x000038e0   0x000038e0   0x000000f8   Code   RO         4404    i.__kernel_poly     m_wm.l(poly.o)
    0x000039d8   0x000039d8   0x00000130   Code   RO         4355    i.__kernel_sin      m_wm.l(sin_i.o)
    0x00003b08   0x00003b08   0x00000014   Code   RO         4337    i.__mathlib_dbl_infnan  m_wm.l(dunder.o)
    0x00003b1c   0x00003b1c   0x00000004   PAD
    0x00003b20   0x00003b20   0x00000020   Code   RO         4339    i.__mathlib_dbl_invalid  m_wm.l(dunder.o)
    0x00003b40   0x00003b40   0x00000020   Code   RO         4342    i.__mathlib_dbl_underflow  m_wm.l(dunder.o)
    0x00003b60   0x00003b60   0x00000046   Code   RO         4137    i._init_box         RTX_CM4.lib(rt_membox.o)
    0x00003ba6   0x00003ba6   0x00000002   PAD
    0x00003ba8   0x00003ba8   0x00000030   Code   RO         4190    i.dbg_init          RTX_CM4.lib(hal_cm.o)
    0x00003bd8   0x00003bd8   0x00000020   Code   RO         4191    i.dbg_task_notify   RTX_CM4.lib(hal_cm.o)
    0x00003bf8   0x00003bf8   0x00000010   Code   RO         4192    i.dbg_task_switch   RTX_CM4.lib(hal_cm.o)
    0x00003c08   0x00003c08   0x00000018   Code   RO         4398    i.fabs              m_wm.l(fabs.o)
    0x00003c20   0x00003c20   0x0000002a   Code   RO         2875    i.isrMessageGet     RTX_CM4.lib(rt_cmsis.o)
    0x00003c4a   0x00003c4a   0x0000002c   Code   RO         2876    i.isrMessagePut     RTX_CM4.lib(rt_cmsis.o)
    0x00003c76   0x00003c76   0x00000024   Code   RO         2878    i.isrSignalSet      RTX_CM4.lib(rt_cmsis.o)
    0x00003c9a   0x00003c9a   0x00000002   PAD
    0x00003c9c   0x00003c9c   0x00000028   Code   RO         3874    i.isr_evt_set       RTX_CM4.lib(rt_event.o)
    0x00003cc4   0x00003cc4   0x00000056   Code   RO         3992    i.isr_mbx_receive   RTX_CM4.lib(rt_mailbox.o)
    0x00003d1a   0x00003d1a   0x0000000e   Code   RO         3993    i.isr_mbx_send      RTX_CM4.lib(rt_mailbox.o)
    0x00003d28   0x00003d28   0x00000018   Code   RO         2879    i.osDelay           RTX_CM4.lib(rt_cmsis.o)
    0x00003d40   0x00003d40   0x00000024   Code   RO         2880    i.osKernelInitialize  RTX_CM4.lib(rt_cmsis.o)
    0x00003d64   0x00003d64   0x0000006c   Code   RO         2882    i.osKernelStart     RTX_CM4.lib(rt_cmsis.o)
    0x00003dd0   0x00003dd0   0x0000001c   Code   RO         2884    i.osMailAlloc       RTX_CM4.lib(rt_cmsis.o)
    0x00003dec   0x00003dec   0x0000002c   Code   RO         2886    i.osMailCreate      RTX_CM4.lib(rt_cmsis.o)
    0x00003e18   0x00003e18   0x00000016   Code   RO         2888    i.osMailGet         RTX_CM4.lib(rt_cmsis.o)
    0x00003e2e   0x00003e2e   0x00000014   Code   RO         2889    i.osMailPut         RTX_CM4.lib(rt_cmsis.o)
    0x00003e42   0x00003e42   0x00000002   PAD
    0x00003e44   0x00003e44   0x0000002c   Code   RO         2890    i.osMessageCreate   RTX_CM4.lib(rt_cmsis.o)
    0x00003e70   0x00003e70   0x00000018   Code   RO         2891    i.osMessageGet      RTX_CM4.lib(rt_cmsis.o)
    0x00003e88   0x00003e88   0x00000018   Code   RO         2892    i.osMessagePut      RTX_CM4.lib(rt_cmsis.o)
    0x00003ea0   0x00003ea0   0x0000002c   Code   RO         2893    i.osMutexCreate     RTX_CM4.lib(rt_cmsis.o)
    0x00003ecc   0x00003ecc   0x00000018   Code   RO         2895    i.osMutexRelease    RTX_CM4.lib(rt_cmsis.o)
    0x00003ee4   0x00003ee4   0x00000018   Code   RO         2896    i.osMutexWait       RTX_CM4.lib(rt_cmsis.o)
    0x00003efc   0x00003efc   0x00000020   Code   RO         2897    i.osPoolAlloc       RTX_CM4.lib(rt_cmsis.o)
    0x00003f1c   0x00003f1c   0x0000002c   Code   RO         2899    i.osPoolCreate      RTX_CM4.lib(rt_cmsis.o)
    0x00003f48   0x00003f48   0x00000020   Code   RO         2900    i.osPoolFree        RTX_CM4.lib(rt_cmsis.o)
    0x00003f68   0x00003f68   0x00000018   Code   RO         2905    i.osSignalClear     RTX_CM4.lib(rt_cmsis.o)
    0x00003f80   0x00003f80   0x00000018   Code   RO         2906    i.osSignalSet       RTX_CM4.lib(rt_cmsis.o)
    0x00003f98   0x00003f98   0x00000018   Code   RO         2907    i.osSignalWait      RTX_CM4.lib(rt_cmsis.o)
    0x00003fb0   0x00003fb0   0x0000002c   Code   RO         2908    i.osThreadCreate    RTX_CM4.lib(rt_cmsis.o)
    0x00003fdc   0x00003fdc   0x00000018   Code   RO         2909    i.osThreadExit      RTX_CM4.lib(rt_cmsis.o)
    0x00003ff4   0x00003ff4   0x0000000c   Code   RO         2915    i.osTimerCall       RTX_CM4.lib(rt_cmsis.o)
    0x00004000   0x00004000   0x0000002c   Code   RO         2916    i.osTimerCreate     RTX_CM4.lib(rt_cmsis.o)
    0x0000402c   0x0000402c   0x0000002c   Code   RO         2920    i.osTimerThread     RTX_CM4.lib(rt_cmsis.o)
    0x00004058   0x00004058   0x00000028   Code   RO         3784    i.os_tick_init      RTX_CM4.lib(rt_system.o)
    0x00004080   0x00004080   0x00000002   Code   RO         3785    i.os_tick_irqack    RTX_CM4.lib(rt_system.o)
    0x00004082   0x00004082   0x0000001a   Code   RO         4138    i.rt_alloc_box      RTX_CM4.lib(rt_membox.o)
    0x0000409c   0x0000409c   0x0000003e   Code   RO         4166    i.rt_alloc_mem      RTX_CM4.lib(rt_memory.o)
    0x000040da   0x000040da   0x00000002   PAD
    0x000040dc   0x000040dc   0x00000038   Code   RO         3497    i.rt_block          RTX_CM4.lib(rt_task.o)
    0x00004114   0x00004114   0x00000048   Code   RO         4115    i.rt_chk_robin      RTX_CM4.lib(rt_robin.o)
    0x0000415c   0x0000415c   0x00000070   Code   RO         3916    i.rt_dec_dly        RTX_CM4.lib(rt_list.o)
    0x000041cc   0x000041cc   0x00000044   Code   RO         3498    i.rt_dispatch       RTX_CM4.lib(rt_task.o)
    0x00004210   0x00004210   0x00000006   Code   RO         4082    i.rt_dly_wait       RTX_CM4.lib(rt_time.o)
    0x00004216   0x00004216   0x00000002   PAD
    0x00004218   0x00004218   0x0000001c   Code   RO         3875    i.rt_evt_clr        RTX_CM4.lib(rt_event.o)
    0x00004234   0x00004234   0x00000050   Code   RO         3877    i.rt_evt_psh        RTX_CM4.lib(rt_event.o)
    0x00004284   0x00004284   0x0000005c   Code   RO         3878    i.rt_evt_set        RTX_CM4.lib(rt_event.o)
    0x000042e0   0x000042e0   0x0000003c   Code   RO         3879    i.rt_evt_wait       RTX_CM4.lib(rt_event.o)
    0x0000431c   0x0000431c   0x0000002c   Code   RO         4139    i.rt_free_box       RTX_CM4.lib(rt_membox.o)
    0x00004348   0x00004348   0x00000028   Code   RO         4167    i.rt_free_mem       RTX_CM4.lib(rt_memory.o)
    0x00004370   0x00004370   0x00000028   Code   RO         3917    i.rt_get_first      RTX_CM4.lib(rt_list.o)
    0x00004398   0x00004398   0x00000008   Code   RO         2925    i.rt_id2obj         RTX_CM4.lib(rt_cmsis.o)
    0x000043a0   0x000043a0   0x00000048   Code   RO         3499    i.rt_init_context   RTX_CM4.lib(rt_task.o)
    0x000043e8   0x000043e8   0x0000001a   Code   RO         4168    i.rt_init_mem       RTX_CM4.lib(rt_memory.o)
    0x00004402   0x00004402   0x00000002   PAD
    0x00004404   0x00004404   0x00000018   Code   RO         4116    i.rt_init_robin     RTX_CM4.lib(rt_robin.o)
    0x0000441c   0x0000441c   0x00000080   Code   RO         4193    i.rt_init_stack     RTX_CM4.lib(hal_cm.o)
    0x0000449c   0x0000449c   0x00000008   Code   RO         3994    i.rt_mbx_check      RTX_CM4.lib(rt_mailbox.o)
    0x000044a4   0x000044a4   0x0000001a   Code   RO         3995    i.rt_mbx_init       RTX_CM4.lib(rt_mailbox.o)
    0x000044be   0x000044be   0x00000002   PAD
    0x000044c0   0x000044c0   0x000000f0   Code   RO         3996    i.rt_mbx_psh        RTX_CM4.lib(rt_mailbox.o)
    0x000045b0   0x000045b0   0x00000098   Code   RO         3997    i.rt_mbx_send       RTX_CM4.lib(rt_mailbox.o)
    0x00004648   0x00004648   0x000000b4   Code   RO         3998    i.rt_mbx_wait       RTX_CM4.lib(rt_mailbox.o)
    0x000046fc   0x000046fc   0x00000044   Code   RO         2926    i.rt_ms2tick        RTX_CM4.lib(rt_cmsis.o)
    0x00004740   0x00004740   0x00000010   Code   RO         3582    i.rt_mut_init       RTX_CM4.lib(rt_mutex.o)
    0x00004750   0x00004750   0x000000d8   Code   RO         3583    i.rt_mut_release    RTX_CM4.lib(rt_mutex.o)
    0x00004828   0x00004828   0x00000078   Code   RO         3584    i.rt_mut_wait       RTX_CM4.lib(rt_mutex.o)
    0x000048a0   0x000048a0   0x0000007c   Code   RO         3788    i.rt_pop_req        RTX_CM4.lib(rt_system.o)
    0x0000491c   0x0000491c   0x00000020   Code   RO         3789    i.rt_psh_req        RTX_CM4.lib(rt_system.o)
    0x0000493c   0x0000493c   0x0000005c   Code   RO         3919    i.rt_psq_enq        RTX_CM4.lib(rt_list.o)
    0x00004998   0x00004998   0x00000048   Code   RO         3920    i.rt_put_dly        RTX_CM4.lib(rt_list.o)
    0x000049e0   0x000049e0   0x00000036   Code   RO         3921    i.rt_put_prio       RTX_CM4.lib(rt_list.o)
    0x00004a16   0x00004a16   0x00000002   PAD
    0x00004a18   0x00004a18   0x00000014   Code   RO         3922    i.rt_put_rdy_first  RTX_CM4.lib(rt_list.o)
    0x00004a2c   0x00004a2c   0x00000034   Code   RO         3923    i.rt_resort_prio    RTX_CM4.lib(rt_list.o)
    0x00004a60   0x00004a60   0x00000010   Code   RO         4194    i.rt_ret_regs       RTX_CM4.lib(hal_cm.o)
    0x00004a70   0x00004a70   0x0000000c   Code   RO         4195    i.rt_ret_val        RTX_CM4.lib(hal_cm.o)
    0x00004a7c   0x00004a7c   0x00000010   Code   RO         4196    i.rt_ret_val2       RTX_CM4.lib(hal_cm.o)
    0x00004a8c   0x00004a8c   0x00000028   Code   RO         3924    i.rt_rmv_dly        RTX_CM4.lib(rt_list.o)
    0x00004ab4   0x00004ab4   0x00000030   Code   RO         3925    i.rt_rmv_list       RTX_CM4.lib(rt_list.o)
    0x00004ae4   0x00004ae4   0x00000034   Code   RO         4043    i.rt_sem_psh        RTX_CM4.lib(rt_semaphore.o)
    0x00004b18   0x00004b18   0x00000024   Code   RO         3791    i.rt_stk_check      RTX_CM4.lib(rt_system.o)
    0x00004b3c   0x00004b3c   0x00000028   Code   RO         3500    i.rt_switch_req     RTX_CM4.lib(rt_task.o)
    0x00004b64   0x00004b64   0x000000cc   Code   RO         3501    i.rt_sys_init       RTX_CM4.lib(rt_task.o)
    0x00004c30   0x00004c30   0x00000078   Code   RO         3502    i.rt_sys_start      RTX_CM4.lib(rt_task.o)
    0x00004ca8   0x00004ca8   0x00000040   Code   RO         3793    i.rt_systick        RTX_CM4.lib(rt_system.o)
    0x00004ce8   0x00004ce8   0x00000012   Code   RO         2927    i.rt_tid2ptcb       RTX_CM4.lib(rt_cmsis.o)
    0x00004cfa   0x00004cfa   0x00000002   PAD
    0x00004cfc   0x00004cfc   0x00000034   Code   RO         2928    i.rt_timer_insert   RTX_CM4.lib(rt_cmsis.o)
    0x00004d30   0x00004d30   0x00000088   Code   RO         3503    i.rt_tsk_create     RTX_CM4.lib(rt_task.o)
    0x00004db8   0x00004db8   0x0000017c   Code   RO         3504    i.rt_tsk_delete     RTX_CM4.lib(rt_task.o)
    0x00004f34   0x00004f34   0x0000007c   Code   RO         3506    i.rt_tsk_prio       RTX_CM4.lib(rt_task.o)
    0x00004fb0   0x00004fb0   0x00000010   Code   RO         3507    i.rt_tsk_self       RTX_CM4.lib(rt_task.o)
    0x00004fc0   0x00004fc0   0x00000012   Code   RO         2930    i.svcDelay          RTX_CM4.lib(rt_cmsis.o)
    0x00004fd2   0x00004fd2   0x00000002   PAD
    0x00004fd4   0x00004fd4   0x00000070   Code   RO         2931    i.svcKernelInitialize  RTX_CM4.lib(rt_cmsis.o)
    0x00005044   0x00005044   0x00000048   Code   RO         2933    i.svcKernelStart    RTX_CM4.lib(rt_cmsis.o)
    0x0000508c   0x0000508c   0x00000042   Code   RO         2935    i.svcMailCreate     RTX_CM4.lib(rt_cmsis.o)
    0x000050ce   0x000050ce   0x00000024   Code   RO         2936    i.svcMessageCreate  RTX_CM4.lib(rt_cmsis.o)
    0x000050f2   0x000050f2   0x0000003a   Code   RO         2937    i.svcMessageGet     RTX_CM4.lib(rt_cmsis.o)
    0x0000512c   0x0000512c   0x00000036   Code   RO         2938    i.svcMessagePut     RTX_CM4.lib(rt_cmsis.o)
    0x00005162   0x00005162   0x0000001c   Code   RO         2939    i.svcMutexCreate    RTX_CM4.lib(rt_cmsis.o)
    0x0000517e   0x0000517e   0x00000022   Code   RO         2941    i.svcMutexRelease   RTX_CM4.lib(rt_cmsis.o)
    0x000051a0   0x000051a0   0x0000003a   Code   RO         2942    i.svcMutexWait      RTX_CM4.lib(rt_cmsis.o)
    0x000051da   0x000051da   0x00000028   Code   RO         2943    i.svcPoolCreate     RTX_CM4.lib(rt_cmsis.o)
    0x00005202   0x00005202   0x00000024   Code   RO         2948    i.svcSignalClear    RTX_CM4.lib(rt_cmsis.o)
    0x00005226   0x00005226   0x00000024   Code   RO         2949    i.svcSignalSet      RTX_CM4.lib(rt_cmsis.o)
    0x0000524a   0x0000524a   0x00000002   PAD
    0x0000524c   0x0000524c   0x00000054   Code   RO         2950    i.svcSignalWait     RTX_CM4.lib(rt_cmsis.o)
    0x000052a0   0x000052a0   0x0000006c   Code   RO         2951    i.svcThreadCreate   RTX_CM4.lib(rt_cmsis.o)
    0x0000530c   0x0000530c   0x0000001c   Code   RO         2952    i.svcThreadGetId    RTX_CM4.lib(rt_cmsis.o)
    0x00005328   0x00005328   0x00000038   Code   RO         2955    i.svcThreadTerminate  RTX_CM4.lib(rt_cmsis.o)
    0x00005360   0x00005360   0x00000018   Code   RO         2957    i.svcTimerCall      RTX_CM4.lib(rt_cmsis.o)
    0x00005378   0x00005378   0x00000038   Code   RO         2958    i.svcTimerCreate    RTX_CM4.lib(rt_cmsis.o)
    0x000053b0   0x000053b0   0x00000058   Code   RO         2962    i.sysMailAlloc      RTX_CM4.lib(rt_cmsis.o)
    0x00005408   0x00005408   0x0000000a   Code   RO         2964    i.sysPoolAlloc      RTX_CM4.lib(rt_cmsis.o)
    0x00005412   0x00005412   0x00000014   Code   RO         2965    i.sysPoolFree       RTX_CM4.lib(rt_cmsis.o)
    0x00005426   0x00005426   0x00000002   PAD
    0x00005428   0x00005428   0x0000005c   Code   RO         2966    i.sysTimerTick      RTX_CM4.lib(rt_cmsis.o)
    0x00005484   0x00005484   0x00000018   Code   RO         4322    x$fpl$basic         fz_wm.l(basic.o)
    0x0000549c   0x0000549c   0x00000062   Code   RO         4271    x$fpl$d2f           fz_wm.l(d2f.o)
    0x000054fe   0x000054fe   0x00000002   PAD
    0x00005500   0x00005500   0x00000150   Code   RO         4273    x$fpl$dadd          fz_wm.l(daddsub_clz.o)
    0x00005650   0x00005650   0x000002b0   Code   RO         4280    x$fpl$ddiv          fz_wm.l(ddiv.o)
    0x00005900   0x00005900   0x0000005e   Code   RO         4392    x$fpl$dfix          fz_wm.l(dfix.o)
    0x0000595e   0x0000595e   0x00000002   PAD
    0x00005960   0x00005960   0x0000005a   Code   RO         4283    x$fpl$dfixu         fz_wm.l(dfixu.o)
    0x000059ba   0x000059ba   0x0000002e   Code   RO         4288    x$fpl$dflt          fz_wm.l(dflt_clz.o)
    0x000059e8   0x000059e8   0x00000026   Code   RO         4287    x$fpl$dfltu         fz_wm.l(dflt_clz.o)
    0x00005a0e   0x00005a0e   0x00000002   PAD
    0x00005a10   0x00005a10   0x00000154   Code   RO         4293    x$fpl$dmul          fz_wm.l(dmul.o)
    0x00005b64   0x00005b64   0x0000009c   Code   RO         4324    x$fpl$dnaninf       fz_wm.l(dnaninf.o)
    0x00005c00   0x00005c00   0x0000000c   Code   RO         4326    x$fpl$dretinf       fz_wm.l(dretinf.o)
    0x00005c0c   0x00005c0c   0x00000016   Code   RO         4274    x$fpl$drsb          fz_wm.l(daddsub_clz.o)
    0x00005c22   0x00005c22   0x00000002   PAD
    0x00005c24   0x00005c24   0x000001d4   Code   RO         4275    x$fpl$dsub          fz_wm.l(daddsub_clz.o)
    0x00005df8   0x00005df8   0x00000056   Code   RO         4295    x$fpl$f2d           fz_wm.l(f2d.o)
    0x00005e4e   0x00005e4e   0x0000008c   Code   RO         4328    x$fpl$fnaninf       fz_wm.l(fnaninf.o)
    0x00005eda   0x00005eda   0x0000000a   Code   RO         4498    x$fpl$fpinit        fz_wm.l(fpinit.o)
    0x00005ee4   0x00005ee4   0x0000000a   Code   RO         4330    x$fpl$fretinf       fz_wm.l(fretinf.o)
    0x00005eee   0x00005eee   0x00000002   PAD
    0x00005ef0   0x00005ef0   0x00000086   Code   RO         4297    x$fpl$llsfromf      fz_wm.l(ffixll.o)
    0x00005f76   0x00005f76   0x00000000   Code   RO         4332    x$fpl$usenofp       fz_wm.l(usenofp.o)
    0x00005f76   0x00005f76   0x00000002   PAD
    0x00005f78   0x00005f78   0x000000a4   Data   RO           18    .constdata          exemplotiva.o
    0x0000601c   0x0000601c   0x00000028   Data   RO          287    .constdata          cfaf128x128x16.o
    0x00006044   0x00006044   0x00000002   Data   RO          457    .constdata          rtx_conf_cm.o
    0x00006046   0x00006046   0x00000002   PAD
    0x00006048   0x00006048   0x00000004   Data   RO          458    .constdata          rtx_conf_cm.o
    0x0000604c   0x0000604c   0x00000004   Data   RO          459    .constdata          rtx_conf_cm.o
    0x00006050   0x00006050   0x00000004   Data   RO          463    .constdata          rtx_conf_cm.o
    0x00006054   0x00006054   0x00000001   Data   RO          464    .constdata          rtx_conf_cm.o
    0x00006055   0x00006055   0x00000003   PAD
    0x00006058   0x00006058   0x00000010   Data   RO          465    .constdata          rtx_conf_cm.o
    0x00006068   0x00006068   0x00000002   Data   RO          466    .constdata          rtx_conf_cm.o
    0x0000606a   0x0000606a   0x00000002   PAD
    0x0000606c   0x0000606c   0x00000004   Data   RO          467    .constdata          rtx_conf_cm.o
    0x00006070   0x00006070   0x00000004   Data   RO          468    .constdata          rtx_conf_cm.o
    0x00006074   0x00006074   0x00000001   Data   RO          469    .constdata          rtx_conf_cm.o
    0x00006075   0x00006075   0x00000003   PAD
    0x00006078   0x00006078   0x00000010   Data   RO          470    .constdata          rtx_conf_cm.o
    0x00006088   0x00006088   0x00000008   Data   RO          471    .constdata          rtx_conf_cm.o
    0x00006090   0x00006090   0x00000002   Data   RO          472    .constdata          rtx_conf_cm.o
    0x00006092   0x00006092   0x00000002   PAD
    0x00006094   0x00006094   0x00000010   Data   RO          473    .constdata          rtx_conf_cm.o
    0x000060a4   0x000060a4   0x00000228   Data   RO          866    .constdata          driverlib.lib(gpio.o)
    0x000062cc   0x000062cc   0x0000010c   Data   RO         1478    .constdata          driverlib.lib(interrupt.o)
    0x000063d8   0x000063d8   0x00000254   Data   RO         1866    .constdata          driverlib.lib(sysctl.o)
    0x0000662c   0x0000662c   0x00000010   Data   RO         2698    .constdata          grlib.lib(context.o)
    0x0000663c   0x0000663c   0x000002f8   Data   RO         2730    .constdata          grlib.lib(fontfixed6x8.o)
    0x00006934   0x00006934   0x000000c8   Data   RO         2731    .constdata          grlib.lib(fontfixed6x8.o)
    0x000069fc   0x000069fc   0x00000004   PAD
    0x00006a00   0x00006a00   0x00000030   Data   RO         4334    .constdata          m_wm.l(cos_i.o)
    0x00006a30   0x00006a30   0x000000c8   Data   RO         4352    .constdata          m_wm.l(rred.o)
    0x00006af8   0x00006af8   0x00000028   Data   RO         4356    .constdata          m_wm.l(sin_i.o)
    0x00006b20   0x00006b20   0x00000025   Data   RO           19    .conststring        exemplotiva.o
    0x00006b45   0x00006b45   0x00000003   PAD
    0x00006b48   0x00006b48   0x00000020   Data   RO         4532    Region$$Table       anon$$obj.o


    Execution Region RW_IRAM1 (Exec base: 0x20000000, Load base: 0x00006b68, Size: 0x00002b78, Max: 0x00040000, ABSOLUTE)

    Exec Addr    Load Addr    Size         Type   Attr      Idx    E Section Name        Object

    0x20000000   0x00006b68   0x00000008   Data   RW           20    .data               exemplotiva.o
    0x20000008   0x00006b70   0x00000008   Data   RW           21    .data               exemplotiva.o
    0x20000010   0x00006b78   0x00000040   Data   RW           22    .data               exemplotiva.o
    0x20000050   0x00006bb8   0x00000008   Data   RW          161    .data               pwm.o
    0x20000058   0x00006bc0   0x00000004   Data   RW          183    .data               uart.o
    0x2000005c   0x00006bc4   0x0000000c   Data   RW          225    .data               buzzer.o
    0x20000068   0x00006bd0   0x00000008   Data   RW          288    .data               cfaf128x128x16.o
    0x20000070   0x00006bd8   0x00000004   Data   RW          475    .data               rtx_conf_cm.o
    0x20000074   0x00006bdc   0x00000004   Data   RW          476    .data               rtx_conf_cm.o
    0x20000078   0x00006be0   0x00000004   Data   RW          477    .data               rtx_conf_cm.o
    0x2000007c   0x00006be4   0x00000004   Data   RW          478    .data               rtx_conf_cm.o
    0x20000080   0x00006be8   0x00000004   Data   RW          513    .data               system_tm4c129.o
    0x20000084   0x00006bec   0x00000004   Data   RW         2699    .data               grlib.lib(context.o)
    0x20000088   0x00006bf0   0x00000008   Data   RW         2969    .data               RTX_CM4.lib(rt_cmsis.o)
    0x20000090   0x00006bf8   0x00000008   Data   RW         3509    .data               RTX_CM4.lib(rt_task.o)
    0x20000098   0x00006c00   0x00000008   Data   RW         3796    .data               RTX_CM4.lib(rt_system.o)
    0x200000a0   0x00006c08   0x00000004   Data   RW         4086    .data               RTX_CM4.lib(rt_time.o)
    0x200000a4   0x00006c0c   0x00000008   Data   RW         4117    .data               RTX_CM4.lib(rt_robin.o)
    0x200000ac   0x00006c14   0x00000001   Data   RW         4197    .data               RTX_CM4.lib(hal_cm.o)
    0x200000ad   0x00006c15   0x00000003   PAD
    0x200000b0        -       0x00000050   Zero   RW            5    .bss                exemplotiva.o
    0x20000100        -       0x00000050   Zero   RW            6    .bss                exemplotiva.o
    0x20000150        -       0x00000050   Zero   RW            7    .bss                exemplotiva.o
    0x200001a0        -       0x00000050   Zero   RW            8    .bss                exemplotiva.o
    0x200001f0        -       0x00000010   Zero   RW            9    .bss                exemplotiva.o
    0x20000200        -       0x0000002c   Zero   RW           10    .bss                exemplotiva.o
    0x2000022c        -       0x00000018   Zero   RW           11    .bss                exemplotiva.o
    0x20000244        -       0x000000cc   Zero   RW           12    .bss                exemplotiva.o
    0x20000310        -       0x0000004c   Zero   RW           13    .bss                exemplotiva.o
    0x2000035c        -       0x0000004c   Zero   RW           14    .bss                exemplotiva.o
    0x200003a8        -       0x0000004c   Zero   RW           15    .bss                exemplotiva.o
    0x200003f4        -       0x0000004c   Zero   RW           16    .bss                exemplotiva.o
    0x20000440        -       0x000000cc   Zero   RW           17    .bss                exemplotiva.o
    0x2000050c        -       0x00000020   Zero   RW          450    .bss                rtx_conf_cm.o
    0x2000052c        -       0x000001e0   Zero   RW          451    .bss                rtx_conf_cm.o
    0x2000070c   0x00006c15   0x00000004   PAD
    0x20000710        -       0x00001910   Zero   RW          452    .bss                rtx_conf_cm.o
    0x20002020        -       0x00000408   Zero   RW          453    .bss                rtx_conf_cm.o
    0x20002428        -       0x00000084   Zero   RW          454    .bss                rtx_conf_cm.o
    0x200024ac        -       0x00000024   Zero   RW          455    .bss                rtx_conf_cm.o
    0x200024d0        -       0x000003e0   Zero   RW          456    .bss                rtx_conf_cm.o
    0x200028b0        -       0x00000034   Zero   RW         3508    .bss                RTX_CM4.lib(rt_task.o)
    0x200028e4        -       0x00000030   Zero   RW         3926    .bss                RTX_CM4.lib(rt_list.o)
    0x20002914        -       0x00000060   Zero   RW         4259    .bss                c_w.l(libspace.o)
    0x20002974   0x00006c15   0x00000004   PAD
    0x20002978        -       0x00000000   Zero   RW          503    HEAP                startup_tm4c129.o
    0x20002978        -       0x00000200   Zero   RW          502    STACK               startup_tm4c129.o


==============================================================================

Image component sizes


      Code (inc. data)   RO Data    RW Data    ZI Data      Debug   Object Name

        92         10          0          0          0        976   buttons.o
       340         36          0         12          0       2601   buzzer.o
      1788         94         40          8          0      11018   cfaf128x128x16.o
      3368        280        201         80       1116      72966   exemplotiva.o
       292         30          0          8          0       1901   pwm.o
       168         36         84         16       9120       9249   rtx_conf_cm.o
       300         22        512          0        512       6136   startup_tm4c129.o
        40         14          0          4          0       1093   system_tm4c129.o
       796        438          0          4          0      30360   uart.o
       492        102          0          0          0        488   utils.o

    ----------------------------------------------------------------------
      7676       1062        884        132      10752     136788   Object Totals
         0          0         32          0          0          0   (incl. Generated)
         0          0         15          0          4          0   (incl. Padding)

    ----------------------------------------------------------------------

      Code (inc. data)   RO Data    RW Data    ZI Data      Debug   Library Member Name

       268         24          0          1          0       4472   hal_cm.o
       408         34          0          0          0        816   hal_cm4.o
      2296        248          0          8          0      56872   rt_cmsis.o
       300         24          0          0          0       3383   rt_event.o
       530         34          0          0         48       8601   rt_list.o
       706         14          0          0          0       5067   rt_mailbox.o
       140          0          0          0          0       2045   rt_membox.o
       128          0          0          0          0       2419   rt_memory.o
       352         14          0          0          0       2229   rt_mutex.o
        96         22          0          8          0       1230   rt_robin.o
        52          4          0          0          0        613   rt_semaphore.o
       298         52          0          8          0       6439   rt_system.o
      1216        174          0          8         52      10045   rt_task.o
         6          0          0          4          0        692   rt_time.o
         4          4          0          0          0        200   svc_table.o
         8          0          0          0          0         68   __main.o
         0          0          0          0          0          0   __rtentry.o
        20          0          0          0          0          0   __rtentry2.o
         6          0          0          0          0          0   __rtentry4.o
        52          8          0          0          0          0   __scatter.o
        26          0          0          0          0          0   __scatter_copy.o
        28          0          0          0          0          0   __scatter_zi.o
        22          0          0          0          0        100   _rserrno.o
        18          0          0          0          0         80   exit.o
         6          0          0          0          0        152   heapauxi.o
         0          0          0          0          0          0   indicate_semi.o
         2          0          0          0          0          0   libinit.o
         6          0          0          0          0          0   libinit2.o
         2          0          0          0          0          0   libshutdown.o
         2          0          0          0          0          0   libshutdown2.o
         8          4          0          0         96         68   libspace.o
        72          0          0          0          0         76   llsdiv.o
       238          0          0          0          0        100   lludivv7m.o
         4          0          0          0          0         68   rt_errno_addr_twolibspace.o
         2          0          0          0          0          0   rtexit.o
        10          0          0          0          0          0   rtexit2.o
        12          4          0          0          0         68   sys_exit.o
        74          0          0          0          0         80   sys_stackheap_outer.o
         2          0          0          0          0         68   use_no_semi.o
         0          0          0          0          0       3064   adc.o
        38          0          0          0          0        576   cpu.o
       510          8        552          0          0       5723   gpio.o
       114          8        268          0          0       2102   interrupt.o
       168          0          0          0          0       4621   pwm.o
      1178         86        596          0          0       6955   sysctl.o
       140          8          0          0          0       2879   timer.o
       130          0          0          0          0       2127   uart.o
        24          0          0          0          0        164   basic.o
        98          4          0          0          0        140   d2f.o
       826         16          0          0          0        492   daddsub_clz.o
       688        140          0          0          0        256   ddiv.o
        94          4          0          0          0        140   dfix.o
        90          4          0          0          0        140   dfixu.o
        84          0          0          0          0        232   dflt_clz.o
       340         12          0          0          0        152   dmul.o
       156          4          0          0          0        140   dnaninf.o
        12          0          0          0          0        116   dretinf.o
        86          4          0          0          0        132   f2d.o
       134          4          0          0          0        132   ffixll.o
       140          4          0          0          0        132   fnaninf.o
        10          0          0          0          0        116   fpinit.o
        10          0          0          0          0        116   fretinf.o
         0          0          0          0          0          0   usenofp.o
         8          0          0          0          0       1494   charmap.o
       100         12         16          4          0      26443   context.o
         0          0        960          0          0      25662   fontfixed6x8.o
      1240          0          0          0          0       9079   string.o
       368         46         48          0          0        200   cos_i.o
        84         16          0          0          0        372   dunder.o
        24          0          0          0          0        124   fabs.o
        48          0          0          0          0        124   fpclassify.o
       248          0          0          0          0        152   poly.o
      1080        142        200          0          0        188   rred.o
       200         20          0          0          0        164   sin.o
       304         24         40          0          0        208   sin_i.o

    ----------------------------------------------------------------------
     16252       1230       2684         44        200     200908   Library Totals
        58          0          4          3          4          0   (incl. Padding)

    ----------------------------------------------------------------------

      Code (inc. data)   RO Data    RW Data    ZI Data      Debug   Library Name

      6800        648          0         37        100     105123   RTX_CM4.lib
       620         16          0          0         96        928   c_w.l
      2278        110       1416          0          0      28047   driverlib.lib
      2792        196          0          0          0       2600   fz_wm.l
      1348         12        976          4          0      62678   grlib.lib
      2356        248        288          0          0       1532   m_wm.l

    ----------------------------------------------------------------------
     16252       1230       2684         44        200     200908   Library Totals

    ----------------------------------------------------------------------

==============================================================================


      Code (inc. data)   RO Data    RW Data    ZI Data      Debug   

     23928       2292       3568        176      10952     319032   Grand Totals
     23928       2292       3568        176      10952     319032   ELF Image Totals
     23928       2292       3568        176          0          0   ROM Totals

==============================================================================

    Total RO  Size (Code + RO Data)                27496 (  26.85kB)
    Total RW  Size (RW Data + ZI Data)             11128 (  10.87kB)
    Total ROM Size (Code + RO Data + RW Data)      27672 (  27.02kB)

==============================================================================

