Component: ARM Compiler 5.06 update 6 (build 750) Tool: armlink [4d35ed]

==============================================================================

Section Cross References

    exemplotiva.o(.text) refers to rt_cmsis.o(i.osKernelInitialize) for osKernelInitialize
    exemplotiva.o(.text) refers to rt_cmsis.o(i.osThreadCreate) for osThreadCreate
    exemplotiva.o(.text) refers to rt_cmsis.o(i.osTimerCreate) for osTimerCreate
    exemplotiva.o(.text) refers to rt_cmsis.o(i.osTimerStart) for osTimerStart
    exemplotiva.o(.text) refers to rt_cmsis.o(i.osMutexCreate) for osMutexCreate
    exemplotiva.o(.text) refers to rt_cmsis.o(i.osKernelStart) for osKernelStart
    exemplotiva.o(.text) refers to llsdiv.o(.text) for __aeabi_ldivmod
    exemplotiva.o(.text) refers to cfaf128x128x16.o(.text) for cfaf128x128x16Init
    exemplotiva.o(.text) refers to joy.o(.text) for joy_init
    exemplotiva.o(.text) refers to accel.o(.text) for accel_init
    exemplotiva.o(.text) refers to buzzer.o(.text) for buzzer_init
    exemplotiva.o(.text) refers to buttons.o(.text) for button_init
    exemplotiva.o(.text) refers to mic.o(.text) for mic_init
    exemplotiva.o(.text) refers to rgb.o(.text) for rgb_init
    exemplotiva.o(.text) refers to servo.o(.text) for servo_init
    exemplotiva.o(.text) refers to temp.o(.text) for temp_init
    exemplotiva.o(.text) refers to opt.o(.text) for opt_init
    exemplotiva.o(.text) refers to led.o(.text) for led_init
    exemplotiva.o(.text) refers to exemplotiva.o(.constdata) for .constdata
    exemplotiva.o(.text) refers to exemplotiva.o(.data) for .data
    exemplotiva.o(.text) refers to exemplotiva.o(.bss) for .bss
    exemplotiva.o(.text) refers to eddiev3.o(.constdata) for Eddie_start
    exemplotiva.o(.text) refers to eddiev3.o(.constdata) for Eddie
    exemplotiva.o(.text) refers to inimigo.o(.constdata) for inimigo_start
    exemplotiva.o(.text) refers to inimigo.o(.constdata) for inimigo
    exemplotiva.o(.text) refers to boss.o(.constdata) for boss_start
    exemplotiva.o(.text) refers to boss.o(.constdata) for boss
    exemplotiva.o(.text) refers to point.o(.constdata) for point_start
    exemplotiva.o(.text) refers to point.o(.constdata) for point
    exemplotiva.o(.text) refers to key.o(.constdata) for key_start
    exemplotiva.o(.text) refers to key.o(.constdata) for key
    exemplotiva.o(.text) refers to circle.o(i.GrCircleDraw) for GrCircleDraw
    exemplotiva.o(.text) refers to circle.o(i.GrCircleFill) for GrCircleFill
    exemplotiva.o(.text) refers to background.o(.constdata) for Background_start
    exemplotiva.o(.text) refers to background.o(.constdata) for Background
    exemplotiva.o(.text) refers to background2.o(.constdata) for Background2_start
    exemplotiva.o(.text) refers to background2.o(.constdata) for Background2
    exemplotiva.o(.text) refers to dflt_clz.o(x$fpl$dfltu) for __aeabi_ui2d
    exemplotiva.o(.text) refers to dmul.o(x$fpl$dmul) for __aeabi_dmul
    exemplotiva.o(.text) refers to dfixu.o(x$fpl$dfixu) for __aeabi_d2uiz
    exemplotiva.o(.text) refers to daddsub_clz.o(x$fpl$dadd) for __aeabi_dadd
    exemplotiva.o(.text) refers to rt_cmsis.o(i.osDelay) for osDelay
    exemplotiva.o(.text) refers to rt_cmsis.o(i.osTimerStop) for osTimerStop
    exemplotiva.o(.constdata) refers to exemplotiva.o(.bss) for os_mutex_cb_mutex_tela
    exemplotiva.o(.constdata) refers to exemplotiva.o(.text) for EddieController
    exemplotiva.o(.constdata) refers to exemplotiva.o(.bss) for os_timer_cb_timer_eddie
    exemplotiva.o(.constdata) refers to exemplotiva.o(.bss) for os_timer_cb_timer_points
    exemplotiva.o(.constdata) refers to exemplotiva.o(.bss) for os_timer_cb_timer_boss
    exemplotiva.o(.constdata) refers to exemplotiva.o(.bss) for os_timer_cb_timer_enemies
    exemplotiva.o(.data) refers to exemplotiva.o(.conststring) for .conststring
    buzzer.o(.text) refers to pwm.o(i.PWMClockSet) for PWMClockSet
    buzzer.o(.text) refers to pwm.o(i.PWMOutputState) for PWMOutputState
    buzzer.o(.text) refers to pwm.o(i.PWMGenPeriodGet) for PWMGenPeriodGet
    buzzer.o(.text) refers to pwm.o(i.PWMPulseWidthSet) for PWMPulseWidthSet
    buzzer.o(.text) refers to pwm.o(i.PWMGenPeriodSet) for PWMGenPeriodSet
    buzzer.o(.text) refers to sysctl.o(i.SysCtlPeripheralEnable) for SysCtlPeripheralEnable
    buzzer.o(.text) refers to sysctl.o(i.SysCtlPeripheralReady) for SysCtlPeripheralReady
    buzzer.o(.text) refers to gpio.o(i.GPIOPinTypePWM) for GPIOPinTypePWM
    buzzer.o(.text) refers to gpio.o(i.GPIOPinConfigure) for GPIOPinConfigure
    buzzer.o(.text) refers to pwm.o(i.PWMGenConfigure) for PWMGenConfigure
    buzzer.o(.text) refers to pwm.o(i.PWMOutputInvert) for PWMOutputInvert
    buzzer.o(.text) refers to pwm.o(i.PWMGenEnable) for PWMGenEnable
    buzzer.o(.text) refers to buzzer.o(.data) for .data
    accel.o(.text) refers to sysctl.o(i.SysCtlPeripheralEnable) for SysCtlPeripheralEnable
    accel.o(.text) refers to adc.o(i.ADCSequenceStepConfigure) for ADCSequenceStepConfigure
    accel.o(.text) refers to gpio.o(i.GPIOPinTypeADC) for GPIOPinTypeADC
    accel.o(.text) refers to adc.o(i.ADCSequenceConfigure) for ADCSequenceConfigure
    accel.o(.text) refers to adc.o(i.ADCSequenceEnable) for ADCSequenceEnable
    accel.o(.text) refers to adc.o(i.ADCIntClear) for ADCIntClear
    accel.o(.text) refers to adc.o(i.ADCProcessorTrigger) for ADCProcessorTrigger
    accel.o(.text) refers to adc.o(i.ADCIntStatus) for ADCIntStatus
    accel.o(.text) refers to adc.o(i.ADCSequenceDataGet) for ADCSequenceDataGet
    buttons.o(.text) refers to sysctl.o(i.SysCtlPeripheralEnable) for SysCtlPeripheralEnable
    buttons.o(.text) refers to sysctl.o(i.SysCtlPeripheralReady) for SysCtlPeripheralReady
    buttons.o(.text) refers to gpio.o(i.GPIOPinTypeGPIOInput) for GPIOPinTypeGPIOInput
    buttons.o(.text) refers to gpio.o(i.GPIOPinRead) for GPIOPinRead
    cfaf128x128x16.o(.text) refers to cfaf128x128x16.o(.data) for .data
    cfaf128x128x16.o(.text) refers to sysctl.o(i.SysCtlClockFreqSet) for SysCtlClockFreqSet
    cfaf128x128x16.o(.constdata) refers to cfaf128x128x16.o(.text) for cfaf128x128x16PixelDraw
    led.o(.text) refers to led.o(.constdata) for .constdata
    mic.o(.text) refers to sysctl.o(i.SysCtlPeripheralEnable) for SysCtlPeripheralEnable
    mic.o(.text) refers to adc.o(i.ADCSequenceStepConfigure) for ADCSequenceStepConfigure
    mic.o(.text) refers to gpio.o(i.GPIOPinTypeADC) for GPIOPinTypeADC
    mic.o(.text) refers to adc.o(i.ADCSequenceConfigure) for ADCSequenceConfigure
    mic.o(.text) refers to adc.o(i.ADCSequenceEnable) for ADCSequenceEnable
    mic.o(.text) refers to adc.o(i.ADCIntClear) for ADCIntClear
    mic.o(.text) refers to adc.o(i.ADCProcessorTrigger) for ADCProcessorTrigger
    mic.o(.text) refers to adc.o(i.ADCIntStatus) for ADCIntStatus
    mic.o(.text) refers to adc.o(i.ADCSequenceDataGet) for ADCSequenceDataGet
    opt.o(.text) refers to i2c.o(i.I2CMasterSlaveAddrSet) for I2CMasterSlaveAddrSet
    opt.o(.text) refers to i2c.o(i.I2CMasterDataPut) for I2CMasterDataPut
    opt.o(.text) refers to i2c.o(i.I2CMasterBusBusy) for I2CMasterBusBusy
    opt.o(.text) refers to sysctl.o(.emb_text) for SysCtlDelay
    opt.o(.text) refers to i2c.o(i.I2CMasterControl) for I2CMasterControl
    opt.o(.text) refers to i2c.o(i.I2CMasterBusy) for I2CMasterBusy
    opt.o(.text) refers to i2c.o(i.I2CMasterErr) for I2CMasterErr
    opt.o(.text) refers to i2c.o(i.I2CMasterDataGet) for I2CMasterDataGet
    opt.o(.text) refers to i2c.o(i.I2CMasterBurstLengthSet) for I2CMasterBurstLengthSet
    opt.o(.text) refers to i2c.o(i.I2CMasterIntClearEx) for I2CMasterIntClearEx
    opt.o(.text) refers to i2c.o(i.I2CMasterIntClear) for I2CMasterIntClear
    opt.o(.text) refers to opt.o(.data) for .data
    opt.o(.text) refers to sysctl.o(i.SysCtlClockFreqSet) for SysCtlClockFreqSet
    opt.o(.text) refers to sysctl.o(i.SysCtlPeripheralEnable) for SysCtlPeripheralEnable
    opt.o(.text) refers to sysctl.o(i.SysCtlPeripheralReset) for SysCtlPeripheralReset
    opt.o(.text) refers to sysctl.o(i.SysCtlPeripheralReady) for SysCtlPeripheralReady
    opt.o(.text) refers to gpio.o(i.GPIOPinTypeGPIOInput) for GPIOPinTypeGPIOInput
    opt.o(.text) refers to gpio.o(i.GPIOPinConfigure) for GPIOPinConfigure
    opt.o(.text) refers to gpio.o(i.GPIOPinTypeI2CSCL) for GPIOPinTypeI2CSCL
    opt.o(.text) refers to gpio.o(i.GPIOPinTypeI2C) for GPIOPinTypeI2C
    opt.o(.text) refers to i2c.o(i.I2CMasterTimeoutSet) for I2CMasterTimeoutSet
    opt.o(.text) refers to i2c.o(i.I2CMasterGlitchFilterConfigSet) for I2CMasterGlitchFilterConfigSet
    opt.o(.text) refers to i2c.o(i.I2CMasterInitExpClk) for I2CMasterInitExpClk
    opt.o(.text) refers to i2c.o(i.I2CMasterIntEnableEx) for I2CMasterIntEnableEx
    opt.o(.text) refers to i2c.o(i.I2CIntRegister) for I2CIntRegister
    opt.o(.text) refers to interrupt.o(i.IntEnable) for IntEnable
    opt.o(.text) refers to i2c.o(i.I2CMasterEnable) for I2CMasterEnable
    rgb.o(.text) refers to pwm.o(i.PWMOutputState) for PWMOutputState
    rgb.o(.text) refers to pwm.o(i.PWMGenPeriodGet) for PWMGenPeriodGet
    rgb.o(.text) refers to pwm.o(i.PWMPulseWidthSet) for PWMPulseWidthSet
    rgb.o(.text) refers to sysctl.o(i.SysCtlClockFreqSet) for SysCtlClockFreqSet
    rgb.o(.text) refers to sysctl.o(i.SysCtlPeripheralEnable) for SysCtlPeripheralEnable
    rgb.o(.text) refers to sysctl.o(i.SysCtlPeripheralReady) for SysCtlPeripheralReady
    rgb.o(.text) refers to pwm.o(i.PWMGenDisable) for PWMGenDisable
    rgb.o(.text) refers to gpio.o(i.GPIOPinTypePWM) for GPIOPinTypePWM
    rgb.o(.text) refers to pwm.o(i.PWMClockSet) for PWMClockSet
    rgb.o(.text) refers to gpio.o(i.GPIOPinConfigure) for GPIOPinConfigure
    rgb.o(.text) refers to pwm.o(i.PWMGenConfigure) for PWMGenConfigure
    rgb.o(.text) refers to pwm.o(i.PWMGenPeriodSet) for PWMGenPeriodSet
    rgb.o(.text) refers to pwm.o(i.PWMGenEnable) for PWMGenEnable
    rgb.o(.text) refers to rgb.o(.data) for .data
    servo.o(.text) refers to timer.o(i.TimerMatchSet) for TimerMatchSet
    servo.o(.text) refers to sysctl.o(i.SysCtlClockFreqSet) for SysCtlClockFreqSet
    servo.o(.text) refers to sysctl.o(i.SysCtlPeripheralEnable) for SysCtlPeripheralEnable
    servo.o(.text) refers to sysctl.o(i.SysCtlPeripheralReady) for SysCtlPeripheralReady
    servo.o(.text) refers to gpio.o(i.GPIOPinConfigure) for GPIOPinConfigure
    servo.o(.text) refers to gpio.o(i.GPIOPinTypeTimer) for GPIOPinTypeTimer
    servo.o(.text) refers to timer.o(i.TimerClockSourceSet) for TimerClockSourceSet
    servo.o(.text) refers to timer.o(i.TimerConfigure) for TimerConfigure
    servo.o(.text) refers to timer.o(i.TimerControlLevel) for TimerControlLevel
    servo.o(.text) refers to timer.o(i.TimerUpdateMode) for TimerUpdateMode
    servo.o(.text) refers to timer.o(i.TimerPrescaleSet) for TimerPrescaleSet
    servo.o(.text) refers to timer.o(i.TimerLoadSet) for TimerLoadSet
    servo.o(.text) refers to timer.o(i.TimerEnable) for TimerEnable
    servo.o(.text) refers to servo.o(.data) for .data
    joy.o(.text) refers to sysctl.o(i.SysCtlPeripheralEnable) for SysCtlPeripheralEnable
    joy.o(.text) refers to sysctl.o(i.SysCtlPeripheralReady) for SysCtlPeripheralReady
    joy.o(.text) refers to gpio.o(i.GPIOPinTypeGPIOInput) for GPIOPinTypeGPIOInput
    joy.o(.text) refers to adc.o(i.ADCSequenceStepConfigure) for ADCSequenceStepConfigure
    joy.o(.text) refers to gpio.o(i.GPIOPinTypeADC) for GPIOPinTypeADC
    joy.o(.text) refers to adc.o(i.ADCSequenceConfigure) for ADCSequenceConfigure
    joy.o(.text) refers to adc.o(i.ADCSequenceEnable) for ADCSequenceEnable
    joy.o(.text) refers to adc.o(i.ADCIntClear) for ADCIntClear
    joy.o(.text) refers to adc.o(i.ADCProcessorTrigger) for ADCProcessorTrigger
    joy.o(.text) refers to adc.o(i.ADCIntStatus) for ADCIntStatus
    joy.o(.text) refers to adc.o(i.ADCSequenceDataGet) for ADCSequenceDataGet
    joy.o(.text) refers to gpio.o(i.GPIOPinRead) for GPIOPinRead
    temp.o(.text) refers to i2c.o(i.I2CMasterSlaveAddrSet) for I2CMasterSlaveAddrSet
    temp.o(.text) refers to i2c.o(i.I2CMasterDataPut) for I2CMasterDataPut
    temp.o(.text) refers to i2c.o(i.I2CMasterBusBusy) for I2CMasterBusBusy
    temp.o(.text) refers to sysctl.o(.emb_text) for SysCtlDelay
    temp.o(.text) refers to i2c.o(i.I2CMasterControl) for I2CMasterControl
    temp.o(.text) refers to i2c.o(i.I2CMasterBusy) for I2CMasterBusy
    temp.o(.text) refers to i2c.o(i.I2CMasterErr) for I2CMasterErr
    temp.o(.text) refers to i2c.o(i.I2CMasterDataGet) for I2CMasterDataGet
    temp.o(.text) refers to i2c.o(i.I2CMasterBurstLengthSet) for I2CMasterBurstLengthSet
    temp.o(.text) refers to temp.o(.data) for .data
    temp.o(.text) refers to i2c.o(i.I2CMasterIntClearEx) for I2CMasterIntClearEx
    temp.o(.text) refers to i2c.o(i.I2CMasterIntClear) for I2CMasterIntClear
    temp.o(.text) refers to sysctl.o(i.SysCtlClockFreqSet) for SysCtlClockFreqSet
    temp.o(.text) refers to sysctl.o(i.SysCtlPeripheralEnable) for SysCtlPeripheralEnable
    temp.o(.text) refers to sysctl.o(i.SysCtlPeripheralReset) for SysCtlPeripheralReset
    temp.o(.text) refers to sysctl.o(i.SysCtlPeripheralReady) for SysCtlPeripheralReady
    temp.o(.text) refers to gpio.o(i.GPIOPinTypeGPIOInput) for GPIOPinTypeGPIOInput
    temp.o(.text) refers to gpio.o(i.GPIOPinConfigure) for GPIOPinConfigure
    temp.o(.text) refers to gpio.o(i.GPIOPinTypeI2CSCL) for GPIOPinTypeI2CSCL
    temp.o(.text) refers to gpio.o(i.GPIOPinTypeI2C) for GPIOPinTypeI2C
    temp.o(.text) refers to i2c.o(i.I2CMasterTimeoutSet) for I2CMasterTimeoutSet
    temp.o(.text) refers to i2c.o(i.I2CMasterGlitchFilterConfigSet) for I2CMasterGlitchFilterConfigSet
    temp.o(.text) refers to i2c.o(i.I2CMasterInitExpClk) for I2CMasterInitExpClk
    temp.o(.text) refers to i2c.o(i.I2CMasterIntEnableEx) for I2CMasterIntEnableEx
    temp.o(.text) refers to i2c.o(i.I2CIntRegister) for I2CIntRegister
    temp.o(.text) refers to interrupt.o(i.IntEnable) for IntEnable
    temp.o(.text) refers to i2c.o(i.I2CMasterEnable) for I2CMasterEnable
    rtx_conf_cm.o(.emb_text) refers to rt_cmsis.o(i.osKernelInitialize) for osKernelInitialize
    rtx_conf_cm.o(.emb_text) refers to rt_cmsis.o(i.osThreadCreate) for osThreadCreate
    rtx_conf_cm.o(.emb_text) refers to rt_cmsis.o(i.osKernelStart) for osKernelStart
    rtx_conf_cm.o(.emb_text) refers to exit.o(.text) for exit
    rtx_conf_cm.o(.emb_text) refers to rtx_conf_cm.o(.constdata) for os_thread_def_main
    rtx_conf_cm.o(.text) refers to rt_task.o(i.rt_tsk_self) for rt_tsk_self
    rtx_conf_cm.o(.text) refers to rt_mutex.o(i.rt_mut_init) for rt_mut_init
    rtx_conf_cm.o(.text) refers to rt_cmsis.o(.data) for os_running
    rtx_conf_cm.o(.text) refers to rtx_conf_cm.o(.bss) for .bss
    rtx_conf_cm.o(.text) refers to libspace.o(.bss) for __libspace_start
    rtx_conf_cm.o(.text) refers to rtx_conf_cm.o(.data) for .data
    rtx_conf_cm.o(.text) refers to rt_mutex.o(i.rt_mut_wait) for rt_mut_wait
    rtx_conf_cm.o(.text) refers to rt_mutex.o(i.rt_mut_release) for rt_mut_release
    rtx_conf_cm.o(.constdata) refers to rt_cmsis.o(i.osTimerThread) for osTimerThread
    rtx_conf_cm.o(.constdata) refers to rtx_conf_cm.o(.bss) for os_messageQ_q_osTimerMessageQ
    rtx_conf_cm.o(.constdata) refers to exemplotiva.o(.text) for main
    startup_tm4c129.o(STACK) refers (Special) to heapauxi.o(.text) for __use_two_region_memory
    startup_tm4c129.o(HEAP) refers (Special) to heapauxi.o(.text) for __use_two_region_memory
    startup_tm4c129.o(RESET) refers (Special) to heapauxi.o(.text) for __use_two_region_memory
    startup_tm4c129.o(RESET) refers to startup_tm4c129.o(STACK) for __initial_sp
    startup_tm4c129.o(RESET) refers to startup_tm4c129.o(.text) for Reset_Handler
    startup_tm4c129.o(RESET) refers to hal_cm4.o(.emb_text) for SVC_Handler
    startup_tm4c129.o(.text) refers (Special) to heapauxi.o(.text) for __use_two_region_memory
    startup_tm4c129.o(.text) refers to system_tm4c129.o(.text) for SystemInit
    startup_tm4c129.o(.text) refers to __main.o(!!!main) for __main
    startup_tm4c129.o(.text) refers to startup_tm4c129.o(HEAP) for Heap_Mem
    startup_tm4c129.o(.text) refers to startup_tm4c129.o(STACK) for Stack_Mem
    system_tm4c129.o(.text) refers to system_tm4c129.o(.data) for .data
    adc.o(i.ADCIntRegister) refers to interrupt.o(i.IntRegister) for IntRegister
    adc.o(i.ADCIntRegister) refers to interrupt.o(i.IntEnable) for IntEnable
    adc.o(i.ADCIntUnregister) refers to interrupt.o(i.IntDisable) for IntDisable
    adc.o(i.ADCIntUnregister) refers to interrupt.o(i.IntUnregister) for IntUnregister
    adc.o(i.ADCSoftwareOversampleConfigure) refers to adc.o(.data) for .data
    adc.o(i.ADCSoftwareOversampleDataGet) refers to adc.o(.data) for .data
    adc.o(i.ADCSoftwareOversampleStepConfigure) refers to adc.o(.data) for .data
    gpio.o(i.GPIOIntRegister) refers to gpio.o(i._GPIOIntNumberGet) for _GPIOIntNumberGet
    gpio.o(i.GPIOIntRegister) refers to interrupt.o(i.IntRegister) for IntRegister
    gpio.o(i.GPIOIntRegister) refers to interrupt.o(i.IntEnable) for IntEnable
    gpio.o(i.GPIOIntRegisterPin) refers to gpio.o(i._GPIOIntNumberGet) for _GPIOIntNumberGet
    gpio.o(i.GPIOIntRegisterPin) refers to interrupt.o(i.IntRegister) for IntRegister
    gpio.o(i.GPIOIntRegisterPin) refers to interrupt.o(i.IntEnable) for IntEnable
    gpio.o(i.GPIOIntUnregister) refers to gpio.o(i._GPIOIntNumberGet) for _GPIOIntNumberGet
    gpio.o(i.GPIOIntUnregister) refers to interrupt.o(i.IntDisable) for IntDisable
    gpio.o(i.GPIOIntUnregister) refers to interrupt.o(i.IntUnregister) for IntUnregister
    gpio.o(i.GPIOIntUnregisterPin) refers to gpio.o(i._GPIOIntNumberGet) for _GPIOIntNumberGet
    gpio.o(i.GPIOIntUnregisterPin) refers to interrupt.o(i.IntDisable) for IntDisable
    gpio.o(i.GPIOIntUnregisterPin) refers to interrupt.o(i.IntUnregister) for IntUnregister
    gpio.o(i.GPIOPinConfigure) refers to gpio.o(.constdata) for .constdata
    gpio.o(i.GPIOPinTypeADC) refers to gpio.o(i.GPIODirModeSet) for GPIODirModeSet
    gpio.o(i.GPIOPinTypeADC) refers to gpio.o(i.GPIOPadConfigSet) for GPIOPadConfigSet
    gpio.o(i.GPIOPinTypeCAN) refers to gpio.o(i.GPIODirModeSet) for GPIODirModeSet
    gpio.o(i.GPIOPinTypeCAN) refers to gpio.o(i.GPIOPadConfigSet) for GPIOPadConfigSet
    gpio.o(i.GPIOPinTypeComparator) refers to gpio.o(i.GPIODirModeSet) for GPIODirModeSet
    gpio.o(i.GPIOPinTypeComparator) refers to gpio.o(i.GPIOPadConfigSet) for GPIOPadConfigSet
    gpio.o(i.GPIOPinTypeComparatorOutput) refers to gpio.o(i.GPIODirModeSet) for GPIODirModeSet
    gpio.o(i.GPIOPinTypeComparatorOutput) refers to gpio.o(i.GPIOPadConfigSet) for GPIOPadConfigSet
    gpio.o(i.GPIOPinTypeDIVSCLK) refers to gpio.o(i.GPIODirModeSet) for GPIODirModeSet
    gpio.o(i.GPIOPinTypeDIVSCLK) refers to gpio.o(i.GPIOPadConfigSet) for GPIOPadConfigSet
    gpio.o(i.GPIOPinTypeEPI) refers to gpio.o(i.GPIODirModeSet) for GPIODirModeSet
    gpio.o(i.GPIOPinTypeEPI) refers to gpio.o(i.GPIOPadConfigSet) for GPIOPadConfigSet
    gpio.o(i.GPIOPinTypeEthernetLED) refers to gpio.o(i.GPIODirModeSet) for GPIODirModeSet
    gpio.o(i.GPIOPinTypeEthernetLED) refers to gpio.o(i.GPIOPadConfigSet) for GPIOPadConfigSet
    gpio.o(i.GPIOPinTypeEthernetMII) refers to gpio.o(i.GPIODirModeSet) for GPIODirModeSet
    gpio.o(i.GPIOPinTypeEthernetMII) refers to gpio.o(i.GPIOPadConfigSet) for GPIOPadConfigSet
    gpio.o(i.GPIOPinTypeGPIOInput) refers to gpio.o(i.GPIODirModeSet) for GPIODirModeSet
    gpio.o(i.GPIOPinTypeGPIOInput) refers to gpio.o(i.GPIOPadConfigSet) for GPIOPadConfigSet
    gpio.o(i.GPIOPinTypeGPIOOutput) refers to gpio.o(i.GPIOPadConfigSet) for GPIOPadConfigSet
    gpio.o(i.GPIOPinTypeGPIOOutput) refers to gpio.o(i.GPIODirModeSet) for GPIODirModeSet
    gpio.o(i.GPIOPinTypeGPIOOutputOD) refers to gpio.o(i.GPIOPadConfigSet) for GPIOPadConfigSet
    gpio.o(i.GPIOPinTypeGPIOOutputOD) refers to gpio.o(i.GPIODirModeSet) for GPIODirModeSet
    gpio.o(i.GPIOPinTypeHibernateRTCCLK) refers to gpio.o(i.GPIODirModeSet) for GPIODirModeSet
    gpio.o(i.GPIOPinTypeHibernateRTCCLK) refers to gpio.o(i.GPIOPadConfigSet) for GPIOPadConfigSet
    gpio.o(i.GPIOPinTypeI2C) refers to gpio.o(i.GPIODirModeSet) for GPIODirModeSet
    gpio.o(i.GPIOPinTypeI2C) refers to gpio.o(i.GPIOPadConfigSet) for GPIOPadConfigSet
    gpio.o(i.GPIOPinTypeI2CSCL) refers to gpio.o(i.GPIODirModeSet) for GPIODirModeSet
    gpio.o(i.GPIOPinTypeI2CSCL) refers to gpio.o(i.GPIOPadConfigSet) for GPIOPadConfigSet
    gpio.o(i.GPIOPinTypeLCD) refers to gpio.o(i.GPIODirModeSet) for GPIODirModeSet
    gpio.o(i.GPIOPinTypeLCD) refers to gpio.o(i.GPIOPadConfigSet) for GPIOPadConfigSet
    gpio.o(i.GPIOPinTypeOneWire) refers to gpio.o(i.GPIODirModeSet) for GPIODirModeSet
    gpio.o(i.GPIOPinTypeOneWire) refers to gpio.o(i.GPIOPadConfigSet) for GPIOPadConfigSet
    gpio.o(i.GPIOPinTypePWM) refers to gpio.o(i.GPIODirModeSet) for GPIODirModeSet
    gpio.o(i.GPIOPinTypePWM) refers to gpio.o(i.GPIOPadConfigSet) for GPIOPadConfigSet
    gpio.o(i.GPIOPinTypeQEI) refers to gpio.o(i.GPIODirModeSet) for GPIODirModeSet
    gpio.o(i.GPIOPinTypeQEI) refers to gpio.o(i.GPIOPadConfigSet) for GPIOPadConfigSet
    gpio.o(i.GPIOPinTypeSSI) refers to gpio.o(i.GPIODirModeSet) for GPIODirModeSet
    gpio.o(i.GPIOPinTypeSSI) refers to gpio.o(i.GPIOPadConfigSet) for GPIOPadConfigSet
    gpio.o(i.GPIOPinTypeTimer) refers to gpio.o(i.GPIODirModeSet) for GPIODirModeSet
    gpio.o(i.GPIOPinTypeTimer) refers to gpio.o(i.GPIOPadConfigSet) for GPIOPadConfigSet
    gpio.o(i.GPIOPinTypeTrace) refers to gpio.o(i.GPIODirModeSet) for GPIODirModeSet
    gpio.o(i.GPIOPinTypeTrace) refers to gpio.o(i.GPIOPadConfigSet) for GPIOPadConfigSet
    gpio.o(i.GPIOPinTypeUART) refers to gpio.o(i.GPIODirModeSet) for GPIODirModeSet
    gpio.o(i.GPIOPinTypeUART) refers to gpio.o(i.GPIOPadConfigSet) for GPIOPadConfigSet
    gpio.o(i.GPIOPinTypeUSBAnalog) refers to gpio.o(i.GPIODirModeSet) for GPIODirModeSet
    gpio.o(i.GPIOPinTypeUSBAnalog) refers to gpio.o(i.GPIOPadConfigSet) for GPIOPadConfigSet
    gpio.o(i.GPIOPinTypeUSBDigital) refers to gpio.o(i.GPIODirModeSet) for GPIODirModeSet
    gpio.o(i.GPIOPinTypeUSBDigital) refers to gpio.o(i.GPIOPadConfigSet) for GPIOPadConfigSet
    gpio.o(i.GPIOPinTypeWakeHigh) refers to gpio.o(i.GPIODirModeSet) for GPIODirModeSet
    gpio.o(i.GPIOPinTypeWakeHigh) refers to gpio.o(i.GPIOPadConfigSet) for GPIOPadConfigSet
    gpio.o(i.GPIOPinTypeWakeLow) refers to gpio.o(i.GPIODirModeSet) for GPIODirModeSet
    gpio.o(i.GPIOPinTypeWakeLow) refers to gpio.o(i.GPIOPadConfigSet) for GPIOPadConfigSet
    gpio.o(i._GPIOIntNumberGet) refers to gpio.o(.constdata) for .constdata
    i2c.o(i.I2CIntRegister) refers to interrupt.o(i.IntRegister) for IntRegister
    i2c.o(i.I2CIntRegister) refers to interrupt.o(i.IntEnable) for IntEnable
    i2c.o(i.I2CIntRegister) refers to i2c.o(.constdata) for .constdata
    i2c.o(i.I2CIntUnregister) refers to interrupt.o(i.IntDisable) for IntDisable
    i2c.o(i.I2CIntUnregister) refers to interrupt.o(i.IntUnregister) for IntUnregister
    i2c.o(i.I2CIntUnregister) refers to i2c.o(.constdata) for .constdata
    interrupt.o(i.IntDisable) refers to interrupt.o(.constdata) for .constdata
    interrupt.o(i.IntEnable) refers to interrupt.o(.constdata) for .constdata
    interrupt.o(i.IntIsEnabled) refers to interrupt.o(.constdata) for .constdata
    interrupt.o(i.IntMasterDisable) refers to cpu.o(.emb_text) for CPUcpsid
    interrupt.o(i.IntMasterEnable) refers to cpu.o(.emb_text) for CPUcpsie
    interrupt.o(i.IntPendClear) refers to interrupt.o(.constdata) for .constdata
    interrupt.o(i.IntPendSet) refers to interrupt.o(.constdata) for .constdata
    interrupt.o(i.IntPriorityGet) refers to interrupt.o(.constdata) for .constdata
    interrupt.o(i.IntPriorityGroupingGet) refers to interrupt.o(.constdata) for .constdata
    interrupt.o(i.IntPriorityGroupingSet) refers to interrupt.o(.constdata) for .constdata
    interrupt.o(i.IntPriorityMaskGet) refers to cpu.o(.emb_text) for CPUbasepriGet
    interrupt.o(i.IntPriorityMaskSet) refers to cpu.o(.emb_text) for CPUbasepriSet
    interrupt.o(i.IntPrioritySet) refers to interrupt.o(.constdata) for .constdata
    interrupt.o(i.IntRegister) refers to interrupt.o(vtable) for vtable
    interrupt.o(i.IntUnregister) refers to interrupt.o(i._IntDefaultHandler) for _IntDefaultHandler
    interrupt.o(i.IntUnregister) refers to interrupt.o(vtable) for vtable
    pwm.o(i.PWMFaultIntRegister) refers to interrupt.o(i.IntRegister) for IntRegister
    pwm.o(i.PWMFaultIntRegister) refers to interrupt.o(i.IntEnable) for IntEnable
    pwm.o(i.PWMFaultIntUnregister) refers to interrupt.o(i.IntDisable) for IntDisable
    pwm.o(i.PWMFaultIntUnregister) refers to interrupt.o(i.IntUnregister) for IntUnregister
    pwm.o(i.PWMGenIntRegister) refers to pwm.o(i._PWMGenIntNumberGet) for _PWMGenIntNumberGet
    pwm.o(i.PWMGenIntRegister) refers to interrupt.o(i.IntRegister) for IntRegister
    pwm.o(i.PWMGenIntRegister) refers to interrupt.o(i.IntEnable) for IntEnable
    pwm.o(i.PWMGenIntUnregister) refers to pwm.o(i._PWMGenIntNumberGet) for _PWMGenIntNumberGet
    pwm.o(i.PWMGenIntUnregister) refers to interrupt.o(i.IntDisable) for IntDisable
    pwm.o(i.PWMGenIntUnregister) refers to interrupt.o(i.IntUnregister) for IntUnregister
    sysctl.o(i.SysCtlClockFreqSet) refers to sysctl.o(.constdata) for .constdata
    sysctl.o(i.SysCtlClockGet) refers to sysctl.o(.constdata) for .constdata
    sysctl.o(i.SysCtlClockSet) refers to sysctl.o(.emb_text) for SysCtlDelay
    sysctl.o(i.SysCtlDeepSleep) refers to cpu.o(.emb_text) for CPUwfi
    sysctl.o(i.SysCtlIntRegister) refers to interrupt.o(i.IntRegister) for IntRegister
    sysctl.o(i.SysCtlIntRegister) refers to interrupt.o(i.IntEnable) for IntEnable
    sysctl.o(i.SysCtlIntUnregister) refers to interrupt.o(i.IntDisable) for IntDisable
    sysctl.o(i.SysCtlIntUnregister) refers to interrupt.o(i.IntUnregister) for IntUnregister
    sysctl.o(i.SysCtlSleep) refers to cpu.o(.emb_text) for CPUwfi
    sysctl.o(i.SysCtlVCOGet) refers to sysctl.o(.constdata) for .constdata
    timer.o(i.TimerIntRegister) refers to interrupt.o(i.IntRegister) for IntRegister
    timer.o(i.TimerIntRegister) refers to interrupt.o(i.IntEnable) for IntEnable
    timer.o(i.TimerIntRegister) refers to timer.o(.constdata) for .constdata
    timer.o(i.TimerIntUnregister) refers to interrupt.o(i.IntDisable) for IntDisable
    timer.o(i.TimerIntUnregister) refers to interrupt.o(i.IntUnregister) for IntUnregister
    timer.o(i.TimerIntUnregister) refers to timer.o(.constdata) for .constdata
    circle.o(i.GrCircleFill) refers to line.o(i.GrLineDrawH) for GrLineDrawH
    rt_cmsis.o(i.isrMessageGet) refers to rt_mailbox.o(i.isr_mbx_receive) for isr_mbx_receive
    rt_cmsis.o(i.isrMessagePut) refers to rt_mailbox.o(i.rt_mbx_check) for rt_mbx_check
    rt_cmsis.o(i.isrMessagePut) refers to rt_mailbox.o(i.isr_mbx_send) for isr_mbx_send
    rt_cmsis.o(i.isrSemaphoreRelease) refers to rt_cmsis.o(i.rt_id2obj) for rt_id2obj
    rt_cmsis.o(i.isrSemaphoreRelease) refers to rt_semaphore.o(i.isr_sem_send) for isr_sem_send
    rt_cmsis.o(i.isrSignalSet) refers to rt_cmsis.o(i.rt_tid2ptcb) for rt_tid2ptcb
    rt_cmsis.o(i.isrSignalSet) refers to rt_event.o(i.isr_evt_set) for isr_evt_set
    rt_cmsis.o(i.osDelay) refers to rt_cmsis.o(i.svcDelay) for svcDelay
    rt_cmsis.o(i.osKernelInitialize) refers to rt_cmsis.o(i.svcKernelInitialize) for svcKernelInitialize
    rt_cmsis.o(i.osKernelRunning) refers to rt_cmsis.o(i.svcKernelRunning) for svcKernelRunning
    rt_cmsis.o(i.osKernelRunning) refers to rt_cmsis.o(.data) for .data
    rt_cmsis.o(i.osKernelStart) refers to rtx_conf_cm.o(.constdata) for os_flags
    rt_cmsis.o(i.osKernelStart) refers to rt_cmsis.o(i.svcKernelStart) for svcKernelStart
    rt_cmsis.o(i.osKernelSysTick) refers to rt_cmsis.o(i.svcKernelSysTick) for svcKernelSysTick
    rt_cmsis.o(i.osMailAlloc) refers to rt_cmsis.o(i.sysMailAlloc) for sysMailAlloc
    rt_cmsis.o(i.osMailCAlloc) refers to rt_cmsis.o(i.sysMailAlloc) for sysMailAlloc
    rt_cmsis.o(i.osMailCAlloc) refers to rt_cmsis.o(i.rt_clr_box) for rt_clr_box
    rt_cmsis.o(i.osMailCreate) refers to rt_cmsis.o(i.svcMailCreate) for svcMailCreate
    rt_cmsis.o(i.osMailCreate) refers to rt_cmsis.o(.data) for .data
    rt_cmsis.o(i.osMailFree) refers to rt_cmsis.o(i.sysMailFree) for sysMailFree
    rt_cmsis.o(i.osMailGet) refers to rt_cmsis.o(i.osMessageGet) for osMessageGet
    rt_cmsis.o(i.osMailPut) refers to rt_cmsis.o(i.osMessagePut) for osMessagePut
    rt_cmsis.o(i.osMessageCreate) refers to rt_cmsis.o(i.svcMessageCreate) for svcMessageCreate
    rt_cmsis.o(i.osMessageCreate) refers to rt_cmsis.o(.data) for .data
    rt_cmsis.o(i.osMessageGet) refers to rt_cmsis.o(i.isrMessageGet) for isrMessageGet
    rt_cmsis.o(i.osMessageGet) refers to rt_cmsis.o(i.svcMessageGet) for svcMessageGet
    rt_cmsis.o(i.osMessagePut) refers to rt_cmsis.o(i.isrMessagePut) for isrMessagePut
    rt_cmsis.o(i.osMessagePut) refers to rt_cmsis.o(i.svcMessagePut) for svcMessagePut
    rt_cmsis.o(i.osMutexCreate) refers to rt_cmsis.o(i.svcMutexCreate) for svcMutexCreate
    rt_cmsis.o(i.osMutexCreate) refers to rt_cmsis.o(.data) for .data
    rt_cmsis.o(i.osMutexDelete) refers to rt_cmsis.o(i.svcMutexDelete) for svcMutexDelete
    rt_cmsis.o(i.osMutexRelease) refers to rt_cmsis.o(i.svcMutexRelease) for svcMutexRelease
    rt_cmsis.o(i.osMutexWait) refers to rt_cmsis.o(i.svcMutexWait) for svcMutexWait
    rt_cmsis.o(i.osPoolAlloc) refers to rt_cmsis.o(i.sysPoolAlloc) for sysPoolAlloc
    rt_cmsis.o(i.osPoolCAlloc) refers to rt_cmsis.o(i.rt_clr_box) for rt_clr_box
    rt_cmsis.o(i.osPoolCAlloc) refers to rt_cmsis.o(i.sysPoolAlloc) for sysPoolAlloc
    rt_cmsis.o(i.osPoolCreate) refers to rt_cmsis.o(i.svcPoolCreate) for svcPoolCreate
    rt_cmsis.o(i.osPoolCreate) refers to rt_cmsis.o(.data) for .data
    rt_cmsis.o(i.osPoolFree) refers to rt_cmsis.o(i.sysPoolFree) for sysPoolFree
    rt_cmsis.o(i.osSemaphoreCreate) refers to rt_cmsis.o(i.svcSemaphoreCreate) for svcSemaphoreCreate
    rt_cmsis.o(i.osSemaphoreCreate) refers to rt_cmsis.o(.data) for .data
    rt_cmsis.o(i.osSemaphoreDelete) refers to rt_cmsis.o(i.svcSemaphoreDelete) for svcSemaphoreDelete
    rt_cmsis.o(i.osSemaphoreRelease) refers to rt_cmsis.o(i.isrSemaphoreRelease) for isrSemaphoreRelease
    rt_cmsis.o(i.osSemaphoreRelease) refers to rt_cmsis.o(i.svcSemaphoreRelease) for svcSemaphoreRelease
    rt_cmsis.o(i.osSemaphoreWait) refers to rt_cmsis.o(i.svcSemaphoreWait) for svcSemaphoreWait
    rt_cmsis.o(i.osSignalClear) refers to rt_cmsis.o(i.svcSignalClear) for svcSignalClear
    rt_cmsis.o(i.osSignalSet) refers to rt_cmsis.o(i.isrSignalSet) for isrSignalSet
    rt_cmsis.o(i.osSignalSet) refers to rt_cmsis.o(i.svcSignalSet) for svcSignalSet
    rt_cmsis.o(i.osSignalWait) refers to rt_cmsis.o(i.svcSignalWait) for svcSignalWait
    rt_cmsis.o(i.osThreadCreate) refers to rt_cmsis.o(i.svcThreadCreate) for svcThreadCreate
    rt_cmsis.o(i.osThreadCreate) refers to rt_cmsis.o(.data) for .data
    rt_cmsis.o(i.osThreadExit) refers to rt_cmsis.o(i.svcThreadGetId) for svcThreadGetId
    rt_cmsis.o(i.osThreadExit) refers to rt_cmsis.o(i.svcThreadTerminate) for svcThreadTerminate
    rt_cmsis.o(i.osThreadGetId) refers to rt_cmsis.o(i.svcThreadGetId) for svcThreadGetId
    rt_cmsis.o(i.osThreadGetPriority) refers to rt_cmsis.o(i.svcThreadGetPriority) for svcThreadGetPriority
    rt_cmsis.o(i.osThreadSetPriority) refers to rt_cmsis.o(i.svcThreadSetPriority) for svcThreadSetPriority
    rt_cmsis.o(i.osThreadTerminate) refers to rt_cmsis.o(i.svcThreadTerminate) for svcThreadTerminate
    rt_cmsis.o(i.osThreadYield) refers to rt_cmsis.o(i.svcThreadYield) for svcThreadYield
    rt_cmsis.o(i.osTimerCall) refers to rt_cmsis.o(i.svcTimerCall) for svcTimerCall
    rt_cmsis.o(i.osTimerCreate) refers to rt_cmsis.o(i.svcTimerCreate) for svcTimerCreate
    rt_cmsis.o(i.osTimerCreate) refers to rt_cmsis.o(.data) for .data
    rt_cmsis.o(i.osTimerDelete) refers to rt_cmsis.o(i.svcTimerDelete) for svcTimerDelete
    rt_cmsis.o(i.osTimerStart) refers to rt_cmsis.o(i.svcTimerStart) for svcTimerStart
    rt_cmsis.o(i.osTimerStop) refers to rt_cmsis.o(i.svcTimerStop) for svcTimerStop
    rt_cmsis.o(i.osTimerThread) refers to rt_cmsis.o(i.osMessageGet) for osMessageGet
    rt_cmsis.o(i.osTimerThread) refers to rt_cmsis.o(i.osTimerCall) for osTimerCall
    rt_cmsis.o(i.osTimerThread) refers to rtx_conf_cm.o(.data) for osMessageQId_osTimerMessageQ
    rt_cmsis.o(i.os_resume) refers to rt_system.o(i.rt_resume) for rt_resume
    rt_cmsis.o(i.os_suspend) refers to rt_system.o(i.rt_suspend) for rt_suspend
    rt_cmsis.o(i.rt_ms2tick) refers to rtx_conf_cm.o(.constdata) for os_clockrate
    rt_cmsis.o(i.rt_timer_insert) refers to rt_cmsis.o(.data) for .data
    rt_cmsis.o(i.rt_timer_remove) refers to rt_cmsis.o(.data) for .data
    rt_cmsis.o(i.svcDelay) refers to rt_cmsis.o(i.rt_ms2tick) for rt_ms2tick
    rt_cmsis.o(i.svcDelay) refers to rt_time.o(i.rt_dly_wait) for rt_dly_wait
    rt_cmsis.o(i.svcKernelInitialize) refers to rt_memory.o(i.rt_init_mem) for rt_init_mem
    rt_cmsis.o(i.svcKernelInitialize) refers to rt_task.o(i.rt_sys_init) for rt_sys_init
    rt_cmsis.o(i.svcKernelInitialize) refers to rt_cmsis.o(i.svcMessageCreate) for svcMessageCreate
    rt_cmsis.o(i.svcKernelInitialize) refers to rt_cmsis.o(i.svcThreadCreate) for svcThreadCreate
    rt_cmsis.o(i.svcKernelInitialize) refers to rt_cmsis.o(.data) for .data
    rt_cmsis.o(i.svcKernelInitialize) refers to rtx_conf_cm.o(.bss) for os_stack_mem
    rt_cmsis.o(i.svcKernelInitialize) refers to rtx_conf_cm.o(.constdata) for os_stack_sz
    rt_cmsis.o(i.svcKernelInitialize) refers to rt_task.o(.data) for os_tsk
    rt_cmsis.o(i.svcKernelInitialize) refers to rtx_conf_cm.o(.constdata) for os_messageQ_def_osTimerMessageQ
    rt_cmsis.o(i.svcKernelInitialize) refers to rtx_conf_cm.o(.data) for osMessageQId_osTimerMessageQ
    rt_cmsis.o(i.svcKernelInitialize) refers to rtx_conf_cm.o(.constdata) for os_thread_def_osTimerThread
    rt_cmsis.o(i.svcKernelInitialize) refers to rtx_conf_cm.o(.data) for osThreadId_osTimerThread
    rt_cmsis.o(i.svcKernelRunning) refers to rt_cmsis.o(.data) for .data
    rt_cmsis.o(i.svcKernelStart) refers to rt_task.o(i.rt_tsk_prio) for rt_tsk_prio
    rt_cmsis.o(i.svcKernelStart) refers to rt_task.o(i.rt_sys_start) for rt_sys_start
    rt_cmsis.o(i.svcKernelStart) refers to rt_cmsis.o(.data) for .data
    rt_cmsis.o(i.svcKernelStart) refers to rt_task.o(.data) for os_tsk
    rt_cmsis.o(i.svcKernelSysTick) refers to rt_system.o(i.os_tick_val) for os_tick_val
    rt_cmsis.o(i.svcKernelSysTick) refers to rt_system.o(i.os_tick_ovf) for os_tick_ovf
    rt_cmsis.o(i.svcKernelSysTick) refers to rtx_conf_cm.o(.constdata) for os_trv
    rt_cmsis.o(i.svcKernelSysTick) refers to rt_time.o(.data) for os_time
    rt_cmsis.o(i.svcMailCreate) refers to rt_membox.o(i._init_box) for _init_box
    rt_cmsis.o(i.svcMailCreate) refers to rt_mailbox.o(i.rt_mbx_init) for rt_mbx_init
    rt_cmsis.o(i.svcMessageCreate) refers to rt_mailbox.o(i.rt_mbx_init) for rt_mbx_init
    rt_cmsis.o(i.svcMessageGet) refers to rt_cmsis.o(i.rt_ms2tick) for rt_ms2tick
    rt_cmsis.o(i.svcMessageGet) refers to rt_mailbox.o(i.rt_mbx_wait) for rt_mbx_wait
    rt_cmsis.o(i.svcMessagePut) refers to rt_cmsis.o(i.rt_ms2tick) for rt_ms2tick
    rt_cmsis.o(i.svcMessagePut) refers to rt_mailbox.o(i.rt_mbx_send) for rt_mbx_send
    rt_cmsis.o(i.svcMutexCreate) refers to rt_mutex.o(i.rt_mut_init) for rt_mut_init
    rt_cmsis.o(i.svcMutexDelete) refers to rt_cmsis.o(i.rt_id2obj) for rt_id2obj
    rt_cmsis.o(i.svcMutexDelete) refers to rt_mutex.o(i.rt_mut_delete) for rt_mut_delete
    rt_cmsis.o(i.svcMutexRelease) refers to rt_cmsis.o(i.rt_id2obj) for rt_id2obj
    rt_cmsis.o(i.svcMutexRelease) refers to rt_mutex.o(i.rt_mut_release) for rt_mut_release
    rt_cmsis.o(i.svcMutexWait) refers to rt_cmsis.o(i.rt_id2obj) for rt_id2obj
    rt_cmsis.o(i.svcMutexWait) refers to rt_cmsis.o(i.rt_ms2tick) for rt_ms2tick
    rt_cmsis.o(i.svcMutexWait) refers to rt_mutex.o(i.rt_mut_wait) for rt_mut_wait
    rt_cmsis.o(i.svcPoolCreate) refers to rt_membox.o(i._init_box) for _init_box
    rt_cmsis.o(i.svcSemaphoreCreate) refers to rt_semaphore.o(i.rt_sem_init) for rt_sem_init
    rt_cmsis.o(i.svcSemaphoreDelete) refers to rt_cmsis.o(i.rt_id2obj) for rt_id2obj
    rt_cmsis.o(i.svcSemaphoreDelete) refers to rt_semaphore.o(i.rt_sem_delete) for rt_sem_delete
    rt_cmsis.o(i.svcSemaphoreRelease) refers to rt_cmsis.o(i.rt_id2obj) for rt_id2obj
    rt_cmsis.o(i.svcSemaphoreRelease) refers to rt_semaphore.o(i.rt_sem_send) for rt_sem_send
    rt_cmsis.o(i.svcSemaphoreWait) refers to rt_cmsis.o(i.rt_id2obj) for rt_id2obj
    rt_cmsis.o(i.svcSemaphoreWait) refers to rt_cmsis.o(i.rt_ms2tick) for rt_ms2tick
    rt_cmsis.o(i.svcSemaphoreWait) refers to rt_semaphore.o(i.rt_sem_wait) for rt_sem_wait
    rt_cmsis.o(i.svcSignalClear) refers to rt_cmsis.o(i.rt_tid2ptcb) for rt_tid2ptcb
    rt_cmsis.o(i.svcSignalClear) refers to rt_event.o(i.rt_evt_clr) for rt_evt_clr
    rt_cmsis.o(i.svcSignalSet) refers to rt_cmsis.o(i.rt_tid2ptcb) for rt_tid2ptcb
    rt_cmsis.o(i.svcSignalSet) refers to rt_event.o(i.rt_evt_set) for rt_evt_set
    rt_cmsis.o(i.svcSignalWait) refers to rt_cmsis.o(i.rt_ms2tick) for rt_ms2tick
    rt_cmsis.o(i.svcSignalWait) refers to rt_event.o(i.rt_evt_wait) for rt_evt_wait
    rt_cmsis.o(i.svcSignalWait) refers to rt_task.o(.data) for os_tsk
    rt_cmsis.o(i.svcThreadCreate) refers to rt_memory.o(i.rt_alloc_mem) for rt_alloc_mem
    rt_cmsis.o(i.svcThreadCreate) refers to rt_task.o(i.rt_tsk_create) for rt_tsk_create
    rt_cmsis.o(i.svcThreadCreate) refers to rt_memory.o(i.rt_free_mem) for rt_free_mem
    rt_cmsis.o(i.svcThreadCreate) refers to rtx_conf_cm.o(.bss) for os_stack_mem
    rt_cmsis.o(i.svcThreadCreate) refers to rtx_conf_cm.o(.bss) for os_active_TCB
    rt_cmsis.o(i.svcThreadCreate) refers to rt_cmsis.o(i.osThreadExit) for osThreadExit
    rt_cmsis.o(i.svcThreadGetId) refers to rt_task.o(i.rt_tsk_self) for rt_tsk_self
    rt_cmsis.o(i.svcThreadGetId) refers to rtx_conf_cm.o(.bss) for os_active_TCB
    rt_cmsis.o(i.svcThreadGetPriority) refers to rt_cmsis.o(i.rt_tid2ptcb) for rt_tid2ptcb
    rt_cmsis.o(i.svcThreadSetPriority) refers to rt_cmsis.o(i.rt_tid2ptcb) for rt_tid2ptcb
    rt_cmsis.o(i.svcThreadSetPriority) refers to rt_task.o(i.rt_tsk_prio) for rt_tsk_prio
    rt_cmsis.o(i.svcThreadTerminate) refers to rt_cmsis.o(i.rt_tid2ptcb) for rt_tid2ptcb
    rt_cmsis.o(i.svcThreadTerminate) refers to rt_task.o(i.rt_tsk_delete) for rt_tsk_delete
    rt_cmsis.o(i.svcThreadTerminate) refers to rt_memory.o(i.rt_free_mem) for rt_free_mem
    rt_cmsis.o(i.svcThreadTerminate) refers to rtx_conf_cm.o(.bss) for os_stack_mem
    rt_cmsis.o(i.svcThreadYield) refers to rt_task.o(i.rt_tsk_pass) for rt_tsk_pass
    rt_cmsis.o(i.svcTimerCall) refers to rt_cmsis.o(i.rt_id2obj) for rt_id2obj
    rt_cmsis.o(i.svcTimerCreate) refers to rtx_conf_cm.o(.data) for osThreadId_osTimerThread
    rt_cmsis.o(i.svcTimerDelete) refers to rt_cmsis.o(i.rt_id2obj) for rt_id2obj
    rt_cmsis.o(i.svcTimerDelete) refers to rt_cmsis.o(i.rt_timer_remove) for rt_timer_remove
    rt_cmsis.o(i.svcTimerStart) refers to rt_cmsis.o(i.rt_id2obj) for rt_id2obj
    rt_cmsis.o(i.svcTimerStart) refers to lludivv7m.o(.text) for __aeabi_uldivmod
    rt_cmsis.o(i.svcTimerStart) refers to rt_cmsis.o(i.rt_timer_remove) for rt_timer_remove
    rt_cmsis.o(i.svcTimerStart) refers to rt_cmsis.o(i.rt_timer_insert) for rt_timer_insert
    rt_cmsis.o(i.svcTimerStart) refers to rtx_conf_cm.o(.constdata) for os_clockrate
    rt_cmsis.o(i.svcTimerStop) refers to rt_cmsis.o(i.rt_id2obj) for rt_id2obj
    rt_cmsis.o(i.svcTimerStop) refers to rt_cmsis.o(i.rt_timer_remove) for rt_timer_remove
    rt_cmsis.o(i.sysMailAlloc) refers to rt_membox.o(i.rt_alloc_box) for rt_alloc_box
    rt_cmsis.o(i.sysMailAlloc) refers to rt_list.o(i.rt_put_prio) for rt_put_prio
    rt_cmsis.o(i.sysMailAlloc) refers to rt_cmsis.o(i.rt_ms2tick) for rt_ms2tick
    rt_cmsis.o(i.sysMailAlloc) refers to rt_task.o(i.rt_block) for rt_block
    rt_cmsis.o(i.sysMailAlloc) refers to rt_task.o(.data) for os_tsk
    rt_cmsis.o(i.sysMailFree) refers to rt_membox.o(i.rt_free_box) for rt_free_box
    rt_cmsis.o(i.sysMailFree) refers to rt_list.o(i.rt_psq_enq) for rt_psq_enq
    rt_cmsis.o(i.sysMailFree) refers to rt_system.o(i.rt_psh_req) for rt_psh_req
    rt_cmsis.o(i.sysMailFree) refers to rt_membox.o(i.rt_alloc_box) for rt_alloc_box
    rt_cmsis.o(i.sysMailFree) refers to rt_list.o(i.rt_get_first) for rt_get_first
    rt_cmsis.o(i.sysMailFree) refers to hal_cm.o(i.rt_ret_val) for rt_ret_val
    rt_cmsis.o(i.sysMailFree) refers to rt_list.o(i.rt_rmv_dly) for rt_rmv_dly
    rt_cmsis.o(i.sysMailFree) refers to rt_task.o(i.rt_dispatch) for rt_dispatch
    rt_cmsis.o(i.sysPoolAlloc) refers to rt_membox.o(i.rt_alloc_box) for rt_alloc_box
    rt_cmsis.o(i.sysPoolFree) refers to rt_membox.o(i.rt_free_box) for rt_free_box
    rt_cmsis.o(i.sysTimerTick) refers to rt_cmsis.o(i.isrMessagePut) for isrMessagePut
    rt_cmsis.o(i.sysTimerTick) refers to rtx_conf_cm.o(.text) for os_error
    rt_cmsis.o(i.sysTimerTick) refers to rt_cmsis.o(i.rt_timer_insert) for rt_timer_insert
    rt_cmsis.o(i.sysTimerTick) refers to rt_cmsis.o(.data) for .data
    rt_cmsis.o(i.sysTimerTick) refers to rtx_conf_cm.o(.data) for osMessageQId_osTimerMessageQ
    rt_cmsis.o(i.sysUserTimerUpdate) refers to rt_cmsis.o(i.sysTimerTick) for sysTimerTick
    rt_cmsis.o(i.sysUserTimerUpdate) refers to rt_cmsis.o(.data) for .data
    rt_cmsis.o(i.sysUserTimerWakeupTime) refers to rt_cmsis.o(.data) for .data
    rt_task.o(i.rt_block) refers to rt_list.o(i.rt_put_dly) for rt_put_dly
    rt_task.o(i.rt_block) refers to rt_list.o(i.rt_get_first) for rt_get_first
    rt_task.o(i.rt_block) refers to rt_task.o(i.rt_switch_req) for rt_switch_req
    rt_task.o(i.rt_block) refers to rt_task.o(.data) for .data
    rt_task.o(i.rt_block) refers to rt_list.o(.bss) for os_rdy
    rt_task.o(i.rt_dispatch) refers to rt_list.o(i.rt_put_rdy_first) for rt_put_rdy_first
    rt_task.o(i.rt_dispatch) refers to rt_task.o(i.rt_switch_req) for rt_switch_req
    rt_task.o(i.rt_dispatch) refers to rt_list.o(i.rt_get_first) for rt_get_first
    rt_task.o(i.rt_dispatch) refers to rt_list.o(i.rt_put_prio) for rt_put_prio
    rt_task.o(i.rt_dispatch) refers to rt_task.o(.data) for .data
    rt_task.o(i.rt_dispatch) refers to rt_list.o(.bss) for os_rdy
    rt_task.o(i.rt_init_context) refers to rt_membox.o(i.rt_alloc_box) for rt_alloc_box
    rt_task.o(i.rt_init_context) refers to hal_cm.o(i.rt_init_stack) for rt_init_stack
    rt_task.o(i.rt_init_context) refers to rtx_conf_cm.o(.bss) for mp_stk
    rt_task.o(i.rt_switch_req) refers to hal_cm.o(i.dbg_task_switch) for dbg_task_switch
    rt_task.o(i.rt_switch_req) refers to rt_task.o(.data) for .data
    rt_task.o(i.rt_switch_req) refers to hal_cm.o(.data) for dbg_msg
    rt_task.o(i.rt_sys_init) refers to hal_cm.o(i.dbg_init) for dbg_init
    rt_task.o(i.rt_sys_init) refers to rt_membox.o(i._init_box) for _init_box
    rt_task.o(i.rt_sys_init) refers to rt_task.o(i.rt_init_context) for rt_init_context
    rt_task.o(i.rt_sys_init) refers to rt_robin.o(i.rt_init_robin) for rt_init_robin
    rt_task.o(i.rt_sys_init) refers to rtx_conf_cm.o(.bss) for os_active_TCB
    rt_task.o(i.rt_sys_init) refers to rtx_conf_cm.o(.constdata) for os_maxtaskrun
    rt_task.o(i.rt_sys_init) refers to rtx_conf_cm.o(.constdata) for mp_tcb_size
    rt_task.o(i.rt_sys_init) refers to rtx_conf_cm.o(.bss) for mp_tcb
    rt_task.o(i.rt_sys_init) refers to rtx_conf_cm.o(.constdata) for os_stackinfo
    rt_task.o(i.rt_sys_init) refers to rtx_conf_cm.o(.constdata) for mp_stk_size
    rt_task.o(i.rt_sys_init) refers to rtx_conf_cm.o(.bss) for mp_stk
    rt_task.o(i.rt_sys_init) refers to rtx_conf_cm.o(.constdata) for mp_tmr_size
    rt_task.o(i.rt_sys_init) refers to rtx_conf_cm.o(.data) for m_tmr
    rt_task.o(i.rt_sys_init) refers to rt_task.o(.bss) for .bss
    rt_task.o(i.rt_sys_init) refers to rtx_conf_cm.o(.text) for os_idle_demon
    rt_task.o(i.rt_sys_init) refers to rt_list.o(.bss) for os_rdy
    rt_task.o(i.rt_sys_init) refers to rt_task.o(.data) for .data
    rt_task.o(i.rt_sys_init) refers to rtx_conf_cm.o(.bss) for os_fifo
    rt_task.o(i.rt_sys_init) refers to rtx_conf_cm.o(.constdata) for os_fifo_size
    rt_task.o(i.rt_sys_start) refers to rt_system.o(i.os_tick_init) for os_tick_init
    rt_task.o(i.rt_sys_start) refers to rt_system.o(.data) for os_tick_irqn
    rt_task.o(i.rt_tsk_create) refers to rt_membox.o(i.rt_alloc_box) for rt_alloc_box
    rt_task.o(i.rt_tsk_create) refers to rt_task.o(i.rt_init_context) for rt_init_context
    rt_task.o(i.rt_tsk_create) refers to hal_cm.o(i.dbg_task_notify) for dbg_task_notify
    rt_task.o(i.rt_tsk_create) refers to rt_task.o(i.rt_dispatch) for rt_dispatch
    rt_task.o(i.rt_tsk_create) refers to rtx_conf_cm.o(.bss) for mp_tcb
    rt_task.o(i.rt_tsk_create) refers to rtx_conf_cm.o(.bss) for os_active_TCB
    rt_task.o(i.rt_tsk_create) refers to rtx_conf_cm.o(.constdata) for os_maxtaskrun
    rt_task.o(i.rt_tsk_create) refers to hal_cm.o(.data) for dbg_msg
    rt_task.o(i.rt_tsk_delete) refers to hal_cm4.o(.emb_text) for rt_get_PSP
    rt_task.o(i.rt_tsk_delete) refers to rt_system.o(i.rt_stk_check) for rt_stk_check
    rt_task.o(i.rt_tsk_delete) refers to rt_list.o(i.rt_get_first) for rt_get_first
    rt_task.o(i.rt_tsk_delete) refers to hal_cm.o(i.rt_ret_val) for rt_ret_val
    rt_task.o(i.rt_tsk_delete) refers to rt_list.o(i.rt_rmv_dly) for rt_rmv_dly
    rt_task.o(i.rt_tsk_delete) refers to rt_list.o(i.rt_put_prio) for rt_put_prio
    rt_task.o(i.rt_tsk_delete) refers to rt_membox.o(i.rt_free_box) for rt_free_box
    rt_task.o(i.rt_tsk_delete) refers to hal_cm.o(i.dbg_task_notify) for dbg_task_notify
    rt_task.o(i.rt_tsk_delete) refers to rt_list.o(i.rt_rmv_list) for rt_rmv_list
    rt_task.o(i.rt_tsk_delete) refers to rt_task.o(i.rt_dispatch) for rt_dispatch
    rt_task.o(i.rt_tsk_delete) refers to hal_cm.o(.data) for dbg_msg
    rt_task.o(i.rt_tsk_delete) refers to rtx_conf_cm.o(.bss) for os_active_TCB
    rt_task.o(i.rt_tsk_delete) refers to rt_task.o(.data) for .data
    rt_task.o(i.rt_tsk_delete) refers to rt_list.o(.bss) for os_rdy
    rt_task.o(i.rt_tsk_delete) refers to rtx_conf_cm.o(.bss) for mp_stk
    rt_task.o(i.rt_tsk_delete) refers to rtx_conf_cm.o(.bss) for mp_tcb
    rt_task.o(i.rt_tsk_delete) refers to rtx_conf_cm.o(.constdata) for os_maxtaskrun
    rt_task.o(i.rt_tsk_pass) refers to rt_list.o(i.rt_get_same_rdy_prio) for rt_get_same_rdy_prio
    rt_task.o(i.rt_tsk_pass) refers to rt_list.o(i.rt_put_prio) for rt_put_prio
    rt_task.o(i.rt_tsk_pass) refers to rt_task.o(i.rt_switch_req) for rt_switch_req
    rt_task.o(i.rt_tsk_pass) refers to rt_task.o(.data) for .data
    rt_task.o(i.rt_tsk_pass) refers to rt_list.o(.bss) for os_rdy
    rt_task.o(i.rt_tsk_prio) refers to rt_list.o(i.rt_put_prio) for rt_put_prio
    rt_task.o(i.rt_tsk_prio) refers to rt_list.o(i.rt_resort_prio) for rt_resort_prio
    rt_task.o(i.rt_tsk_prio) refers to rt_list.o(i.rt_get_first) for rt_get_first
    rt_task.o(i.rt_tsk_prio) refers to rt_task.o(i.rt_dispatch) for rt_dispatch
    rt_task.o(i.rt_tsk_prio) refers to rt_task.o(.data) for .data
    rt_task.o(i.rt_tsk_prio) refers to rtx_conf_cm.o(.constdata) for os_maxtaskrun
    rt_task.o(i.rt_tsk_prio) refers to rtx_conf_cm.o(.bss) for os_active_TCB
    rt_task.o(i.rt_tsk_prio) refers to rt_list.o(.bss) for os_rdy
    rt_task.o(i.rt_tsk_self) refers to rt_task.o(.data) for .data
    rt_mutex.o(i.rt_mut_delete) refers to rt_list.o(i.rt_resort_prio) for rt_resort_prio
    rt_mutex.o(i.rt_mut_delete) refers to rt_list.o(i.rt_get_first) for rt_get_first
    rt_mutex.o(i.rt_mut_delete) refers to hal_cm.o(i.rt_ret_val) for rt_ret_val
    rt_mutex.o(i.rt_mut_delete) refers to rt_list.o(i.rt_rmv_dly) for rt_rmv_dly
    rt_mutex.o(i.rt_mut_delete) refers to rt_list.o(i.rt_put_prio) for rt_put_prio
    rt_mutex.o(i.rt_mut_delete) refers to rt_task.o(i.rt_dispatch) for rt_dispatch
    rt_mutex.o(i.rt_mut_delete) refers to rt_task.o(.data) for os_tsk
    rt_mutex.o(i.rt_mut_delete) refers to rt_list.o(.bss) for os_rdy
    rt_mutex.o(i.rt_mut_release) refers to rt_list.o(i.rt_get_first) for rt_get_first
    rt_mutex.o(i.rt_mut_release) refers to hal_cm.o(i.rt_ret_val) for rt_ret_val
    rt_mutex.o(i.rt_mut_release) refers to rt_list.o(i.rt_rmv_dly) for rt_rmv_dly
    rt_mutex.o(i.rt_mut_release) refers to rt_list.o(i.rt_put_prio) for rt_put_prio
    rt_mutex.o(i.rt_mut_release) refers to rt_task.o(i.rt_dispatch) for rt_dispatch
    rt_mutex.o(i.rt_mut_release) refers to rt_task.o(.data) for os_tsk
    rt_mutex.o(i.rt_mut_release) refers to rt_list.o(.bss) for os_rdy
    rt_mutex.o(i.rt_mut_wait) refers to rt_list.o(i.rt_resort_prio) for rt_resort_prio
    rt_mutex.o(i.rt_mut_wait) refers to rt_list.o(i.rt_put_prio) for rt_put_prio
    rt_mutex.o(i.rt_mut_wait) refers to rt_task.o(i.rt_block) for rt_block
    rt_mutex.o(i.rt_mut_wait) refers to rt_task.o(.data) for os_tsk
    rt_system.o(i.os_tick_init) refers to rtx_conf_cm.o(.constdata) for os_trv
    rt_system.o(i.os_tick_val) refers to rtx_conf_cm.o(.constdata) for os_trv
    rt_system.o(i.rt_pop_req) refers to rt_list.o(i.rt_put_rdy_first) for rt_put_rdy_first
    rt_system.o(i.rt_pop_req) refers to rt_semaphore.o(i.rt_sem_psh) for rt_sem_psh
    rt_system.o(i.rt_pop_req) refers to rt_list.o(i.rt_get_first) for rt_get_first
    rt_system.o(i.rt_pop_req) refers to rt_task.o(i.rt_switch_req) for rt_switch_req
    rt_system.o(i.rt_pop_req) refers to rt_event.o(i.rt_evt_psh) for rt_evt_psh
    rt_system.o(i.rt_pop_req) refers to rt_mailbox.o(i.rt_mbx_psh) for rt_mbx_psh
    rt_system.o(i.rt_pop_req) refers to rt_task.o(.data) for os_tsk
    rt_system.o(i.rt_pop_req) refers to rtx_conf_cm.o(.bss) for os_fifo
    rt_system.o(i.rt_pop_req) refers to rt_list.o(.bss) for os_rdy
    rt_system.o(i.rt_psh_req) refers to rt_system.o(.data) for .data
    rt_system.o(i.rt_resume) refers to rt_list.o(i.rt_put_rdy_first) for rt_put_rdy_first
    rt_system.o(i.rt_resume) refers to rt_list.o(i.rt_dec_dly) for rt_dec_dly
    rt_system.o(i.rt_resume) refers to rt_cmsis.o(i.sysUserTimerUpdate) for sysUserTimerUpdate
    rt_system.o(i.rt_resume) refers to rt_list.o(i.rt_get_first) for rt_get_first
    rt_system.o(i.rt_resume) refers to rt_task.o(i.rt_switch_req) for rt_switch_req
    rt_system.o(i.rt_resume) refers to rt_system.o(i.rt_tsk_unlock) for rt_tsk_unlock
    rt_system.o(i.rt_resume) refers to rt_task.o(.data) for os_tsk
    rt_system.o(i.rt_resume) refers to rt_robin.o(.data) for os_robin
    rt_system.o(i.rt_resume) refers to rt_list.o(.bss) for os_dly
    rt_system.o(i.rt_resume) refers to rt_time.o(.data) for os_time
    rt_system.o(i.rt_stk_check) refers to rtx_conf_cm.o(.text) for os_error
    rt_system.o(i.rt_stk_check) refers to rt_task.o(.data) for os_tsk
    rt_system.o(i.rt_suspend) refers to rt_system.o(i.rt_tsk_lock) for rt_tsk_lock
    rt_system.o(i.rt_suspend) refers to rt_cmsis.o(i.sysUserTimerWakeupTime) for sysUserTimerWakeupTime
    rt_system.o(i.rt_suspend) refers to rt_list.o(.bss) for os_dly
    rt_system.o(i.rt_systick) refers to rt_list.o(i.rt_put_rdy_first) for rt_put_rdy_first
    rt_system.o(i.rt_systick) refers to rt_robin.o(i.rt_chk_robin) for rt_chk_robin
    rt_system.o(i.rt_systick) refers to rt_list.o(i.rt_dec_dly) for rt_dec_dly
    rt_system.o(i.rt_systick) refers to rt_cmsis.o(i.sysTimerTick) for sysTimerTick
    rt_system.o(i.rt_systick) refers to rt_list.o(i.rt_get_first) for rt_get_first
    rt_system.o(i.rt_systick) refers to rt_task.o(i.rt_switch_req) for rt_switch_req
    rt_system.o(i.rt_systick) refers to rt_task.o(.data) for os_tsk
    rt_system.o(i.rt_systick) refers to rt_time.o(.data) for os_time
    rt_system.o(i.rt_systick) refers to rt_list.o(.bss) for os_rdy
    rt_system.o(i.rt_tsk_lock) refers to rt_system.o(.data) for .data
    rt_system.o(i.rt_tsk_unlock) refers to rt_system.o(.data) for .data
    rt_event.o(i.isr_evt_set) refers to rt_list.o(i.rt_psq_enq) for rt_psq_enq
    rt_event.o(i.isr_evt_set) refers to rt_system.o(i.rt_psh_req) for rt_psh_req
    rt_event.o(i.isr_evt_set) refers to rtx_conf_cm.o(.bss) for os_active_TCB
    rt_event.o(i.rt_evt_clr) refers to rtx_conf_cm.o(.bss) for os_active_TCB
    rt_event.o(i.rt_evt_get) refers to rt_task.o(.data) for os_tsk
    rt_event.o(i.rt_evt_psh) refers to rt_list.o(i.rt_rmv_dly) for rt_rmv_dly
    rt_event.o(i.rt_evt_psh) refers to hal_cm.o(i.rt_ret_val2) for rt_ret_val2
    rt_event.o(i.rt_evt_psh) refers to rt_list.o(i.rt_put_prio) for rt_put_prio
    rt_event.o(i.rt_evt_psh) refers to rt_list.o(.bss) for os_rdy
    rt_event.o(i.rt_evt_set) refers to rt_list.o(i.rt_rmv_dly) for rt_rmv_dly
    rt_event.o(i.rt_evt_set) refers to hal_cm.o(i.rt_ret_val2) for rt_ret_val2
    rt_event.o(i.rt_evt_set) refers to rt_task.o(i.rt_dispatch) for rt_dispatch
    rt_event.o(i.rt_evt_set) refers to rtx_conf_cm.o(.bss) for os_active_TCB
    rt_event.o(i.rt_evt_wait) refers to rt_task.o(i.rt_block) for rt_block
    rt_event.o(i.rt_evt_wait) refers to rt_task.o(.data) for os_tsk
    rt_list.o(i.rt_dec_dly) refers to rt_list.o(i.rt_put_prio) for rt_put_prio
    rt_list.o(i.rt_dec_dly) refers to rt_list.o(.bss) for .bss
    rt_list.o(i.rt_dec_dly) refers to rt_time.o(.data) for os_time
    rt_list.o(i.rt_get_same_rdy_prio) refers to rt_list.o(.bss) for .bss
    rt_list.o(i.rt_get_same_rdy_prio) refers to rt_task.o(.data) for os_tsk
    rt_list.o(i.rt_psq_enq) refers to rtx_conf_cm.o(.text) for os_error
    rt_list.o(i.rt_psq_enq) refers to rtx_conf_cm.o(.bss) for os_fifo
    rt_list.o(i.rt_put_dly) refers to rt_list.o(.bss) for .bss
    rt_list.o(i.rt_put_rdy_first) refers to rt_list.o(.bss) for .bss
    rt_list.o(i.rt_resort_prio) refers to rt_list.o(i.rt_rmv_list) for rt_rmv_list
    rt_list.o(i.rt_resort_prio) refers to rt_list.o(i.rt_put_prio) for rt_put_prio
    rt_list.o(i.rt_resort_prio) refers to rt_list.o(.bss) for .bss
    rt_list.o(i.rt_rmv_list) refers to rt_list.o(.bss) for .bss
    rt_mailbox.o(i.isr_mbx_receive) refers to rt_list.o(i.rt_psq_enq) for rt_psq_enq
    rt_mailbox.o(i.isr_mbx_receive) refers to rt_system.o(i.rt_psh_req) for rt_psh_req
    rt_mailbox.o(i.isr_mbx_send) refers to rt_list.o(i.rt_psq_enq) for rt_psq_enq
    rt_mailbox.o(i.isr_mbx_send) refers to rt_system.o(i.rt_psh_req) for rt_psh_req
    rt_mailbox.o(i.rt_mbx_psh) refers to rt_membox.o(i.rt_alloc_box) for rt_alloc_box
    rt_mailbox.o(i.rt_mbx_psh) refers to rt_list.o(i.rt_get_first) for rt_get_first
    rt_mailbox.o(i.rt_mbx_psh) refers to hal_cm.o(i.rt_ret_val) for rt_ret_val
    rt_mailbox.o(i.rt_mbx_psh) refers to rt_list.o(i.rt_rmv_dly) for rt_rmv_dly
    rt_mailbox.o(i.rt_mbx_psh) refers to rt_list.o(i.rt_put_prio) for rt_put_prio
    rt_mailbox.o(i.rt_mbx_psh) refers to hal_cm.o(i.rt_ret_val2) for rt_ret_val2
    rt_mailbox.o(i.rt_mbx_psh) refers to rtx_conf_cm.o(.text) for os_error
    rt_mailbox.o(i.rt_mbx_psh) refers to rt_list.o(.bss) for os_rdy
    rt_mailbox.o(i.rt_mbx_send) refers to rt_list.o(i.rt_put_prio) for rt_put_prio
    rt_mailbox.o(i.rt_mbx_send) refers to rt_list.o(i.rt_get_first) for rt_get_first
    rt_mailbox.o(i.rt_mbx_send) refers to hal_cm.o(i.rt_ret_val2) for rt_ret_val2
    rt_mailbox.o(i.rt_mbx_send) refers to rt_list.o(i.rt_rmv_dly) for rt_rmv_dly
    rt_mailbox.o(i.rt_mbx_send) refers to rt_task.o(i.rt_dispatch) for rt_dispatch
    rt_mailbox.o(i.rt_mbx_send) refers to rt_task.o(i.rt_block) for rt_block
    rt_mailbox.o(i.rt_mbx_send) refers to rt_task.o(.data) for os_tsk
    rt_mailbox.o(i.rt_mbx_wait) refers to rt_list.o(i.rt_get_first) for rt_get_first
    rt_mailbox.o(i.rt_mbx_wait) refers to hal_cm.o(i.rt_ret_val) for rt_ret_val
    rt_mailbox.o(i.rt_mbx_wait) refers to rt_list.o(i.rt_rmv_dly) for rt_rmv_dly
    rt_mailbox.o(i.rt_mbx_wait) refers to rt_task.o(i.rt_dispatch) for rt_dispatch
    rt_mailbox.o(i.rt_mbx_wait) refers to rt_list.o(i.rt_put_prio) for rt_put_prio
    rt_mailbox.o(i.rt_mbx_wait) refers to rt_task.o(i.rt_block) for rt_block
    rt_mailbox.o(i.rt_mbx_wait) refers to rt_task.o(.data) for os_tsk
    rt_semaphore.o(i.isr_sem_send) refers to rt_list.o(i.rt_psq_enq) for rt_psq_enq
    rt_semaphore.o(i.isr_sem_send) refers to rt_system.o(i.rt_psh_req) for rt_psh_req
    rt_semaphore.o(i.rt_sem_delete) refers to rt_list.o(i.rt_get_first) for rt_get_first
    rt_semaphore.o(i.rt_sem_delete) refers to hal_cm.o(i.rt_ret_val) for rt_ret_val
    rt_semaphore.o(i.rt_sem_delete) refers to rt_list.o(i.rt_rmv_dly) for rt_rmv_dly
    rt_semaphore.o(i.rt_sem_delete) refers to rt_list.o(i.rt_put_prio) for rt_put_prio
    rt_semaphore.o(i.rt_sem_delete) refers to rt_task.o(i.rt_dispatch) for rt_dispatch
    rt_semaphore.o(i.rt_sem_delete) refers to rt_list.o(.bss) for os_rdy
    rt_semaphore.o(i.rt_sem_delete) refers to rt_task.o(.data) for os_tsk
    rt_semaphore.o(i.rt_sem_psh) refers to rt_list.o(i.rt_get_first) for rt_get_first
    rt_semaphore.o(i.rt_sem_psh) refers to rt_list.o(i.rt_rmv_dly) for rt_rmv_dly
    rt_semaphore.o(i.rt_sem_psh) refers to hal_cm.o(i.rt_ret_val) for rt_ret_val
    rt_semaphore.o(i.rt_sem_psh) refers to rt_list.o(i.rt_put_prio) for rt_put_prio
    rt_semaphore.o(i.rt_sem_psh) refers to rt_list.o(.bss) for os_rdy
    rt_semaphore.o(i.rt_sem_send) refers to rt_list.o(i.rt_get_first) for rt_get_first
    rt_semaphore.o(i.rt_sem_send) refers to hal_cm.o(i.rt_ret_val) for rt_ret_val
    rt_semaphore.o(i.rt_sem_send) refers to rt_list.o(i.rt_rmv_dly) for rt_rmv_dly
    rt_semaphore.o(i.rt_sem_send) refers to rt_task.o(i.rt_dispatch) for rt_dispatch
    rt_semaphore.o(i.rt_sem_wait) refers to rt_list.o(i.rt_put_prio) for rt_put_prio
    rt_semaphore.o(i.rt_sem_wait) refers to rt_task.o(i.rt_block) for rt_block
    rt_semaphore.o(i.rt_sem_wait) refers to rt_task.o(.data) for os_tsk
    rt_time.o(i.rt_dly_wait) refers to rt_task.o(i.rt_block) for rt_block
    rt_time.o(i.rt_itv_set) refers to rt_task.o(.data) for os_tsk
    rt_time.o(i.rt_itv_set) refers to rt_time.o(.data) for .data
    rt_time.o(i.rt_itv_wait) refers to rt_task.o(i.rt_block) for rt_block
    rt_time.o(i.rt_itv_wait) refers to rt_task.o(.data) for os_tsk
    rt_time.o(i.rt_itv_wait) refers to rt_time.o(.data) for .data
    rt_time.o(i.rt_time_get) refers to rt_time.o(.data) for .data
    rt_robin.o(i.rt_chk_robin) refers to rt_list.o(i.rt_get_first) for rt_get_first
    rt_robin.o(i.rt_chk_robin) refers to rt_list.o(i.rt_put_prio) for rt_put_prio
    rt_robin.o(i.rt_chk_robin) refers to rt_robin.o(.data) for .data
    rt_robin.o(i.rt_chk_robin) refers to rt_list.o(.bss) for os_rdy
    rt_robin.o(i.rt_chk_robin) refers to rt_time.o(.data) for os_time
    rt_robin.o(i.rt_init_robin) refers to rt_robin.o(.data) for .data
    rt_robin.o(i.rt_init_robin) refers to rtx_conf_cm.o(.constdata) for os_rrobin
    rt_membox.o(i._calloc_box) refers to hal_cm4.o(.emb_text) for _alloc_box
    hal_cm.o(i.dbg_init) refers to hal_cm.o(.data) for .data
    hal_cm.o(i.rt_init_stack) refers to rtx_conf_cm.o(.constdata) for os_stackinfo
    hal_cm.o(i.rt_ret_val) refers to hal_cm.o(i.rt_ret_regs) for rt_ret_regs
    hal_cm.o(i.rt_ret_val2) refers to hal_cm.o(i.rt_ret_regs) for rt_ret_regs
    hal_cm4.o(.emb_text) refers to rtx_conf_cm.o(.constdata) for os_flags
    hal_cm4.o(.emb_text) refers to rt_membox.o(i.rt_alloc_box) for rt_alloc_box
    hal_cm4.o(.emb_text) refers to rt_membox.o(i.rt_free_box) for rt_free_box
    hal_cm4.o(.emb_text) refers to rt_system.o(i.rt_stk_check) for rt_stk_check
    hal_cm4.o(.emb_text) refers to rt_task.o(.data) for os_tsk
    hal_cm4.o(.emb_text) refers to svc_table.o(SVC_TABLE) for SVC_Count
    hal_cm4.o(.emb_text) refers to rt_system.o(i.rt_pop_req) for rt_pop_req
    hal_cm4.o(.emb_text) refers to rt_system.o(i.rt_systick) for rt_systick
    hal_cm4.o(.emb_text) refers to rt_system.o(i.os_tick_irqack) for os_tick_irqack
    libspace.o(.text) refers to libspace.o(.bss) for __libspace_start
    llsdiv.o(.text) refers to lludivv7m.o(.text) for __aeabi_uldivmod
    exit.o(.text) refers to rtexit.o(.ARM.Collect$$rtexit$$00000000) for __rt_exit
    __main.o(!!!main) refers to __rtentry.o(.ARM.Collect$$rtentry$$00000000) for __rt_entry
    daddsub_clz.o(x$fpl$dadd) refers (Special) to usenofp.o(x$fpl$usenofp) for __I$use$fp
    daddsub_clz.o(x$fpl$dadd) refers to daddsub_clz.o(x$fpl$dsub) for _dsub1
    daddsub_clz.o(x$fpl$dadd) refers to dretinf.o(x$fpl$dretinf) for __fpl_dretinf
    daddsub_clz.o(x$fpl$dadd) refers to dnaninf.o(x$fpl$dnaninf) for __fpl_dnaninf
    daddsub_clz.o(x$fpl$drsb) refers (Special) to usenofp.o(x$fpl$usenofp) for __I$use$fp
    daddsub_clz.o(x$fpl$drsb) refers to daddsub_clz.o(x$fpl$dadd) for _dadd1
    daddsub_clz.o(x$fpl$drsb) refers to daddsub_clz.o(x$fpl$dsub) for _dsub1
    daddsub_clz.o(x$fpl$dsub) refers (Special) to usenofp.o(x$fpl$usenofp) for __I$use$fp
    daddsub_clz.o(x$fpl$dsub) refers to daddsub_clz.o(x$fpl$dadd) for _dadd1
    daddsub_clz.o(x$fpl$dsub) refers to dnaninf.o(x$fpl$dnaninf) for __fpl_dnaninf
    dfixu.o(x$fpl$dfixu) refers (Special) to usenofp.o(x$fpl$usenofp) for __I$use$fp
    dfixu.o(x$fpl$dfixu) refers to dnaninf.o(x$fpl$dnaninf) for __fpl_dnaninf
    dfixu.o(x$fpl$dfixur) refers (Special) to usenofp.o(x$fpl$usenofp) for __I$use$fp
    dfixu.o(x$fpl$dfixur) refers to dnaninf.o(x$fpl$dnaninf) for __fpl_dnaninf
    dflt_clz.o(x$fpl$dfltu) refers (Special) to usenofp.o(x$fpl$usenofp) for __I$use$fp
    dflt_clz.o(x$fpl$dflt) refers (Special) to usenofp.o(x$fpl$usenofp) for __I$use$fp
    dflt_clz.o(x$fpl$dfltn) refers (Special) to usenofp.o(x$fpl$usenofp) for __I$use$fp
    dmul.o(x$fpl$dmul) refers (Special) to usenofp.o(x$fpl$usenofp) for __I$use$fp
    dmul.o(x$fpl$dmul) refers to dretinf.o(x$fpl$dretinf) for __fpl_dretinf
    dmul.o(x$fpl$dmul) refers to dnaninf.o(x$fpl$dnaninf) for __fpl_dnaninf
    __rtentry.o(.ARM.Collect$$rtentry$$00000000) refers (Special) to __rtentry2.o(.ARM.Collect$$rtentry$$0000000A) for __rt_entry_li
    __rtentry.o(.ARM.Collect$$rtentry$$00000000) refers (Special) to __rtentry2.o(.ARM.Collect$$rtentry$$0000000D) for __rt_entry_main
    __rtentry.o(.ARM.Collect$$rtentry$$00000000) refers (Special) to __rtentry2.o(.ARM.Collect$$rtentry$$0000000B) for __rt_entry_postli_1
    __rtentry.o(.ARM.Collect$$rtentry$$00000000) refers (Special) to __rtentry2.o(.ARM.Collect$$rtentry$$00000009) for __rt_entry_postsh_1
    __rtentry.o(.ARM.Collect$$rtentry$$00000000) refers (Special) to __rtentry2.o(.ARM.Collect$$rtentry$$00000002) for __rt_entry_presh_1
    __rtentry.o(.ARM.Collect$$rtentry$$00000000) refers (Special) to __rtentry4.o(.ARM.Collect$$rtentry$$00000004) for __rt_entry_sh
    rtexit.o(.ARM.Collect$$rtexit$$00000000) refers (Special) to rtexit2.o(.ARM.Collect$$rtexit$$00000004) for __rt_exit_exit
    rtexit.o(.ARM.Collect$$rtexit$$00000000) refers (Special) to rtexit2.o(.ARM.Collect$$rtexit$$00000003) for __rt_exit_ls
    rtexit.o(.ARM.Collect$$rtexit$$00000000) refers (Special) to rtexit2.o(.ARM.Collect$$rtexit$$00000002) for __rt_exit_prels_1
    rtexit.o(.ARM.exidx) refers (Special) to rtexit2.o(.ARM.Collect$$rtexit$$00000004) for __rt_exit_exit
    rtexit.o(.ARM.exidx) refers (Special) to rtexit2.o(.ARM.Collect$$rtexit$$00000003) for __rt_exit_ls
    rtexit.o(.ARM.exidx) refers (Special) to rtexit2.o(.ARM.Collect$$rtexit$$00000002) for __rt_exit_prels_1
    rtexit.o(.ARM.exidx) refers to rtexit.o(.ARM.Collect$$rtexit$$00000000) for .ARM.Collect$$rtexit$$00000000
    aeabi_ldiv0_sigfpe.o(.text) refers to rt_div0.o(.text) for __rt_div0
    dnaninf.o(x$fpl$dnaninf) refers (Special) to usenofp.o(x$fpl$usenofp) for __I$use$fp
    dretinf.o(x$fpl$dretinf) refers (Special) to usenofp.o(x$fpl$usenofp) for __I$use$fp
    __rtentry2.o(.ARM.Collect$$rtentry$$00000008) refers to boardinit2.o(.text) for _platform_post_stackheap_init
    __rtentry2.o(.ARM.Collect$$rtentry$$0000000A) refers to libinit.o(.ARM.Collect$$libinit$$00000000) for __rt_lib_init
    __rtentry2.o(.ARM.Collect$$rtentry$$0000000B) refers to rtx_conf_cm.o(.emb_text) for _platform_post_lib_init
    __rtentry2.o(.ARM.Collect$$rtentry$$0000000D) refers to exemplotiva.o(.text) for main
    __rtentry2.o(.ARM.Collect$$rtentry$$0000000D) refers to exit.o(.text) for exit
    __rtentry2.o(.ARM.exidx) refers to __rtentry2.o(.ARM.Collect$$rtentry$$00000001) for .ARM.Collect$$rtentry$$00000001
    __rtentry2.o(.ARM.exidx) refers to __rtentry2.o(.ARM.Collect$$rtentry$$00000008) for .ARM.Collect$$rtentry$$00000008
    __rtentry2.o(.ARM.exidx) refers to __rtentry2.o(.ARM.Collect$$rtentry$$0000000A) for .ARM.Collect$$rtentry$$0000000A
    __rtentry2.o(.ARM.exidx) refers to __rtentry2.o(.ARM.Collect$$rtentry$$0000000B) for .ARM.Collect$$rtentry$$0000000B
    __rtentry2.o(.ARM.exidx) refers to __rtentry2.o(.ARM.Collect$$rtentry$$0000000D) for .ARM.Collect$$rtentry$$0000000D
    __rtentry4.o(.ARM.Collect$$rtentry$$00000004) refers to sys_stackheap_outer.o(.text) for __user_setup_stackheap
    __rtentry4.o(.ARM.exidx) refers to __rtentry4.o(.ARM.Collect$$rtentry$$00000004) for .ARM.Collect$$rtentry$$00000004
    rtexit2.o(.ARM.Collect$$rtexit$$00000003) refers to libshutdown.o(.ARM.Collect$$libshutdown$$00000000) for __rt_lib_shutdown
    rtexit2.o(.ARM.Collect$$rtexit$$00000004) refers to sys_exit.o(.text) for _sys_exit
    rtexit2.o(.ARM.exidx) refers to rtexit2.o(.ARM.Collect$$rtexit$$00000001) for .ARM.Collect$$rtexit$$00000001
    rtexit2.o(.ARM.exidx) refers to rtexit2.o(.ARM.Collect$$rtexit$$00000003) for .ARM.Collect$$rtexit$$00000003
    rtexit2.o(.ARM.exidx) refers to rtexit2.o(.ARM.Collect$$rtexit$$00000004) for .ARM.Collect$$rtexit$$00000004
    rt_div0.o(.text) refers to defsig_fpe_outer.o(.text) for __rt_SIGFPE
    sys_exit.o(.text) refers (Special) to use_no_semi.o(.text) for __I$use$semihosting
    sys_exit.o(.text) refers (Special) to indicate_semi.o(.text) for __semihosting_library_function
    sys_stackheap_outer.o(.text) refers to libspace.o(.text) for __user_perproc_libspace
    sys_stackheap_outer.o(.text) refers to startup_tm4c129.o(.text) for __user_initial_stackheap
    defsig_fpe_outer.o(.text) refers to defsig_fpe_inner.o(.text) for __rt_SIGFPE_inner
    defsig_fpe_outer.o(.text) refers to defsig_exit.o(.text) for __sig_exit
    defsig_fpe_formal.o(.text) refers to rt_raise.o(.text) for __rt_raise
    libinit.o(.ARM.Collect$$libinit$$00000000) refers (Special) to libinit2.o(.ARM.Collect$$libinit$$0000002E) for __rt_lib_init_alloca_1
    libinit.o(.ARM.Collect$$libinit$$00000000) refers (Special) to libinit2.o(.ARM.Collect$$libinit$$0000002C) for __rt_lib_init_argv_1
    libinit.o(.ARM.Collect$$libinit$$00000000) refers (Special) to libinit2.o(.ARM.Collect$$libinit$$0000001B) for __rt_lib_init_atexit_1
    libinit.o(.ARM.Collect$$libinit$$00000000) refers (Special) to libinit2.o(.ARM.Collect$$libinit$$00000021) for __rt_lib_init_clock_1
    libinit.o(.ARM.Collect$$libinit$$00000000) refers (Special) to libinit2.o(.ARM.Collect$$libinit$$00000032) for __rt_lib_init_cpp_1
    libinit.o(.ARM.Collect$$libinit$$00000000) refers (Special) to libinit2.o(.ARM.Collect$$libinit$$00000030) for __rt_lib_init_exceptions_1
    libinit.o(.ARM.Collect$$libinit$$00000000) refers (Special) to libinit2.o(.ARM.Collect$$libinit$$00000001) for __rt_lib_init_fp_1
    libinit.o(.ARM.Collect$$libinit$$00000000) refers (Special) to libinit2.o(.ARM.Collect$$libinit$$0000001F) for __rt_lib_init_fp_trap_1
    libinit.o(.ARM.Collect$$libinit$$00000000) refers (Special) to libinit2.o(.ARM.Collect$$libinit$$00000023) for __rt_lib_init_getenv_1
    libinit.o(.ARM.Collect$$libinit$$00000000) refers (Special) to libinit2.o(.ARM.Collect$$libinit$$0000000A) for __rt_lib_init_heap_1
    libinit.o(.ARM.Collect$$libinit$$00000000) refers (Special) to libinit2.o(.ARM.Collect$$libinit$$00000011) for __rt_lib_init_lc_collate_1
    libinit.o(.ARM.Collect$$libinit$$00000000) refers (Special) to libinit2.o(.ARM.Collect$$libinit$$00000013) for __rt_lib_init_lc_ctype_1
    libinit.o(.ARM.Collect$$libinit$$00000000) refers (Special) to libinit2.o(.ARM.Collect$$libinit$$00000015) for __rt_lib_init_lc_monetary_1
    libinit.o(.ARM.Collect$$libinit$$00000000) refers (Special) to libinit2.o(.ARM.Collect$$libinit$$00000017) for __rt_lib_init_lc_numeric_1
    libinit.o(.ARM.Collect$$libinit$$00000000) refers (Special) to libinit2.o(.ARM.Collect$$libinit$$00000019) for __rt_lib_init_lc_time_1
    libinit.o(.ARM.Collect$$libinit$$00000000) refers (Special) to libinit2.o(.ARM.Collect$$libinit$$00000004) for __rt_lib_init_preinit_1
    libinit.o(.ARM.Collect$$libinit$$00000000) refers (Special) to libinit2.o(.ARM.Collect$$libinit$$0000000E) for __rt_lib_init_rand_1
    libinit.o(.ARM.Collect$$libinit$$00000000) refers (Special) to libinit2.o(.ARM.Collect$$libinit$$00000033) for __rt_lib_init_return
    libinit.o(.ARM.Collect$$libinit$$00000000) refers (Special) to libinit2.o(.ARM.Collect$$libinit$$0000001D) for __rt_lib_init_signal_1
    libinit.o(.ARM.Collect$$libinit$$00000000) refers (Special) to libinit2.o(.ARM.Collect$$libinit$$00000025) for __rt_lib_init_stdio_1
    libinit.o(.ARM.Collect$$libinit$$00000000) refers (Special) to libinit2.o(.ARM.Collect$$libinit$$0000000C) for __rt_lib_init_user_alloc_1
    libshutdown.o(.ARM.Collect$$libshutdown$$00000000) refers (Special) to libshutdown2.o(.ARM.Collect$$libshutdown$$00000002) for __rt_lib_shutdown_cpp_1
    libshutdown.o(.ARM.Collect$$libshutdown$$00000000) refers (Special) to libshutdown2.o(.ARM.Collect$$libshutdown$$00000007) for __rt_lib_shutdown_fp_trap_1
    libshutdown.o(.ARM.Collect$$libshutdown$$00000000) refers (Special) to libshutdown2.o(.ARM.Collect$$libshutdown$$0000000F) for __rt_lib_shutdown_heap_1
    libshutdown.o(.ARM.Collect$$libshutdown$$00000000) refers (Special) to libshutdown2.o(.ARM.Collect$$libshutdown$$00000010) for __rt_lib_shutdown_return
    libshutdown.o(.ARM.Collect$$libshutdown$$00000000) refers (Special) to libshutdown2.o(.ARM.Collect$$libshutdown$$0000000A) for __rt_lib_shutdown_signal_1
    libshutdown.o(.ARM.Collect$$libshutdown$$00000000) refers (Special) to libshutdown2.o(.ARM.Collect$$libshutdown$$00000004) for __rt_lib_shutdown_stdio_1
    libshutdown.o(.ARM.Collect$$libshutdown$$00000000) refers (Special) to libshutdown2.o(.ARM.Collect$$libshutdown$$0000000C) for __rt_lib_shutdown_user_alloc_1
    rt_raise.o(.text) refers to __raise.o(.text) for __raise
    rt_raise.o(.text) refers to sys_exit.o(.text) for _sys_exit
    defsig_exit.o(.text) refers to sys_exit.o(.text) for _sys_exit
    defsig_fpe_inner.o(.text) refers to defsig_general.o(.text) for __default_signal_display
    libinit2.o(.ARM.Collect$$libinit$$00000001) refers to fpinit.o(x$fpl$fpinit) for _fp_init
    libinit2.o(.ARM.Collect$$libinit$$00000010) refers to libinit2.o(.ARM.Collect$$libinit$$0000000F) for .ARM.Collect$$libinit$$0000000F
    libinit2.o(.ARM.Collect$$libinit$$00000012) refers to libinit2.o(.ARM.Collect$$libinit$$0000000F) for .ARM.Collect$$libinit$$0000000F
    libinit2.o(.ARM.Collect$$libinit$$00000014) refers to libinit2.o(.ARM.Collect$$libinit$$0000000F) for .ARM.Collect$$libinit$$0000000F
    libinit2.o(.ARM.Collect$$libinit$$00000016) refers to libinit2.o(.ARM.Collect$$libinit$$0000000F) for .ARM.Collect$$libinit$$0000000F
    libinit2.o(.ARM.Collect$$libinit$$00000018) refers to libinit2.o(.ARM.Collect$$libinit$$0000000F) for .ARM.Collect$$libinit$$0000000F
    libinit2.o(.ARM.Collect$$libinit$$00000026) refers to argv_veneer.o(.emb_text) for __ARM_argv_veneer
    libinit2.o(.ARM.Collect$$libinit$$00000027) refers to argv_veneer.o(.emb_text) for __ARM_argv_veneer
    __raise.o(.text) refers to defsig.o(CL$$defsig) for __default_signal_handler
    defsig_general.o(.text) refers to sys_wrch.o(.text) for _ttywrch
    argv_veneer.o(.emb_text) refers to no_argv.o(.text) for __ARM_get_argv
    sys_wrch.o(.text) refers (Special) to use_no_semi.o(.text) for __I$use$semihosting
    sys_wrch.o(.text) refers (Special) to indicate_semi.o(.text) for __semihosting_library_function
    defsig.o(CL$$defsig) refers to defsig_fpe_inner.o(.text) for __rt_SIGFPE_inner
    defsig.o(CL$$defsig) refers to defsig_rtmem_inner.o(.text) for __rt_SIGRTMEM_inner
    _get_argv_nomalloc.o(.text) refers (Special) to hrguard.o(.text) for __heap_region$guard
    _get_argv_nomalloc.o(.text) refers to defsig_rtmem_outer.o(.text) for __rt_SIGRTMEM
    _get_argv_nomalloc.o(.text) refers to sys_command.o(.text) for _sys_command_string
    sys_command.o(.text) refers (Special) to use_no_semi.o(.text) for __I$use$semihosting
    sys_command.o(.text) refers (Special) to indicate_semi.o(.text) for __semihosting_library_function
    defsig_abrt_inner.o(.text) refers to defsig_general.o(.text) for __default_signal_display
    defsig_rtred_inner.o(.text) refers to defsig_general.o(.text) for __default_signal_display
    defsig_rtmem_inner.o(.text) refers to defsig_general.o(.text) for __default_signal_display
    defsig_rtmem_outer.o(.text) refers to defsig_rtmem_inner.o(.text) for __rt_SIGRTMEM_inner
    defsig_rtmem_outer.o(.text) refers to defsig_exit.o(.text) for __sig_exit
    defsig_rtmem_formal.o(.text) refers to rt_raise.o(.text) for __rt_raise
    defsig_stak_inner.o(.text) refers to defsig_general.o(.text) for __default_signal_display
    defsig_pvfn_inner.o(.text) refers to defsig_general.o(.text) for __default_signal_display
    defsig_cppl_inner.o(.text) refers to defsig_general.o(.text) for __default_signal_display
    defsig_segv_inner.o(.text) refers to defsig_general.o(.text) for __default_signal_display
    defsig_other.o(.text) refers to defsig_general.o(.text) for __default_signal_display


==============================================================================

Removing Unused input sections from the image.

    Removing exemplotiva.o(.rev16_text), (4 bytes).
    Removing exemplotiva.o(.revsh_text), (4 bytes).
    Removing exemplotiva.o(.rrx_text), (6 bytes).
    Removing background.o(.constdata), (4 bytes).
    Removing background.o(.constdata), (4 bytes).
    Removing background.o(.constdata), (4 bytes).
    Removing inimigo.o(.constdata), (4 bytes).
    Removing inimigo.o(.constdata), (4 bytes).
    Removing inimigo.o(.constdata), (4 bytes).
    Removing boss.o(.constdata), (4 bytes).
    Removing boss.o(.constdata), (4 bytes).
    Removing boss.o(.constdata), (4 bytes).
    Removing point.o(.constdata), (4 bytes).
    Removing point.o(.constdata), (4 bytes).
    Removing point.o(.constdata), (4 bytes).
    Removing key.o(.constdata), (4 bytes).
    Removing key.o(.constdata), (4 bytes).
    Removing key.o(.constdata), (4 bytes).
    Removing background2.o(.constdata), (4 bytes).
    Removing background2.o(.constdata), (4 bytes).
    Removing background2.o(.constdata), (4 bytes).
    Removing cfaf128x128x16.o(.constdata), (2 bytes).
    Removing cfaf128x128x16.o(.constdata), (2 bytes).
    Removing cfaf128x128x16.o(.constdata), (2 bytes).
    Removing cfaf128x128x16.o(.constdata), (2 bytes).
    Removing cfaf128x128x16.o(.constdata), (2 bytes).
    Removing cfaf128x128x16.o(.constdata), (2 bytes).
    Removing cfaf128x128x16.o(.constdata), (2 bytes).
    Removing cfaf128x128x16.o(.constdata), (2 bytes).
    Removing cfaf128x128x16.o(.constdata), (2 bytes).
    Removing cfaf128x128x16.o(.constdata), (2 bytes).
    Removing cfaf128x128x16.o(.constdata), (2 bytes).
    Removing cfaf128x128x16.o(.constdata), (2 bytes).
    Removing cfaf128x128x16.o(.constdata), (40 bytes).
    Removing led.o(.rev16_text), (4 bytes).
    Removing led.o(.revsh_text), (4 bytes).
    Removing led.o(.rrx_text), (6 bytes).
    Removing eddiev3.o(.constdata), (4 bytes).
    Removing eddiev3.o(.constdata), (4 bytes).
    Removing eddiev3.o(.constdata), (4 bytes).
    Removing rtx_conf_cm.o(.constdata), (4 bytes).
    Removing rtx_conf_cm.o(.constdata), (2 bytes).
    Removing rtx_conf_cm.o(.constdata), (2 bytes).
    Removing rtx_conf_cm.o(.data), (4 bytes).
    Removing system_tm4c129.o(.rev16_text), (4 bytes).
    Removing system_tm4c129.o(.revsh_text), (4 bytes).
    Removing system_tm4c129.o(.rrx_text), (6 bytes).
    Removing adc.o(i.ADCBusy), (8 bytes).
    Removing adc.o(i.ADCClockConfigGet), (32 bytes).
    Removing adc.o(i.ADCClockConfigSet), (28 bytes).
    Removing adc.o(i.ADCComparatorConfigure), (10 bytes).
    Removing adc.o(i.ADCComparatorIntClear), (4 bytes).
    Removing adc.o(i.ADCComparatorIntDisable), (18 bytes).
    Removing adc.o(i.ADCComparatorIntEnable), (16 bytes).
    Removing adc.o(i.ADCComparatorIntStatus), (4 bytes).
    Removing adc.o(i.ADCComparatorRegionSet), (14 bytes).
    Removing adc.o(i.ADCComparatorReset), (40 bytes).
    Removing adc.o(i.ADCHardwareOversampleConfigure), (18 bytes).
    Removing adc.o(i.ADCIntClearEx), (4 bytes).
    Removing adc.o(i.ADCIntDisable), (16 bytes).
    Removing adc.o(i.ADCIntDisableEx), (10 bytes).
    Removing adc.o(i.ADCIntEnable), (16 bytes).
    Removing adc.o(i.ADCIntEnableEx), (8 bytes).
    Removing adc.o(i.ADCIntRegister), (104 bytes).
    Removing adc.o(i.ADCIntStatusEx), (22 bytes).
    Removing adc.o(i.ADCIntUnregister), (108 bytes).
    Removing adc.o(i.ADCPhaseDelayGet), (4 bytes).
    Removing adc.o(i.ADCPhaseDelaySet), (4 bytes).
    Removing adc.o(i.ADCReferenceGet), (8 bytes).
    Removing adc.o(i.ADCReferenceSet), (12 bytes).
    Removing adc.o(i.ADCSequenceDMADisable), (18 bytes).
    Removing adc.o(i.ADCSequenceDMAEnable), (16 bytes).
    Removing adc.o(i.ADCSequenceDisable), (16 bytes).
    Removing adc.o(i.ADCSequenceOverflow), (12 bytes).
    Removing adc.o(i.ADCSequenceOverflowClear), (10 bytes).
    Removing adc.o(i.ADCSequenceUnderflow), (12 bytes).
    Removing adc.o(i.ADCSequenceUnderflowClear), (10 bytes).
    Removing adc.o(i.ADCSoftwareOversampleConfigure), (44 bytes).
    Removing adc.o(i.ADCSoftwareOversampleDataGet), (88 bytes).
    Removing adc.o(i.ADCSoftwareOversampleStepConfigure), (168 bytes).
    Removing adc.o(.data), (6 bytes).
    Removing gpio.o(i.GPIOADCTriggerDisable), (14 bytes).
    Removing gpio.o(i.GPIOADCTriggerEnable), (12 bytes).
    Removing gpio.o(i.GPIODMATriggerDisable), (14 bytes).
    Removing gpio.o(i.GPIODMATriggerEnable), (12 bytes).
    Removing gpio.o(i.GPIODirModeGet), (34 bytes).
    Removing gpio.o(i.GPIOIntClear), (6 bytes).
    Removing gpio.o(i.GPIOIntDisable), (14 bytes).
    Removing gpio.o(i.GPIOIntEnable), (12 bytes).
    Removing gpio.o(i.GPIOIntRegister), (26 bytes).
    Removing gpio.o(i.GPIOIntRegisterPin), (30 bytes).
    Removing gpio.o(i.GPIOIntStatus), (14 bytes).
    Removing gpio.o(i.GPIOIntTypeGet), (68 bytes).
    Removing gpio.o(i.GPIOIntTypeSet), (80 bytes).
    Removing gpio.o(i.GPIOIntUnregister), (22 bytes).
    Removing gpio.o(i.GPIOIntUnregisterPin), (26 bytes).
    Removing gpio.o(i.GPIOPadConfigGet), (204 bytes).
    Removing gpio.o(i.GPIOPinTypeCAN), (28 bytes).
    Removing gpio.o(i.GPIOPinTypeComparator), (28 bytes).
    Removing gpio.o(i.GPIOPinTypeComparatorOutput), (28 bytes).
    Removing gpio.o(i.GPIOPinTypeDIVSCLK), (28 bytes).
    Removing gpio.o(i.GPIOPinTypeEPI), (28 bytes).
    Removing gpio.o(i.GPIOPinTypeEthernetLED), (28 bytes).
    Removing gpio.o(i.GPIOPinTypeEthernetMII), (28 bytes).
    Removing gpio.o(i.GPIOPinTypeGPIOOutput), (28 bytes).
    Removing gpio.o(i.GPIOPinTypeGPIOOutputOD), (28 bytes).
    Removing gpio.o(i.GPIOPinTypeHibernateRTCCLK), (28 bytes).
    Removing gpio.o(i.GPIOPinTypeLCD), (28 bytes).
    Removing gpio.o(i.GPIOPinTypeOneWire), (28 bytes).
    Removing gpio.o(i.GPIOPinTypeQEI), (28 bytes).
    Removing gpio.o(i.GPIOPinTypeSSI), (28 bytes).
    Removing gpio.o(i.GPIOPinTypeTrace), (28 bytes).
    Removing gpio.o(i.GPIOPinTypeUART), (28 bytes).
    Removing gpio.o(i.GPIOPinTypeUSBAnalog), (28 bytes).
    Removing gpio.o(i.GPIOPinTypeUSBDigital), (28 bytes).
    Removing gpio.o(i.GPIOPinTypeWakeHigh), (30 bytes).
    Removing gpio.o(i.GPIOPinTypeWakeLow), (30 bytes).
    Removing gpio.o(i.GPIOPinWakeStatus), (6 bytes).
    Removing gpio.o(i.GPIOPinWrite), (6 bytes).
    Removing gpio.o(i._GPIOIntNumberGet), (80 bytes).
    Removing i2c.o(i.I2CFIFODataGet), (16 bytes).
    Removing i2c.o(i.I2CFIFODataGetNonBlocking), (24 bytes).
    Removing i2c.o(i.I2CFIFODataPut), (16 bytes).
    Removing i2c.o(i.I2CFIFODataPutNonBlocking), (20 bytes).
    Removing i2c.o(i.I2CFIFOStatus), (6 bytes).
    Removing i2c.o(i.I2CIntUnregister), (96 bytes).
    Removing i2c.o(i.I2CLoopbackEnable), (10 bytes).
    Removing i2c.o(i.I2CMasterBurstCountGet), (4 bytes).
    Removing i2c.o(i.I2CMasterDisable), (10 bytes).
    Removing i2c.o(i.I2CMasterIntDisable), (6 bytes).
    Removing i2c.o(i.I2CMasterIntDisableEx), (10 bytes).
    Removing i2c.o(i.I2CMasterIntEnable), (6 bytes).
    Removing i2c.o(i.I2CMasterIntStatus), (24 bytes).
    Removing i2c.o(i.I2CMasterIntStatusEx), (10 bytes).
    Removing i2c.o(i.I2CMasterLineStateGet), (4 bytes).
    Removing i2c.o(i.I2CRxFIFOConfigSet), (22 bytes).
    Removing i2c.o(i.I2CRxFIFOFlush), (14 bytes).
    Removing i2c.o(i.I2CSlaveACKOverride), (22 bytes).
    Removing i2c.o(i.I2CSlaveACKValueSet), (22 bytes).
    Removing i2c.o(i.I2CSlaveAddressSet), (24 bytes).
    Removing i2c.o(i.I2CSlaveDataGet), (6 bytes).
    Removing i2c.o(i.I2CSlaveDataPut), (6 bytes).
    Removing i2c.o(i.I2CSlaveDisable), (16 bytes).
    Removing i2c.o(i.I2CSlaveEnable), (16 bytes).
    Removing i2c.o(i.I2CSlaveFIFODisable), (8 bytes).
    Removing i2c.o(i.I2CSlaveFIFOEnable), (10 bytes).
    Removing i2c.o(i.I2CSlaveInit), (20 bytes).
    Removing i2c.o(i.I2CSlaveIntClear), (8 bytes).
    Removing i2c.o(i.I2CSlaveIntClearEx), (6 bytes).
    Removing i2c.o(i.I2CSlaveIntDisable), (14 bytes).
    Removing i2c.o(i.I2CSlaveIntDisableEx), (14 bytes).
    Removing i2c.o(i.I2CSlaveIntEnable), (14 bytes).
    Removing i2c.o(i.I2CSlaveIntEnableEx), (12 bytes).
    Removing i2c.o(i.I2CSlaveIntStatus), (28 bytes).
    Removing i2c.o(i.I2CSlaveIntStatusEx), (14 bytes).
    Removing i2c.o(i.I2CSlaveStatus), (6 bytes).
    Removing i2c.o(i.I2CTxFIFOConfigSet), (24 bytes).
    Removing i2c.o(i.I2CTxFIFOFlush), (14 bytes).
    Removing interrupt.o(i.IntDisable), (100 bytes).
    Removing interrupt.o(i.IntIsEnabled), (96 bytes).
    Removing interrupt.o(i.IntMasterDisable), (14 bytes).
    Removing interrupt.o(i.IntMasterEnable), (14 bytes).
    Removing interrupt.o(i.IntPendClear), (68 bytes).
    Removing interrupt.o(i.IntPendSet), (84 bytes).
    Removing interrupt.o(i.IntPriorityGet), (28 bytes).
    Removing interrupt.o(i.IntPriorityGroupingGet), (36 bytes).
    Removing interrupt.o(i.IntPriorityGroupingSet), (28 bytes).
    Removing interrupt.o(i.IntPriorityMaskGet), (4 bytes).
    Removing interrupt.o(i.IntPriorityMaskSet), (4 bytes).
    Removing interrupt.o(i.IntPrioritySet), (40 bytes).
    Removing interrupt.o(i.IntTrigger), (12 bytes).
    Removing interrupt.o(i.IntUnregister), (20 bytes).
    Removing interrupt.o(i._IntDefaultHandler), (2 bytes).
    Removing pwm.o(i.PWMClockGet), (26 bytes).
    Removing pwm.o(i.PWMDeadBandDisable), (12 bytes).
    Removing pwm.o(i.PWMDeadBandEnable), (16 bytes).
    Removing pwm.o(i.PWMFaultIntClear), (8 bytes).
    Removing pwm.o(i.PWMFaultIntClearExt), (4 bytes).
    Removing pwm.o(i.PWMFaultIntRegister), (96 bytes).
    Removing pwm.o(i.PWMFaultIntUnregister), (88 bytes).
    Removing pwm.o(i.PWMGenFaultClear), (18 bytes).
    Removing pwm.o(i.PWMGenFaultConfigure), (18 bytes).
    Removing pwm.o(i.PWMGenFaultStatus), (18 bytes).
    Removing pwm.o(i.PWMGenFaultTriggerGet), (12 bytes).
    Removing pwm.o(i.PWMGenFaultTriggerSet), (12 bytes).
    Removing pwm.o(i.PWMGenIntClear), (6 bytes).
    Removing pwm.o(i.PWMGenIntRegister), (26 bytes).
    Removing pwm.o(i.PWMGenIntStatus), (12 bytes).
    Removing pwm.o(i.PWMGenIntTrigDisable), (10 bytes).
    Removing pwm.o(i.PWMGenIntTrigEnable), (10 bytes).
    Removing pwm.o(i.PWMGenIntUnregister), (22 bytes).
    Removing pwm.o(i.PWMIntDisable), (10 bytes).
    Removing pwm.o(i.PWMIntEnable), (8 bytes).
    Removing pwm.o(i.PWMIntStatus), (10 bytes).
    Removing pwm.o(i.PWMOutputFault), (16 bytes).
    Removing pwm.o(i.PWMOutputFaultLevel), (16 bytes).
    Removing pwm.o(i.PWMOutputUpdateMode), (62 bytes).
    Removing pwm.o(i.PWMPulseWidthGet), (32 bytes).
    Removing pwm.o(i.PWMSyncTimeBase), (4 bytes).
    Removing pwm.o(i.PWMSyncUpdate), (4 bytes).
    Removing pwm.o(i._PWMGenIntNumberGet), (224 bytes).
    Removing sysctl.o(i.SysCtlAltClkConfig), (12 bytes).
    Removing sysctl.o(i.SysCtlClockGet), (340 bytes).
    Removing sysctl.o(i.SysCtlClockOutConfig), (20 bytes).
    Removing sysctl.o(i.SysCtlClockSet), (288 bytes).
    Removing sysctl.o(i.SysCtlDeepSleep), (32 bytes).
    Removing sysctl.o(i.SysCtlDeepSleepClockConfigSet), (112 bytes).
    Removing sysctl.o(i.SysCtlDeepSleepClockSet), (12 bytes).
    Removing sysctl.o(i.SysCtlDeepSleepPowerSet), (12 bytes).
    Removing sysctl.o(i.SysCtlFlashSectorSizeGet), (56 bytes).
    Removing sysctl.o(i.SysCtlFlashSizeGet), (56 bytes).
    Removing sysctl.o(i.SysCtlGPIOAHBDisable), (28 bytes).
    Removing sysctl.o(i.SysCtlGPIOAHBEnable), (24 bytes).
    Removing sysctl.o(i.SysCtlIntClear), (12 bytes).
    Removing sysctl.o(i.SysCtlIntDisable), (16 bytes).
    Removing sysctl.o(i.SysCtlIntEnable), (16 bytes).
    Removing sysctl.o(i.SysCtlIntRegister), (20 bytes).
    Removing sysctl.o(i.SysCtlIntStatus), (16 bytes).
    Removing sysctl.o(i.SysCtlIntUnregister), (18 bytes).
    Removing sysctl.o(i.SysCtlLDODeepSleepGet), (12 bytes).
    Removing sysctl.o(i.SysCtlLDODeepSleepSet), (12 bytes).
    Removing sysctl.o(i.SysCtlLDOSleepGet), (12 bytes).
    Removing sysctl.o(i.SysCtlLDOSleepSet), (12 bytes).
    Removing sysctl.o(i.SysCtlMOSCConfigSet), (12 bytes).
    Removing sysctl.o(i.SysCtlNMIClear), (16 bytes).
    Removing sysctl.o(i.SysCtlNMIStatus), (12 bytes).
    Removing sysctl.o(i.SysCtlPIOSCCalibrate), (76 bytes).
    Removing sysctl.o(i.SysCtlPWMClockGet), (24 bytes).
    Removing sysctl.o(i.SysCtlPWMClockSet), (20 bytes).
    Removing sysctl.o(i.SysCtlPeripheralClockGating), (68 bytes).
    Removing sysctl.o(i.SysCtlPeripheralDeepSleepDisable), (40 bytes).
    Removing sysctl.o(i.SysCtlPeripheralDeepSleepEnable), (40 bytes).
    Removing sysctl.o(i.SysCtlPeripheralDisable), (40 bytes).
    Removing sysctl.o(i.SysCtlPeripheralPowerOff), (40 bytes).
    Removing sysctl.o(i.SysCtlPeripheralPowerOn), (40 bytes).
    Removing sysctl.o(i.SysCtlPeripheralPresent), (44 bytes).
    Removing sysctl.o(i.SysCtlPeripheralSleepDisable), (40 bytes).
    Removing sysctl.o(i.SysCtlPeripheralSleepEnable), (40 bytes).
    Removing sysctl.o(i.SysCtlReset), (16 bytes).
    Removing sysctl.o(i.SysCtlResetBehaviorGet), (12 bytes).
    Removing sysctl.o(i.SysCtlResetBehaviorSet), (12 bytes).
    Removing sysctl.o(i.SysCtlResetCauseClear), (16 bytes).
    Removing sysctl.o(i.SysCtlResetCauseGet), (12 bytes).
    Removing sysctl.o(i.SysCtlSRAMSizeGet), (16 bytes).
    Removing sysctl.o(i.SysCtlSleep), (4 bytes).
    Removing sysctl.o(i.SysCtlSleepPowerSet), (12 bytes).
    Removing sysctl.o(i.SysCtlUSBPLLDisable), (16 bytes).
    Removing sysctl.o(i.SysCtlUSBPLLEnable), (16 bytes).
    Removing sysctl.o(i.SysCtlVCOGet), (120 bytes).
    Removing sysctl.o(i.SysCtlVoltageEventClear), (16 bytes).
    Removing sysctl.o(i.SysCtlVoltageEventConfig), (12 bytes).
    Removing sysctl.o(i.SysCtlVoltageEventStatus), (12 bytes).
    Removing timer.o(i.TimerADCEventGet), (4 bytes).
    Removing timer.o(i.TimerADCEventSet), (4 bytes).
    Removing timer.o(i.TimerClockSourceGet), (6 bytes).
    Removing timer.o(i.TimerControlEvent), (18 bytes).
    Removing timer.o(i.TimerControlStall), (22 bytes).
    Removing timer.o(i.TimerControlTrigger), (80 bytes).
    Removing timer.o(i.TimerControlWaitOnTrigger), (48 bytes).
    Removing timer.o(i.TimerDMAEventGet), (4 bytes).
    Removing timer.o(i.TimerDMAEventSet), (4 bytes).
    Removing timer.o(i.TimerDisable), (16 bytes).
    Removing timer.o(i.TimerIntClear), (4 bytes).
    Removing timer.o(i.TimerIntDisable), (10 bytes).
    Removing timer.o(i.TimerIntEnable), (8 bytes).
    Removing timer.o(i.TimerIntRegister), (104 bytes).
    Removing timer.o(i.TimerIntStatus), (10 bytes).
    Removing timer.o(i.TimerIntUnregister), (104 bytes).
    Removing timer.o(i.TimerLoadGet), (10 bytes).
    Removing timer.o(i.TimerLoadGet64), (14 bytes).
    Removing timer.o(i.TimerLoadSet64), (6 bytes).
    Removing timer.o(i.TimerMatchGet), (10 bytes).
    Removing timer.o(i.TimerMatchGet64), (14 bytes).
    Removing timer.o(i.TimerMatchSet64), (6 bytes).
    Removing timer.o(i.TimerPrescaleGet), (10 bytes).
    Removing timer.o(i.TimerPrescaleMatchGet), (10 bytes).
    Removing timer.o(i.TimerPrescaleMatchSet), (18 bytes).
    Removing timer.o(i.TimerRTCDisable), (10 bytes).
    Removing timer.o(i.TimerRTCEnable), (10 bytes).
    Removing timer.o(i.TimerSynchronize), (4 bytes).
    Removing timer.o(i.TimerValueGet), (10 bytes).
    Removing timer.o(i.TimerValueGet64), (14 bytes).
    Removing timer.o(.constdata), (160 bytes).
    Removing rt_cmsis.o(.rev16_text), (4 bytes).
    Removing rt_cmsis.o(.revsh_text), (4 bytes).
    Removing rt_cmsis.o(.rrx_text), (6 bytes).
    Removing rt_cmsis.o(i.isrSemaphoreRelease), (40 bytes).
    Removing rt_cmsis.o(i.isrSignalSet), (36 bytes).
    Removing rt_cmsis.o(i.osKernelRunning), (36 bytes).
    Removing rt_cmsis.o(i.osKernelSysTick), (24 bytes).
    Removing rt_cmsis.o(i.osMailAlloc), (28 bytes).
    Removing rt_cmsis.o(i.osMailCAlloc), (48 bytes).
    Removing rt_cmsis.o(i.osMailCreate), (44 bytes).
    Removing rt_cmsis.o(i.osMailFree), (28 bytes).
    Removing rt_cmsis.o(i.osMailGet), (22 bytes).
    Removing rt_cmsis.o(i.osMailPut), (20 bytes).
    Removing rt_cmsis.o(i.osMessageCreate), (44 bytes).
    Removing rt_cmsis.o(i.osMessagePut), (24 bytes).
    Removing rt_cmsis.o(i.osMutexDelete), (24 bytes).
    Removing rt_cmsis.o(i.osMutexRelease), (24 bytes).
    Removing rt_cmsis.o(i.osMutexWait), (24 bytes).
    Removing rt_cmsis.o(i.osPoolAlloc), (32 bytes).
    Removing rt_cmsis.o(i.osPoolCAlloc), (52 bytes).
    Removing rt_cmsis.o(i.osPoolCreate), (44 bytes).
    Removing rt_cmsis.o(i.osPoolFree), (32 bytes).
    Removing rt_cmsis.o(i.osSemaphoreCreate), (44 bytes).
    Removing rt_cmsis.o(i.osSemaphoreDelete), (24 bytes).
    Removing rt_cmsis.o(i.osSemaphoreRelease), (24 bytes).
    Removing rt_cmsis.o(i.osSemaphoreWait), (24 bytes).
    Removing rt_cmsis.o(i.osSignalClear), (24 bytes).
    Removing rt_cmsis.o(i.osSignalSet), (24 bytes).
    Removing rt_cmsis.o(i.osSignalWait), (24 bytes).
    Removing rt_cmsis.o(i.osThreadGetId), (24 bytes).
    Removing rt_cmsis.o(i.osThreadGetPriority), (24 bytes).
    Removing rt_cmsis.o(i.osThreadSetPriority), (24 bytes).
    Removing rt_cmsis.o(i.osThreadTerminate), (24 bytes).
    Removing rt_cmsis.o(i.osThreadYield), (24 bytes).
    Removing rt_cmsis.o(i.osTimerDelete), (24 bytes).
    Removing rt_cmsis.o(i.osWait), (4 bytes).
    Removing rt_cmsis.o(i.os_resume), (12 bytes).
    Removing rt_cmsis.o(i.os_suspend), (12 bytes).
    Removing rt_cmsis.o(i.rt_clr_box), (24 bytes).
    Removing rt_cmsis.o(i.svcKernelRunning), (12 bytes).
    Removing rt_cmsis.o(i.svcKernelSysTick), (56 bytes).
    Removing rt_cmsis.o(i.svcMailCreate), (66 bytes).
    Removing rt_cmsis.o(i.svcMessagePut), (54 bytes).
    Removing rt_cmsis.o(i.svcMutexDelete), (26 bytes).
    Removing rt_cmsis.o(i.svcMutexRelease), (34 bytes).
    Removing rt_cmsis.o(i.svcMutexWait), (58 bytes).
    Removing rt_cmsis.o(i.svcPoolCreate), (40 bytes).
    Removing rt_cmsis.o(i.svcSemaphoreCreate), (36 bytes).
    Removing rt_cmsis.o(i.svcSemaphoreDelete), (26 bytes).
    Removing rt_cmsis.o(i.svcSemaphoreRelease), (40 bytes).
    Removing rt_cmsis.o(i.svcSemaphoreWait), (50 bytes).
    Removing rt_cmsis.o(i.svcSignalClear), (36 bytes).
    Removing rt_cmsis.o(i.svcSignalSet), (36 bytes).
    Removing rt_cmsis.o(i.svcSignalWait), (84 bytes).
    Removing rt_cmsis.o(i.svcThreadGetPriority), (18 bytes).
    Removing rt_cmsis.o(i.svcThreadSetPriority), (46 bytes).
    Removing rt_cmsis.o(i.svcThreadYield), (10 bytes).
    Removing rt_cmsis.o(i.svcTimerDelete), (40 bytes).
    Removing rt_cmsis.o(i.sysMailAlloc), (88 bytes).
    Removing rt_cmsis.o(i.sysMailFree), (96 bytes).
    Removing rt_cmsis.o(i.sysPoolAlloc), (10 bytes).
    Removing rt_cmsis.o(i.sysPoolFree), (20 bytes).
    Removing rt_cmsis.o(i.sysUserTimerUpdate), (48 bytes).
    Removing rt_cmsis.o(i.sysUserTimerWakeupTime), (20 bytes).
    Removing rt_task.o(i.rt_tsk_pass), (48 bytes).
    Removing rt_mutex.o(i.rt_mut_delete), (176 bytes).
    Removing cpu.o(.emb_text), (38 bytes).
    Removing line.o(i.GrLineDraw), (638 bytes).
    Removing line.o(i.GrLineDrawV), (76 bytes).
    Removing rt_system.o(.emb_text), (0 bytes).
    Removing rt_system.o(i.os_tick_ovf), (16 bytes).
    Removing rt_system.o(i.os_tick_val), (20 bytes).
    Removing rt_system.o(i.rt_resume), (136 bytes).
    Removing rt_system.o(i.rt_suspend), (36 bytes).
    Removing rt_system.o(i.rt_tsk_lock), (80 bytes).
    Removing rt_system.o(i.rt_tsk_unlock), (80 bytes).
    Removing rt_event.o(i.isr_evt_set), (40 bytes).
    Removing rt_event.o(i.rt_evt_clr), (28 bytes).
    Removing rt_event.o(i.rt_evt_get), (12 bytes).
    Removing rt_event.o(i.rt_evt_set), (92 bytes).
    Removing rt_event.o(i.rt_evt_wait), (60 bytes).
    Removing rt_list.o(i.rt_get_same_rdy_prio), (36 bytes).
    Removing rt_mailbox.o(i.rt_mbx_send), (152 bytes).
    Removing rt_semaphore.o(i.isr_sem_send), (16 bytes).
    Removing rt_semaphore.o(i.rt_sem_delete), (92 bytes).
    Removing rt_semaphore.o(i.rt_sem_init), (12 bytes).
    Removing rt_semaphore.o(i.rt_sem_send), (42 bytes).
    Removing rt_semaphore.o(i.rt_sem_wait), (64 bytes).
    Removing rt_time.o(i.rt_itv_set), (24 bytes).
    Removing rt_time.o(i.rt_itv_wait), (40 bytes).
    Removing rt_time.o(i.rt_time_get), (12 bytes).
    Removing rt_membox.o(i._calloc_box), (30 bytes).

375 unused section(s) (total 11210 bytes) removed from the image.

==============================================================================

Image Symbol Table

    Local Symbols

    Symbol Name                              Value     Ov Type        Size  Object(Section)

    RESET                                    0x00000000   Section      512  startup_tm4c129.o(RESET)
    ../clib/angel/boardlib.s                 0x00000000   Number         0  boardinit1.o ABSOLUTE
    ../clib/angel/boardlib.s                 0x00000000   Number         0  boardshut.o ABSOLUTE
    ../clib/angel/boardlib.s                 0x00000000   Number         0  boardinit2.o ABSOLUTE
    ../clib/angel/dczerorl.s                 0x00000000   Number         0  __dczerorl.o ABSOLUTE
    ../clib/angel/handlers.s                 0x00000000   Number         0  __scatter_zi.o ABSOLUTE
    ../clib/angel/kernel.s                   0x00000000   Number         0  __rtentry4.o ABSOLUTE
    ../clib/angel/kernel.s                   0x00000000   Number         0  __rtentry2.o ABSOLUTE
    ../clib/angel/kernel.s                   0x00000000   Number         0  rtexit.o ABSOLUTE
    ../clib/angel/kernel.s                   0x00000000   Number         0  __rtentry.o ABSOLUTE
    ../clib/angel/kernel.s                   0x00000000   Number         0  rtexit2.o ABSOLUTE
    ../clib/angel/rt.s                       0x00000000   Number         0  aeabi_ldiv0.o ABSOLUTE
    ../clib/angel/rt.s                       0x00000000   Number         0  aeabi_ldiv0_sigfpe.o ABSOLUTE
    ../clib/angel/rt.s                       0x00000000   Number         0  rt_raise.o ABSOLUTE
    ../clib/angel/rt.s                       0x00000000   Number         0  rt_div0.o ABSOLUTE
    ../clib/angel/scatter.s                  0x00000000   Number         0  __scatter.o ABSOLUTE
    ../clib/angel/startup.s                  0x00000000   Number         0  __main.o ABSOLUTE
    ../clib/angel/sys.s                      0x00000000   Number         0  use_no_semi.o ABSOLUTE
    ../clib/angel/sys.s                      0x00000000   Number         0  sys_stackheap_outer.o ABSOLUTE
    ../clib/angel/sys.s                      0x00000000   Number         0  libspace.o ABSOLUTE
    ../clib/angel/sys.s                      0x00000000   Number         0  indicate_semi.o ABSOLUTE
    ../clib/angel/sysapp.c                   0x00000000   Number         0  sys_command.o ABSOLUTE
    ../clib/angel/sysapp.c                   0x00000000   Number         0  sys_wrch.o ABSOLUTE
    ../clib/angel/sysapp.c                   0x00000000   Number         0  sys_exit.o ABSOLUTE
    ../clib/armsys.c                         0x00000000   Number         0  argv_veneer.o ABSOLUTE
    ../clib/armsys.c                         0x00000000   Number         0  argv_veneer.o ABSOLUTE
    ../clib/armsys.c                         0x00000000   Number         0  _get_argv_nomalloc.o ABSOLUTE
    ../clib/armsys.c                         0x00000000   Number         0  no_argv.o ABSOLUTE
    ../clib/heapalloc.c                      0x00000000   Number         0  hrguard.o ABSOLUTE
    ../clib/heapaux.c                        0x00000000   Number         0  heapauxi.o ABSOLUTE
    ../clib/libinit.s                        0x00000000   Number         0  libinit2.o ABSOLUTE
    ../clib/libinit.s                        0x00000000   Number         0  libinit.o ABSOLUTE
    ../clib/libinit.s                        0x00000000   Number         0  libshutdown.o ABSOLUTE
    ../clib/libinit.s                        0x00000000   Number         0  libshutdown2.o ABSOLUTE
    ../clib/longlong.s                       0x00000000   Number         0  llsdiv.o ABSOLUTE
    ../clib/longlong.s                       0x00000000   Number         0  lludivv7m.o ABSOLUTE
    ../clib/signal.c                         0x00000000   Number         0  defsig_general.o ABSOLUTE
    ../clib/signal.c                         0x00000000   Number         0  defsig_fpe_outer.o ABSOLUTE
    ../clib/signal.c                         0x00000000   Number         0  defsig_fpe_inner.o ABSOLUTE
    ../clib/signal.c                         0x00000000   Number         0  defsig_rtmem_inner.o ABSOLUTE
    ../clib/signal.c                         0x00000000   Number         0  defsig_rtred_inner.o ABSOLUTE
    ../clib/signal.c                         0x00000000   Number         0  defsig_rtmem_outer.o ABSOLUTE
    ../clib/signal.c                         0x00000000   Number         0  defsig_rtmem_formal.o ABSOLUTE
    ../clib/signal.c                         0x00000000   Number         0  defsig_stak_inner.o ABSOLUTE
    ../clib/signal.c                         0x00000000   Number         0  defsig_pvfn_inner.o ABSOLUTE
    ../clib/signal.c                         0x00000000   Number         0  defsig_cppl_inner.o ABSOLUTE
    ../clib/signal.c                         0x00000000   Number         0  defsig_abrt_inner.o ABSOLUTE
    ../clib/signal.c                         0x00000000   Number         0  defsig_segv_inner.o ABSOLUTE
    ../clib/signal.c                         0x00000000   Number         0  defsig_other.o ABSOLUTE
    ../clib/signal.c                         0x00000000   Number         0  defsig_exit.o ABSOLUTE
    ../clib/signal.c                         0x00000000   Number         0  defsig_fpe_formal.o ABSOLUTE
    ../clib/signal.c                         0x00000000   Number         0  __raise.o ABSOLUTE
    ../clib/signal.s                         0x00000000   Number         0  defsig.o ABSOLUTE
    ../clib/stdlib.c                         0x00000000   Number         0  exit.o ABSOLUTE
    ../fplib/daddsub.s                       0x00000000   Number         0  daddsub_clz.o ABSOLUTE
    ../fplib/dfixu.s                         0x00000000   Number         0  dfixu.o ABSOLUTE
    ../fplib/dflt.s                          0x00000000   Number         0  dflt_clz.o ABSOLUTE
    ../fplib/dmul.s                          0x00000000   Number         0  dmul.o ABSOLUTE
    ../fplib/dnaninf.s                       0x00000000   Number         0  dnaninf.o ABSOLUTE
    ../fplib/dretinf.s                       0x00000000   Number         0  dretinf.o ABSOLUTE
    ../fplib/fpinit.s                        0x00000000   Number         0  fpinit.o ABSOLUTE
    ../fplib/usenofp.s                       0x00000000   Number         0  usenofp.o ABSOLUTE
    ..\HAL_CM.c                              0x00000000   Number         0  hal_cm.o ABSOLUTE
    ..\\rt_CMSIS.c                           0x00000000   Number         0  rt_cmsis.o ABSOLUTE
    ..\\rt_System.c                          0x00000000   Number         0  rt_system.o ABSOLUTE
    ..\rt_CMSIS.c                            0x00000000   Number         0  rt_cmsis.o ABSOLUTE
    ..\rt_Event.c                            0x00000000   Number         0  rt_event.o ABSOLUTE
    ..\rt_List.c                             0x00000000   Number         0  rt_list.o ABSOLUTE
    ..\rt_Mailbox.c                          0x00000000   Number         0  rt_mailbox.o ABSOLUTE
    ..\rt_MemBox.c                           0x00000000   Number         0  rt_membox.o ABSOLUTE
    ..\rt_Memory.c                           0x00000000   Number         0  rt_memory.o ABSOLUTE
    ..\rt_Mutex.c                            0x00000000   Number         0  rt_mutex.o ABSOLUTE
    ..\rt_Robin.c                            0x00000000   Number         0  rt_robin.o ABSOLUTE
    ..\rt_Semaphore.c                        0x00000000   Number         0  rt_semaphore.o ABSOLUTE
    ..\rt_System.c                           0x00000000   Number         0  rt_system.o ABSOLUTE
    ..\rt_Task.c                             0x00000000   Number         0  rt_task.o ABSOLUTE
    ..\rt_Time.c                             0x00000000   Number         0  rt_time.o ABSOLUTE
    EddieV3.c                                0x00000000   Number         0  eddiev3.o ABSOLUTE
    HAL_CM4.c                                0x00000000   Number         0  hal_cm4.o ABSOLUTE
    HAL_CM4.c                                0x00000000   Number         0  hal_cm4.o ABSOLUTE
    RTE\CMSIS\RTX_Conf_CM.c                  0x00000000   Number         0  rtx_conf_cm.o ABSOLUTE
    RTE\Device\TM4C1294NCPDT\startup_TM4C129.s 0x00000000   Number         0  startup_tm4c129.o ABSOLUTE
    RTE\Device\TM4C1294NCPDT\system_TM4C129.c 0x00000000   Number         0  system_tm4c129.o ABSOLUTE
    RTE\\CMSIS\\RTX_Conf_CM.c                0x00000000   Number         0  rtx_conf_cm.o ABSOLUTE
    RTE\\Device\\TM4C1294NCPDT\\system_TM4C129.c 0x00000000   Number         0  system_tm4c129.o ABSOLUTE
    SVC_Table.s                              0x00000000   Number         0  svc_table.o ABSOLUTE
    accel.c                                  0x00000000   Number         0  accel.o ABSOLUTE
    adc.c                                    0x00000000   Number         0  adc.o ABSOLUTE
    background.c                             0x00000000   Number         0  background.o ABSOLUTE
    background2.c                            0x00000000   Number         0  background2.o ABSOLUTE
    boss.c                                   0x00000000   Number         0  boss.o ABSOLUTE
    buttons.c                                0x00000000   Number         0  buttons.o ABSOLUTE
    buzzer.c                                 0x00000000   Number         0  buzzer.o ABSOLUTE
    cfaf128x128x16.c                         0x00000000   Number         0  cfaf128x128x16.o ABSOLUTE
    circle.c                                 0x00000000   Number         0  circle.o ABSOLUTE
    cpu.c                                    0x00000000   Number         0  cpu.o ABSOLUTE
    cpu.c                                    0x00000000   Number         0  cpu.o ABSOLUTE
    dc.s                                     0x00000000   Number         0  dc.o ABSOLUTE
    exemploTIVA.c                            0x00000000   Number         0  exemplotiva.o ABSOLUTE
    exemploTIVA.c                            0x00000000   Number         0  exemplotiva.o ABSOLUTE
    gpio.c                                   0x00000000   Number         0  gpio.o ABSOLUTE
    i2c.c                                    0x00000000   Number         0  i2c.o ABSOLUTE
    inimigo.c                                0x00000000   Number         0  inimigo.o ABSOLUTE
    interrupt.c                              0x00000000   Number         0  interrupt.o ABSOLUTE
    joy.c                                    0x00000000   Number         0  joy.o ABSOLUTE
    key.c                                    0x00000000   Number         0  key.o ABSOLUTE
    led.c                                    0x00000000   Number         0  led.o ABSOLUTE
    led.c                                    0x00000000   Number         0  led.o ABSOLUTE
    line.c                                   0x00000000   Number         0  line.o ABSOLUTE
    mic.c                                    0x00000000   Number         0  mic.o ABSOLUTE
    opt.c                                    0x00000000   Number         0  opt.o ABSOLUTE
    point.c                                  0x00000000   Number         0  point.o ABSOLUTE
    pwm.c                                    0x00000000   Number         0  pwm.o ABSOLUTE
    rgb.c                                    0x00000000   Number         0  rgb.o ABSOLUTE
    servo.c                                  0x00000000   Number         0  servo.o ABSOLUTE
    sysctl.c                                 0x00000000   Number         0  sysctl.o ABSOLUTE
    sysctl.c                                 0x00000000   Number         0  sysctl.o ABSOLUTE
    temp.c                                   0x00000000   Number         0  temp.o ABSOLUTE
    timer.c                                  0x00000000   Number         0  timer.o ABSOLUTE
    !!!main                                  0x00000200   Section        8  __main.o(!!!main)
    !!!scatter                               0x00000208   Section       52  __scatter.o(!!!scatter)
    !!dczerorl                               0x0000023c   Section       58  __dczerorl.o(!!dczerorl)
    !!handler_zi                             0x00000278   Section       28  __scatter_zi.o(!!handler_zi)
    .ARM.Collect$$libinit$$00000000          0x00000294   Section        2  libinit.o(.ARM.Collect$$libinit$$00000000)
    .ARM.Collect$$libinit$$00000001          0x00000296   Section        4  libinit2.o(.ARM.Collect$$libinit$$00000001)
    .ARM.Collect$$libinit$$00000004          0x0000029a   Section        0  libinit2.o(.ARM.Collect$$libinit$$00000004)
    .ARM.Collect$$libinit$$0000000A          0x0000029a   Section        0  libinit2.o(.ARM.Collect$$libinit$$0000000A)
    .ARM.Collect$$libinit$$0000000C          0x0000029a   Section        0  libinit2.o(.ARM.Collect$$libinit$$0000000C)
    .ARM.Collect$$libinit$$0000000E          0x0000029a   Section        0  libinit2.o(.ARM.Collect$$libinit$$0000000E)
    .ARM.Collect$$libinit$$00000011          0x0000029a   Section        0  libinit2.o(.ARM.Collect$$libinit$$00000011)
    .ARM.Collect$$libinit$$00000013          0x0000029a   Section        0  libinit2.o(.ARM.Collect$$libinit$$00000013)
    .ARM.Collect$$libinit$$00000015          0x0000029a   Section        0  libinit2.o(.ARM.Collect$$libinit$$00000015)
    .ARM.Collect$$libinit$$00000017          0x0000029a   Section        0  libinit2.o(.ARM.Collect$$libinit$$00000017)
    .ARM.Collect$$libinit$$00000019          0x0000029a   Section        0  libinit2.o(.ARM.Collect$$libinit$$00000019)
    .ARM.Collect$$libinit$$0000001B          0x0000029a   Section        0  libinit2.o(.ARM.Collect$$libinit$$0000001B)
    .ARM.Collect$$libinit$$0000001D          0x0000029a   Section        0  libinit2.o(.ARM.Collect$$libinit$$0000001D)
    .ARM.Collect$$libinit$$0000001F          0x0000029a   Section        0  libinit2.o(.ARM.Collect$$libinit$$0000001F)
    .ARM.Collect$$libinit$$00000021          0x0000029a   Section        0  libinit2.o(.ARM.Collect$$libinit$$00000021)
    .ARM.Collect$$libinit$$00000023          0x0000029a   Section        0  libinit2.o(.ARM.Collect$$libinit$$00000023)
    .ARM.Collect$$libinit$$00000025          0x0000029a   Section        0  libinit2.o(.ARM.Collect$$libinit$$00000025)
    .ARM.Collect$$libinit$$0000002C          0x0000029a   Section        0  libinit2.o(.ARM.Collect$$libinit$$0000002C)
    .ARM.Collect$$libinit$$0000002E          0x0000029a   Section        0  libinit2.o(.ARM.Collect$$libinit$$0000002E)
    .ARM.Collect$$libinit$$00000030          0x0000029a   Section        0  libinit2.o(.ARM.Collect$$libinit$$00000030)
    .ARM.Collect$$libinit$$00000032          0x0000029a   Section        0  libinit2.o(.ARM.Collect$$libinit$$00000032)
    .ARM.Collect$$libinit$$00000033          0x0000029a   Section        2  libinit2.o(.ARM.Collect$$libinit$$00000033)
    .ARM.Collect$$libshutdown$$00000000      0x0000029c   Section        2  libshutdown.o(.ARM.Collect$$libshutdown$$00000000)
    .ARM.Collect$$libshutdown$$00000002      0x0000029e   Section        0  libshutdown2.o(.ARM.Collect$$libshutdown$$00000002)
    .ARM.Collect$$libshutdown$$00000004      0x0000029e   Section        0  libshutdown2.o(.ARM.Collect$$libshutdown$$00000004)
    .ARM.Collect$$libshutdown$$00000007      0x0000029e   Section        0  libshutdown2.o(.ARM.Collect$$libshutdown$$00000007)
    .ARM.Collect$$libshutdown$$0000000A      0x0000029e   Section        0  libshutdown2.o(.ARM.Collect$$libshutdown$$0000000A)
    .ARM.Collect$$libshutdown$$0000000C      0x0000029e   Section        0  libshutdown2.o(.ARM.Collect$$libshutdown$$0000000C)
    .ARM.Collect$$libshutdown$$0000000F      0x0000029e   Section        0  libshutdown2.o(.ARM.Collect$$libshutdown$$0000000F)
    .ARM.Collect$$libshutdown$$00000010      0x0000029e   Section        2  libshutdown2.o(.ARM.Collect$$libshutdown$$00000010)
    .ARM.Collect$$rtentry$$00000000          0x000002a0   Section        0  __rtentry.o(.ARM.Collect$$rtentry$$00000000)
    .ARM.Collect$$rtentry$$00000002          0x000002a0   Section        0  __rtentry2.o(.ARM.Collect$$rtentry$$00000002)
    .ARM.Collect$$rtentry$$00000004          0x000002a0   Section        6  __rtentry4.o(.ARM.Collect$$rtentry$$00000004)
    .ARM.Collect$$rtentry$$00000009          0x000002a6   Section        0  __rtentry2.o(.ARM.Collect$$rtentry$$00000009)
    .ARM.Collect$$rtentry$$0000000A          0x000002a6   Section        4  __rtentry2.o(.ARM.Collect$$rtentry$$0000000A)
    .ARM.Collect$$rtentry$$0000000B          0x000002aa   Section        8  __rtentry2.o(.ARM.Collect$$rtentry$$0000000B)
    .ARM.Collect$$rtentry$$0000000D          0x000002b2   Section        8  __rtentry2.o(.ARM.Collect$$rtentry$$0000000D)
    .ARM.Collect$$rtexit$$00000000           0x000002ba   Section        2  rtexit.o(.ARM.Collect$$rtexit$$00000000)
    .ARM.Collect$$rtexit$$00000002           0x000002bc   Section        0  rtexit2.o(.ARM.Collect$$rtexit$$00000002)
    .ARM.Collect$$rtexit$$00000003           0x000002bc   Section        4  rtexit2.o(.ARM.Collect$$rtexit$$00000003)
    .ARM.Collect$$rtexit$$00000004           0x000002c0   Section        6  rtexit2.o(.ARM.Collect$$rtexit$$00000004)
    .emb_text                                0x000002c8   Section       28  rtx_conf_cm.o(.emb_text)
    $v0                                      0x000002c8   Number         0  rtx_conf_cm.o(.emb_text)
    .emb_text                                0x000002e4   Section        6  sysctl.o(.emb_text)
    $v0                                      0x000002e4   Number         0  sysctl.o(.emb_text)
    .emb_text                                0x000002ec   Section      408  hal_cm4.o(.emb_text)
    $v0                                      0x000002ec   Number         0  hal_cm4.o(.emb_text)
    .text                                    0x00000484   Section        0  exemplotiva.o(.text)
    intToString                              0x00000505   Thumb Code   198  exemplotiva.o(.text)
    .text                                    0x000012a4   Section        0  buzzer.o(.text)
    buzzer_div_set                           0x000012a5   Thumb Code    76  buzzer.o(.text)
    .text                                    0x000013f8   Section        0  accel.o(.text)
    analog_read                              0x0000140b   Thumb Code   104  accel.o(.text)
    .text                                    0x0000149c   Section        0  buttons.o(.text)
    .text                                    0x000014f8   Section        0  cfaf128x128x16.o(.text)
    swap_ui16                                0x000014f9   Thumb Code    10  cfaf128x128x16.o(.text)
    swap_i32                                 0x00001503   Thumb Code    10  cfaf128x128x16.o(.text)
    cfaf128x128x16SsiTransfer                0x0000150d   Thumb Code    46  cfaf128x128x16.o(.text)
    cfaf128x128x16WriteCommand               0x0000153b   Thumb Code    56  cfaf128x128x16.o(.text)
    cfaf128x128x16WriteData                  0x00001573   Thumb Code    70  cfaf128x128x16.o(.text)
    cfaf128x128x16WriteRegister              0x000015b9   Thumb Code    16  cfaf128x128x16.o(.text)
    cfaf128x128x16SetWindow                  0x000015c9   Thumb Code   192  cfaf128x128x16.o(.text)
    cfaf128x128x16PixelDraw                  0x00001729   Thumb Code    10  cfaf128x128x16.o(.text)
    cfaf128x128x16PixelDrawMultiple          0x00001733   Thumb Code   360  cfaf128x128x16.o(.text)
    cfaf128x128x16LineDrawH                  0x0000189b   Thumb Code    46  cfaf128x128x16.o(.text)
    cfaf128x128x16LineDrawV                  0x000018c9   Thumb Code    60  cfaf128x128x16.o(.text)
    cfaf128x128x16RectFill                   0x00001905   Thumb Code    80  cfaf128x128x16.o(.text)
    cfaf128x128x16ColorTranslate             0x00001955   Thumb Code    22  cfaf128x128x16.o(.text)
    cfaf128x128x16Flush                      0x0000196b   Thumb Code     2  cfaf128x128x16.o(.text)
    .text                                    0x00001bf4   Section        0  led.o(.text)
    .text                                    0x00001d10   Section        0  mic.o(.text)
    analog_read                              0x00001d23   Thumb Code   104  mic.o(.text)
    .text                                    0x00001da4   Section        0  opt.o(.text)
    send_single                              0x00001da5   Thumb Code    98  opt.o(.text)
    receive_single                           0x00001e07   Thumb Code   106  opt.o(.text)
    send_multiple                            0x00001e71   Thumb Code   340  opt.o(.text)
    receive_multiple                         0x00001fc5   Thumb Code   342  opt.o(.text)
    write_reg                                0x0000211b   Thumb Code    38  opt.o(.text)
    read_reg                                 0x00002141   Thumb Code    50  opt.o(.text)
    temp_int_callback                        0x00002177   Thumb Code    34  opt.o(.text)
    .text                                    0x00002314   Section        0  rgb.o(.text)
    .text                                    0x00002568   Section        0  servo.o(.text)
    .text                                    0x0000264c   Section        0  joy.o(.text)
    analog_read                              0x0000267b   Thumb Code   104  joy.o(.text)
    .text                                    0x0000271c   Section        0  temp.o(.text)
    send_single                              0x0000271d   Thumb Code    98  temp.o(.text)
    receive_single                           0x0000277f   Thumb Code   106  temp.o(.text)
    send_multiple                            0x000027e9   Thumb Code   340  temp.o(.text)
    receive_multiple                         0x0000293d   Thumb Code   342  temp.o(.text)
    write_reg                                0x00002a93   Thumb Code    38  temp.o(.text)
    read_reg                                 0x00002ab9   Thumb Code    50  temp.o(.text)
    temp_int_callback                        0x00002b0d   Thumb Code    26  temp.o(.text)
    .text                                    0x00002c40   Section        0  rtx_conf_cm.o(.text)
    __tagsym$$used                           0x00002c87   Number         0  rtx_conf_cm.o(.text)
    __tagsym$$used                           0x00002c9d   Number         0  rtx_conf_cm.o(.text)
    .text                                    0x00002ccc   Section      300  startup_tm4c129.o(.text)
    $v0                                      0x00002ccc   Number         0  startup_tm4c129.o(.text)
    .text                                    0x00002df8   Section        0  system_tm4c129.o(.text)
    .text                                    0x00002e20   Section        8  libspace.o(.text)
    .text                                    0x00002e28   Section      238  lludivv7m.o(.text)
    .text                                    0x00002f16   Section       72  llsdiv.o(.text)
    .text                                    0x00002f5e   Section        0  exit.o(.text)
    .text                                    0x00002f70   Section        0  heapauxi.o(.text)
    .text                                    0x00002f78   Section        0  sys_exit.o(.text)
    .text                                    0x00002f84   Section       74  sys_stackheap_outer.o(.text)
    .text                                    0x00002fce   Section        2  use_no_semi.o(.text)
    .text                                    0x00002fd0   Section        0  indicate_semi.o(.text)
    SVC_TABLE                                0x00002fd0   Section        4  svc_table.o(SVC_TABLE)
    i.ADCIntClear                            0x00002fd4   Section        0  adc.o(i.ADCIntClear)
    i.ADCIntStatus                           0x00002fde   Section        0  adc.o(i.ADCIntStatus)
    i.ADCProcessorTrigger                    0x00003012   Section        0  adc.o(i.ADCProcessorTrigger)
    i.ADCSequenceConfigure                   0x0000302c   Section        0  adc.o(i.ADCSequenceConfigure)
    i.ADCSequenceDataGet                     0x0000308c   Section        0  adc.o(i.ADCSequenceDataGet)
    i.ADCSequenceEnable                      0x000030b0   Section        0  adc.o(i.ADCSequenceEnable)
    i.ADCSequenceStepConfigure               0x000030be   Section        0  adc.o(i.ADCSequenceStepConfigure)
    i.GPIODirModeSet                         0x00003158   Section        0  gpio.o(i.GPIODirModeSet)
    i.GPIOPadConfigSet                       0x00003180   Section        0  gpio.o(i.GPIOPadConfigSet)
    i.GPIOPinConfigure                       0x000032b8   Section        0  gpio.o(i.GPIOPinConfigure)
    i.GPIOPinRead                            0x000032fc   Section        0  gpio.o(i.GPIOPinRead)
    i.GPIOPinTypeADC                         0x00003302   Section        0  gpio.o(i.GPIOPinTypeADC)
    i.GPIOPinTypeGPIOInput                   0x0000331e   Section        0  gpio.o(i.GPIOPinTypeGPIOInput)
    i.GPIOPinTypeI2C                         0x0000333a   Section        0  gpio.o(i.GPIOPinTypeI2C)
    i.GPIOPinTypeI2CSCL                      0x00003356   Section        0  gpio.o(i.GPIOPinTypeI2CSCL)
    i.GPIOPinTypePWM                         0x00003372   Section        0  gpio.o(i.GPIOPinTypePWM)
    i.GPIOPinTypeTimer                       0x0000338e   Section        0  gpio.o(i.GPIOPinTypeTimer)
    i.GrCircleDraw                           0x000033aa   Section        0  circle.o(i.GrCircleDraw)
    i.GrCircleFill                           0x000035ac   Section        0  circle.o(i.GrCircleFill)
    i.GrLineDrawH                            0x000036d2   Section        0  line.o(i.GrLineDrawH)
    i.I2CIntRegister                         0x00003720   Section        0  i2c.o(i.I2CIntRegister)
    i.I2CMasterBurstLengthSet                0x00003780   Section        0  i2c.o(i.I2CMasterBurstLengthSet)
    i.I2CMasterBusBusy                       0x00003784   Section        0  i2c.o(i.I2CMasterBusBusy)
    i.I2CMasterBusy                          0x00003790   Section        0  i2c.o(i.I2CMasterBusy)
    i.I2CMasterControl                       0x0000379c   Section        0  i2c.o(i.I2CMasterControl)
    i.I2CMasterDataGet                       0x000037a0   Section        0  i2c.o(i.I2CMasterDataGet)
    i.I2CMasterDataPut                       0x000037a4   Section        0  i2c.o(i.I2CMasterDataPut)
    i.I2CMasterEnable                        0x000037a8   Section        0  i2c.o(i.I2CMasterEnable)
    i.I2CMasterErr                           0x000037b2   Section        0  i2c.o(i.I2CMasterErr)
    i.I2CMasterGlitchFilterConfigSet         0x000037cc   Section        0  i2c.o(i.I2CMasterGlitchFilterConfigSet)
    i.I2CMasterInitExpClk                    0x00003820   Section        0  i2c.o(i.I2CMasterInitExpClk)
    i.I2CMasterIntClear                      0x00003874   Section        0  i2c.o(i.I2CMasterIntClear)
    i.I2CMasterIntClearEx                    0x0000387c   Section        0  i2c.o(i.I2CMasterIntClearEx)
    i.I2CMasterIntEnableEx                   0x00003880   Section        0  i2c.o(i.I2CMasterIntEnableEx)
    i.I2CMasterSlaveAddrSet                  0x00003888   Section        0  i2c.o(i.I2CMasterSlaveAddrSet)
    i.I2CMasterTimeoutSet                    0x00003890   Section        0  i2c.o(i.I2CMasterTimeoutSet)
    i.IntEnable                              0x00003894   Section        0  interrupt.o(i.IntEnable)
    i.IntRegister                            0x000038f8   Section        0  interrupt.o(i.IntRegister)
    i.PWMClockSet                            0x0000392c   Section        0  pwm.o(i.PWMClockSet)
    i.PWMGenConfigure                        0x00003940   Section        0  pwm.o(i.PWMGenConfigure)
    i.PWMGenDisable                          0x00003966   Section        0  pwm.o(i.PWMGenDisable)
    i.PWMGenEnable                           0x00003970   Section        0  pwm.o(i.PWMGenEnable)
    i.PWMGenPeriodGet                        0x0000397a   Section        0  pwm.o(i.PWMGenPeriodGet)
    i.PWMGenPeriodSet                        0x0000398c   Section        0  pwm.o(i.PWMGenPeriodSet)
    i.PWMOutputInvert                        0x0000399e   Section        0  pwm.o(i.PWMOutputInvert)
    i.PWMOutputState                         0x000039ae   Section        0  pwm.o(i.PWMOutputState)
    i.PWMPulseWidthSet                       0x000039be   Section        0  pwm.o(i.PWMPulseWidthSet)
    i.SysCtlClockFreqSet                     0x000039e0   Section        0  sysctl.o(i.SysCtlClockFreqSet)
    i.SysCtlPeripheralEnable                 0x00003ccc   Section        0  sysctl.o(i.SysCtlPeripheralEnable)
    i.SysCtlPeripheralReady                  0x00003cf4   Section        0  sysctl.o(i.SysCtlPeripheralReady)
    i.SysCtlPeripheralReset                  0x00003d20   Section        0  sysctl.o(i.SysCtlPeripheralReset)
    i.TimerClockSourceSet                    0x00003d5c   Section        0  timer.o(i.TimerClockSourceSet)
    i.TimerConfigure                         0x00003d64   Section        0  timer.o(i.TimerConfigure)
    i.TimerControlLevel                      0x00003dc4   Section        0  timer.o(i.TimerControlLevel)
    i.TimerEnable                            0x00003dda   Section        0  timer.o(i.TimerEnable)
    i.TimerLoadSet                           0x00003de8   Section        0  timer.o(i.TimerLoadSet)
    i.TimerMatchSet                          0x00003dfa   Section        0  timer.o(i.TimerMatchSet)
    i.TimerPrescaleSet                       0x00003e0c   Section        0  timer.o(i.TimerPrescaleSet)
    i.TimerUpdateMode                        0x00003e1e   Section        0  timer.o(i.TimerUpdateMode)
    i._init_box                              0x00003e48   Section        0  rt_membox.o(i._init_box)
    i.dbg_init                               0x00003e90   Section        0  hal_cm.o(i.dbg_init)
    i.dbg_task_notify                        0x00003ec0   Section        0  hal_cm.o(i.dbg_task_notify)
    i.dbg_task_switch                        0x00003ee0   Section        0  hal_cm.o(i.dbg_task_switch)
    i.isrMessageGet                          0x00003ef0   Section        0  rt_cmsis.o(i.isrMessageGet)
    i.isrMessagePut                          0x00003f1a   Section        0  rt_cmsis.o(i.isrMessagePut)
    i.isr_mbx_receive                        0x00003f48   Section        0  rt_mailbox.o(i.isr_mbx_receive)
    i.isr_mbx_send                           0x00003f9e   Section        0  rt_mailbox.o(i.isr_mbx_send)
    i.osDelay                                0x00003fac   Section        0  rt_cmsis.o(i.osDelay)
    i.osKernelInitialize                     0x00003fc4   Section        0  rt_cmsis.o(i.osKernelInitialize)
    i.osKernelStart                          0x00003fe8   Section        0  rt_cmsis.o(i.osKernelStart)
    i.osMessageGet                           0x00004054   Section        0  rt_cmsis.o(i.osMessageGet)
    i.osMutexCreate                          0x0000406c   Section        0  rt_cmsis.o(i.osMutexCreate)
    i.osThreadCreate                         0x00004098   Section        0  rt_cmsis.o(i.osThreadCreate)
    i.osThreadExit                           0x000040c4   Section        0  rt_cmsis.o(i.osThreadExit)
    i.osTimerCall                            0x000040dc   Section        0  rt_cmsis.o(i.osTimerCall)
    i.osTimerCreate                          0x000040e8   Section        0  rt_cmsis.o(i.osTimerCreate)
    i.osTimerStart                           0x00004114   Section        0  rt_cmsis.o(i.osTimerStart)
    i.osTimerStop                            0x0000412c   Section        0  rt_cmsis.o(i.osTimerStop)
    i.osTimerThread                          0x00004144   Section        0  rt_cmsis.o(i.osTimerThread)
    i.os_tick_init                           0x00004170   Section        0  rt_system.o(i.os_tick_init)
    i.os_tick_irqack                         0x00004198   Section        0  rt_system.o(i.os_tick_irqack)
    i.rt_alloc_box                           0x0000419a   Section        0  rt_membox.o(i.rt_alloc_box)
    i.rt_alloc_mem                           0x000041b4   Section        0  rt_memory.o(i.rt_alloc_mem)
    i.rt_block                               0x000041f4   Section        0  rt_task.o(i.rt_block)
    i.rt_chk_robin                           0x0000422c   Section        0  rt_robin.o(i.rt_chk_robin)
    i.rt_dec_dly                             0x00004274   Section        0  rt_list.o(i.rt_dec_dly)
    i.rt_dispatch                            0x000042e4   Section        0  rt_task.o(i.rt_dispatch)
    i.rt_dly_wait                            0x00004328   Section        0  rt_time.o(i.rt_dly_wait)
    i.rt_evt_psh                             0x00004330   Section        0  rt_event.o(i.rt_evt_psh)
    i.rt_free_box                            0x00004380   Section        0  rt_membox.o(i.rt_free_box)
    i.rt_free_mem                            0x000043ac   Section        0  rt_memory.o(i.rt_free_mem)
    i.rt_get_first                           0x000043d4   Section        0  rt_list.o(i.rt_get_first)
    i.rt_id2obj                              0x000043fc   Section        0  rt_cmsis.o(i.rt_id2obj)
    rt_id2obj                                0x000043fd   Thumb Code     8  rt_cmsis.o(i.rt_id2obj)
    i.rt_init_context                        0x00004404   Section        0  rt_task.o(i.rt_init_context)
    rt_init_context                          0x00004405   Thumb Code    66  rt_task.o(i.rt_init_context)
    i.rt_init_mem                            0x0000444c   Section        0  rt_memory.o(i.rt_init_mem)
    i.rt_init_robin                          0x00004468   Section        0  rt_robin.o(i.rt_init_robin)
    i.rt_init_stack                          0x00004480   Section        0  hal_cm.o(i.rt_init_stack)
    i.rt_mbx_check                           0x00004500   Section        0  rt_mailbox.o(i.rt_mbx_check)
    i.rt_mbx_init                            0x00004508   Section        0  rt_mailbox.o(i.rt_mbx_init)
    i.rt_mbx_psh                             0x00004524   Section        0  rt_mailbox.o(i.rt_mbx_psh)
    i.rt_mbx_wait                            0x00004614   Section        0  rt_mailbox.o(i.rt_mbx_wait)
    i.rt_ms2tick                             0x000046c8   Section        0  rt_cmsis.o(i.rt_ms2tick)
    rt_ms2tick                               0x000046c9   Thumb Code    58  rt_cmsis.o(i.rt_ms2tick)
    i.rt_mut_init                            0x0000470c   Section        0  rt_mutex.o(i.rt_mut_init)
    i.rt_mut_release                         0x0000471c   Section        0  rt_mutex.o(i.rt_mut_release)
    i.rt_mut_wait                            0x000047f4   Section        0  rt_mutex.o(i.rt_mut_wait)
    i.rt_pop_req                             0x0000486c   Section        0  rt_system.o(i.rt_pop_req)
    i.rt_psh_req                             0x000048e8   Section        0  rt_system.o(i.rt_psh_req)
    i.rt_psq_enq                             0x00004908   Section        0  rt_list.o(i.rt_psq_enq)
    i.rt_put_dly                             0x00004964   Section        0  rt_list.o(i.rt_put_dly)
    i.rt_put_prio                            0x000049ac   Section        0  rt_list.o(i.rt_put_prio)
    i.rt_put_rdy_first                       0x000049e4   Section        0  rt_list.o(i.rt_put_rdy_first)
    i.rt_resort_prio                         0x000049f8   Section        0  rt_list.o(i.rt_resort_prio)
    i.rt_ret_regs                            0x00004a2c   Section        0  hal_cm.o(i.rt_ret_regs)
    rt_ret_regs                              0x00004a2d   Thumb Code    16  hal_cm.o(i.rt_ret_regs)
    i.rt_ret_val                             0x00004a3c   Section        0  hal_cm.o(i.rt_ret_val)
    i.rt_ret_val2                            0x00004a48   Section        0  hal_cm.o(i.rt_ret_val2)
    i.rt_rmv_dly                             0x00004a58   Section        0  rt_list.o(i.rt_rmv_dly)
    i.rt_rmv_list                            0x00004a80   Section        0  rt_list.o(i.rt_rmv_list)
    i.rt_sem_psh                             0x00004ab0   Section        0  rt_semaphore.o(i.rt_sem_psh)
    i.rt_stk_check                           0x00004ae4   Section        0  rt_system.o(i.rt_stk_check)
    i.rt_switch_req                          0x00004b08   Section        0  rt_task.o(i.rt_switch_req)
    i.rt_sys_init                            0x00004b30   Section        0  rt_task.o(i.rt_sys_init)
    i.rt_sys_start                           0x00004bfc   Section        0  rt_task.o(i.rt_sys_start)
    i.rt_systick                             0x00004c74   Section        0  rt_system.o(i.rt_systick)
    i.rt_tid2ptcb                            0x00004cb4   Section        0  rt_cmsis.o(i.rt_tid2ptcb)
    rt_tid2ptcb                              0x00004cb5   Thumb Code    18  rt_cmsis.o(i.rt_tid2ptcb)
    i.rt_timer_insert                        0x00004cc8   Section        0  rt_cmsis.o(i.rt_timer_insert)
    rt_timer_insert                          0x00004cc9   Thumb Code    48  rt_cmsis.o(i.rt_timer_insert)
    i.rt_timer_remove                        0x00004cfc   Section        0  rt_cmsis.o(i.rt_timer_remove)
    rt_timer_remove                          0x00004cfd   Thumb Code    56  rt_cmsis.o(i.rt_timer_remove)
    i.rt_tsk_create                          0x00004d38   Section        0  rt_task.o(i.rt_tsk_create)
    i.rt_tsk_delete                          0x00004dc0   Section        0  rt_task.o(i.rt_tsk_delete)
    i.rt_tsk_prio                            0x00004f3c   Section        0  rt_task.o(i.rt_tsk_prio)
    i.rt_tsk_self                            0x00004fb8   Section        0  rt_task.o(i.rt_tsk_self)
    i.svcDelay                               0x00004fc8   Section        0  rt_cmsis.o(i.svcDelay)
    i.svcKernelInitialize                    0x00004fdc   Section        0  rt_cmsis.o(i.svcKernelInitialize)
    i.svcKernelStart                         0x0000504c   Section        0  rt_cmsis.o(i.svcKernelStart)
    i.svcMessageCreate                       0x00005094   Section        0  rt_cmsis.o(i.svcMessageCreate)
    i.svcMessageGet                          0x000050b8   Section        0  rt_cmsis.o(i.svcMessageGet)
    i.svcMutexCreate                         0x000050f2   Section        0  rt_cmsis.o(i.svcMutexCreate)
    i.svcThreadCreate                        0x00005110   Section        0  rt_cmsis.o(i.svcThreadCreate)
    i.svcThreadGetId                         0x0000517c   Section        0  rt_cmsis.o(i.svcThreadGetId)
    i.svcThreadTerminate                     0x00005198   Section        0  rt_cmsis.o(i.svcThreadTerminate)
    i.svcTimerCall                           0x000051d0   Section        0  rt_cmsis.o(i.svcTimerCall)
    i.svcTimerCreate                         0x000051e8   Section        0  rt_cmsis.o(i.svcTimerCreate)
    i.svcTimerStart                          0x00005220   Section        0  rt_cmsis.o(i.svcTimerStart)
    i.svcTimerStop                           0x00005284   Section        0  rt_cmsis.o(i.svcTimerStop)
    i.sysTimerTick                           0x000052a8   Section        0  rt_cmsis.o(i.sysTimerTick)
    x$fpl$dadd                               0x00005304   Section      336  daddsub_clz.o(x$fpl$dadd)
    $v0                                      0x00005304   Number         0  daddsub_clz.o(x$fpl$dadd)
    _dadd1                                   0x00005315   Thumb Code     0  daddsub_clz.o(x$fpl$dadd)
    x$fpl$dfixu                              0x00005454   Section       90  dfixu.o(x$fpl$dfixu)
    $v0                                      0x00005454   Number         0  dfixu.o(x$fpl$dfixu)
    x$fpl$dfltu                              0x000054ae   Section       38  dflt_clz.o(x$fpl$dfltu)
    $v0                                      0x000054ae   Number         0  dflt_clz.o(x$fpl$dfltu)
    x$fpl$dmul                               0x000054d4   Section      340  dmul.o(x$fpl$dmul)
    $v0                                      0x000054d4   Number         0  dmul.o(x$fpl$dmul)
    x$fpl$dnaninf                            0x00005628   Section      156  dnaninf.o(x$fpl$dnaninf)
    $v0                                      0x00005628   Number         0  dnaninf.o(x$fpl$dnaninf)
    x$fpl$dretinf                            0x000056c4   Section       12  dretinf.o(x$fpl$dretinf)
    $v0                                      0x000056c4   Number         0  dretinf.o(x$fpl$dretinf)
    x$fpl$dsub                               0x000056d0   Section      468  daddsub_clz.o(x$fpl$dsub)
    $v0                                      0x000056d0   Number         0  daddsub_clz.o(x$fpl$dsub)
    _dsub1                                   0x000056e1   Thumb Code     0  daddsub_clz.o(x$fpl$dsub)
    x$fpl$fpinit                             0x000058a4   Section       10  fpinit.o(x$fpl$fpinit)
    $v0                                      0x000058a4   Number         0  fpinit.o(x$fpl$fpinit)
    x$fpl$usenofp                            0x000058ae   Section        0  usenofp.o(x$fpl$usenofp)
    .constdata                               0x000058b0   Section       52  exemplotiva.o(.constdata)
    .constdata                               0x000058e4   Section    49206  background.o(.constdata)
    .constdata                               0x0001191c   Section        4  background.o(.constdata)
    .constdata                               0x00011920   Section       86  inimigo.o(.constdata)
    .constdata                               0x00011978   Section        4  inimigo.o(.constdata)
    .constdata                               0x0001197c   Section      146  boss.o(.constdata)
    .constdata                               0x00011a10   Section        4  boss.o(.constdata)
    .constdata                               0x00011a14   Section       86  point.o(.constdata)
    .constdata                               0x00011a6c   Section        4  point.o(.constdata)
    .constdata                               0x00011a70   Section       60  key.o(.constdata)
    .constdata                               0x00011aac   Section        4  key.o(.constdata)
    .constdata                               0x00011ab0   Section    49167  background2.o(.constdata)
    .constdata                               0x0001dac0   Section        4  background2.o(.constdata)
    .constdata                               0x0001dac4   Section       16  led.o(.constdata)
    .constdata                               0x0001dad4   Section      372  eddiev3.o(.constdata)
    .constdata                               0x0001dc48   Section        4  eddiev3.o(.constdata)
    .constdata                               0x0001dc4c   Section        2  rtx_conf_cm.o(.constdata)
    .constdata                               0x0001dc50   Section        4  rtx_conf_cm.o(.constdata)
    .constdata                               0x0001dc54   Section        4  rtx_conf_cm.o(.constdata)
    .constdata                               0x0001dc58   Section        4  rtx_conf_cm.o(.constdata)
    .constdata                               0x0001dc5c   Section        1  rtx_conf_cm.o(.constdata)
    .constdata                               0x0001dc60   Section       16  rtx_conf_cm.o(.constdata)
    __tagsym$$used                           0x0001dc60   Number         0  rtx_conf_cm.o(.constdata)
    __tagsym$$used                           0x0001dc64   Number         0  rtx_conf_cm.o(.constdata)
    __tagsym$$used                           0x0001dc68   Number         0  rtx_conf_cm.o(.constdata)
    __tagsym$$used                           0x0001dc6c   Number         0  rtx_conf_cm.o(.constdata)
    .constdata                               0x0001dc70   Section        2  rtx_conf_cm.o(.constdata)
    .constdata                               0x0001dc74   Section        4  rtx_conf_cm.o(.constdata)
    .constdata                               0x0001dc78   Section        4  rtx_conf_cm.o(.constdata)
    .constdata                               0x0001dc7c   Section        1  rtx_conf_cm.o(.constdata)
    .constdata                               0x0001dc80   Section       16  rtx_conf_cm.o(.constdata)
    .constdata                               0x0001dc90   Section        8  rtx_conf_cm.o(.constdata)
    .constdata                               0x0001dc98   Section        2  rtx_conf_cm.o(.constdata)
    .constdata                               0x0001dc9c   Section       16  rtx_conf_cm.o(.constdata)
    .constdata                               0x0001dcac   Section      552  gpio.o(.constdata)
    g_ppui32GPIOIntMapBlizzard               0x0001dcac   Data         192  gpio.o(.constdata)
    g_ppui32GPIOIntMapSnowflake              0x0001dd6c   Data         216  gpio.o(.constdata)
    g_pui32GPIOBaseAddrs                     0x0001de44   Data         144  gpio.o(.constdata)
    .constdata                               0x0001ded4   Section      128  i2c.o(.constdata)
    g_ppui32I2CIntMap                        0x0001ded4   Data          48  i2c.o(.constdata)
    g_ppui32I2CIntMapSnowflake               0x0001df04   Data          80  i2c.o(.constdata)
    .constdata                               0x0001df54   Section      268  interrupt.o(.constdata)
    g_pui32Priority                          0x0001df54   Data          32  interrupt.o(.constdata)
    g_pui32Regs                              0x0001df74   Data         156  interrupt.o(.constdata)
    g_pui32EnRegs                            0x0001e010   Data          20  interrupt.o(.constdata)
    g_pui32Dii16Regs                         0x0001e024   Data          20  interrupt.o(.constdata)
    g_pui32PendRegs                          0x0001e038   Data          20  interrupt.o(.constdata)
    g_pui32UnpendRegs                        0x0001e04c   Data          20  interrupt.o(.constdata)
    .constdata                               0x0001e060   Section      596  sysctl.o(.constdata)
    g_pui32VCOFrequencies                    0x0001e060   Data           8  sysctl.o(.constdata)
    g_pui32Xtals                             0x0001e068   Data         108  sysctl.o(.constdata)
    g_pppui32XTALtoVCO                       0x0001e0d4   Data         432  sysctl.o(.constdata)
    g_sXTALtoMEMTIM                          0x0001e284   Data          48  sysctl.o(.constdata)
    .conststring                             0x0001e2b4   Section       37  exemplotiva.o(.conststring)
    .data                                    0x20000000   Section       84  exemplotiva.o(.data)
    pAscii                                   0x20000014   Data           4  exemplotiva.o(.data)
    .data                                    0x20000054   Section       12  buzzer.o(.data)
    g_current_state                          0x20000054   Data           1  buzzer.o(.data)
    g_current_per                            0x20000056   Data           2  buzzer.o(.data)
    g_ui32SysClock                           0x20000058   Data           4  buzzer.o(.data)
    g_current_vol                            0x2000005c   Data           4  buzzer.o(.data)
    .data                                    0x20000060   Section        8  cfaf128x128x16.o(.data)
    _orientation                             0x20000060   Data           1  cfaf128x128x16.o(.data)
    g_ui32SysClock                           0x20000064   Data           4  cfaf128x128x16.o(.data)
    .data                                    0x20000068   Section       12  opt.o(.data)
    g_sentFlag                               0x20000068   Data           1  opt.o(.data)
    mid                                      0x2000006a   Data           2  opt.o(.data)
    did                                      0x2000006c   Data           2  opt.o(.data)
    g_timeout_count                          0x2000006e   Data           2  opt.o(.data)
    g_ui32SysClock                           0x20000070   Data           4  opt.o(.data)
    .data                                    0x20000074   Section        8  rgb.o(.data)
    enabled                                  0x20000074   Data           1  rgb.o(.data)
    enabled                                  0x20000075   Data           1  rgb.o(.data)
    enabled                                  0x20000076   Data           1  rgb.o(.data)
    g_ui32SysClock                           0x20000078   Data           4  rgb.o(.data)
    .data                                    0x2000007c   Section        8  servo.o(.data)
    g_ui16Period                             0x2000007c   Data           2  servo.o(.data)
    g_ui16perMin                             0x2000007e   Data           2  servo.o(.data)
    g_ui32SysClock                           0x20000080   Data           4  servo.o(.data)
    .data                                    0x20000084   Section       12  temp.o(.data)
    g_sentFlag                               0x20000084   Data           1  temp.o(.data)
    g_mid                                    0x20000086   Data           2  temp.o(.data)
    g_did                                    0x20000088   Data           2  temp.o(.data)
    g_timeout_count                          0x2000008a   Data           2  temp.o(.data)
    g_ui32SysClock                           0x2000008c   Data           4  temp.o(.data)
    .data                                    0x20000090   Section        4  rtx_conf_cm.o(.data)
    .data                                    0x20000094   Section        4  rtx_conf_cm.o(.data)
    .data                                    0x20000098   Section        4  rtx_conf_cm.o(.data)
    .data                                    0x2000009c   Section        4  rtx_conf_cm.o(.data)
    nr_mutex                                 0x2000009c   Data           4  rtx_conf_cm.o(.data)
    .data                                    0x200000a0   Section        4  system_tm4c129.o(.data)
    .data                                    0x200000a4   Section        8  rt_cmsis.o(.data)
    .data                                    0x200000ac   Section        8  rt_task.o(.data)
    .data                                    0x200000b4   Section        8  rt_system.o(.data)
    os_lock                                  0x200000b4   Data           1  rt_system.o(.data)
    os_psh_flag                              0x200000b5   Data           1  rt_system.o(.data)
    pend_flags                               0x200000b6   Data           1  rt_system.o(.data)
    .data                                    0x200000bc   Section        4  rt_time.o(.data)
    .data                                    0x200000c0   Section        8  rt_robin.o(.data)
    .data                                    0x200000c8   Section        1  hal_cm.o(.data)
    vtable                                   0x20000400   Section      620  interrupt.o(vtable)
    g_pfnRAMVectors                          0x20000400   Data         620  interrupt.o(vtable)
    .bss                                     0x2000066c   Section       16  exemplotiva.o(.bss)
    .bss                                     0x2000067c   Section      108  exemplotiva.o(.bss)
    .bss                                     0x200006e8   Section       24  exemplotiva.o(.bss)
    .bss                                     0x20000700   Section       24  exemplotiva.o(.bss)
    .bss                                     0x20000718   Section       24  exemplotiva.o(.bss)
    .bss                                     0x20000730   Section       24  exemplotiva.o(.bss)
    .bss                                     0x20000748   Section       32  rtx_conf_cm.o(.bss)
    .bss                                     0x20000768   Section      480  rtx_conf_cm.o(.bss)
    .bss                                     0x20000948   Section     6416  rtx_conf_cm.o(.bss)
    .bss                                     0x20002258   Section     1032  rtx_conf_cm.o(.bss)
    .bss                                     0x20002660   Section      132  rtx_conf_cm.o(.bss)
    .bss                                     0x200026e4   Section       36  rtx_conf_cm.o(.bss)
    .bss                                     0x20002708   Section      992  rtx_conf_cm.o(.bss)
    std_libspace                             0x20002708   Data         864  rtx_conf_cm.o(.bss)
    std_libmutex                             0x20002a68   Data         128  rtx_conf_cm.o(.bss)
    .bss                                     0x20002ae8   Section       52  rt_task.o(.bss)
    .bss                                     0x20002b1c   Section       48  rt_list.o(.bss)
    .bss                                     0x20002b4c   Section       96  libspace.o(.bss)
    HEAP                                     0x20002bb0   Section        0  startup_tm4c129.o(HEAP)
    STACK                                    0x20002bb0   Section      512  startup_tm4c129.o(STACK)
    Heap_Mem                                 0x20002bb0   Data           0  startup_tm4c129.o(HEAP)
    Stack_Mem                                0x20002bb0   Data         512  startup_tm4c129.o(STACK)
    __initial_sp                             0x20002db0   Data           0  startup_tm4c129.o(STACK)

    Global Symbols

    Symbol Name                              Value     Ov Type        Size  Object(Section)

    BuildAttributes$$THM_ISAv4$E$P$D$K$B$S$7EM$VFPi3$EXTD16$VFPS$VFMA$PE$A:L22UL41UL21$X:L11$S22US41US21$IEEE1$IW$USESV6$~STKCKD$USESV7$~SHL$OTIME$ROPI$EBA8$UX$STANDARDLIB$REQ8$PRES8$EABIv2 0x00000000   Number         0  anon$$obj.o ABSOLUTE
    __ARM_use_no_argv                        0x00000000   Number         0  exemplotiva.o ABSOLUTE
    __Vectors                                0x00000000   Data           4  startup_tm4c129.o(RESET)
    __ARM_exceptions_init                     - Undefined Weak Reference
    __alloca_initialize                       - Undefined Weak Reference
    __arm_preinit_                            - Undefined Weak Reference
    __cpp_initialize__aeabi_                  - Undefined Weak Reference
    __cxa_finalize                            - Undefined Weak Reference
    __rt_locale                               - Undefined Weak Reference
    __sigvec_lookup                           - Undefined Weak Reference
    _atexit_init                              - Undefined Weak Reference
    _call_atexit_fns                          - Undefined Weak Reference
    _clock_init                               - Undefined Weak Reference
    _fp_trap_init                             - Undefined Weak Reference
    _fp_trap_shutdown                         - Undefined Weak Reference
    _get_lc_collate                           - Undefined Weak Reference
    _get_lc_ctype                             - Undefined Weak Reference
    _get_lc_monetary                          - Undefined Weak Reference
    _get_lc_numeric                           - Undefined Weak Reference
    _get_lc_time                              - Undefined Weak Reference
    _getenv_init                              - Undefined Weak Reference
    _handle_redirection                       - Undefined Weak Reference
    _init_alloc                               - Undefined Weak Reference
    _init_user_alloc                          - Undefined Weak Reference
    _initio                                   - Undefined Weak Reference
    _rand_init                                - Undefined Weak Reference
    _signal_finish                            - Undefined Weak Reference
    _signal_init                              - Undefined Weak Reference
    _terminate_alloc                          - Undefined Weak Reference
    _terminate_user_alloc                     - Undefined Weak Reference
    _terminateio                              - Undefined Weak Reference
    __Vectors_End                            0x00000200   Data           0  startup_tm4c129.o(RESET)
    __Vectors_Size                           0x00000200   Number         0  startup_tm4c129.o ABSOLUTE
    __main                                   0x00000201   Thumb Code     8  __main.o(!!!main)
    __scatterload                            0x00000209   Thumb Code     0  __scatter.o(!!!scatter)
    __scatterload_rt2                        0x00000209   Thumb Code    44  __scatter.o(!!!scatter)
    __scatterload_rt2_thumb_only             0x00000209   Thumb Code     0  __scatter.o(!!!scatter)
    __scatterload_null                       0x00000217   Thumb Code     0  __scatter.o(!!!scatter)
    __decompress                             0x0000023d   Thumb Code    58  __dczerorl.o(!!dczerorl)
    __decompress0                            0x0000023d   Thumb Code     0  __dczerorl.o(!!dczerorl)
    __scatterload_zeroinit                   0x00000279   Thumb Code    28  __scatter_zi.o(!!handler_zi)
    __rt_lib_init                            0x00000295   Thumb Code     0  libinit.o(.ARM.Collect$$libinit$$00000000)
    __rt_lib_init_fp_1                       0x00000297   Thumb Code     0  libinit2.o(.ARM.Collect$$libinit$$00000001)
    __rt_lib_init_alloca_1                   0x0000029b   Thumb Code     0  libinit2.o(.ARM.Collect$$libinit$$0000002E)
    __rt_lib_init_argv_1                     0x0000029b   Thumb Code     0  libinit2.o(.ARM.Collect$$libinit$$0000002C)
    __rt_lib_init_atexit_1                   0x0000029b   Thumb Code     0  libinit2.o(.ARM.Collect$$libinit$$0000001B)
    __rt_lib_init_clock_1                    0x0000029b   Thumb Code     0  libinit2.o(.ARM.Collect$$libinit$$00000021)
    __rt_lib_init_cpp_1                      0x0000029b   Thumb Code     0  libinit2.o(.ARM.Collect$$libinit$$00000032)
    __rt_lib_init_exceptions_1               0x0000029b   Thumb Code     0  libinit2.o(.ARM.Collect$$libinit$$00000030)
    __rt_lib_init_fp_trap_1                  0x0000029b   Thumb Code     0  libinit2.o(.ARM.Collect$$libinit$$0000001F)
    __rt_lib_init_getenv_1                   0x0000029b   Thumb Code     0  libinit2.o(.ARM.Collect$$libinit$$00000023)
    __rt_lib_init_heap_1                     0x0000029b   Thumb Code     0  libinit2.o(.ARM.Collect$$libinit$$0000000A)
    __rt_lib_init_lc_collate_1               0x0000029b   Thumb Code     0  libinit2.o(.ARM.Collect$$libinit$$00000011)
    __rt_lib_init_lc_ctype_1                 0x0000029b   Thumb Code     0  libinit2.o(.ARM.Collect$$libinit$$00000013)
    __rt_lib_init_lc_monetary_1              0x0000029b   Thumb Code     0  libinit2.o(.ARM.Collect$$libinit$$00000015)
    __rt_lib_init_lc_numeric_1               0x0000029b   Thumb Code     0  libinit2.o(.ARM.Collect$$libinit$$00000017)
    __rt_lib_init_lc_time_1                  0x0000029b   Thumb Code     0  libinit2.o(.ARM.Collect$$libinit$$00000019)
    __rt_lib_init_preinit_1                  0x0000029b   Thumb Code     0  libinit2.o(.ARM.Collect$$libinit$$00000004)
    __rt_lib_init_rand_1                     0x0000029b   Thumb Code     0  libinit2.o(.ARM.Collect$$libinit$$0000000E)
    __rt_lib_init_return                     0x0000029b   Thumb Code     0  libinit2.o(.ARM.Collect$$libinit$$00000033)
    __rt_lib_init_signal_1                   0x0000029b   Thumb Code     0  libinit2.o(.ARM.Collect$$libinit$$0000001D)
    __rt_lib_init_stdio_1                    0x0000029b   Thumb Code     0  libinit2.o(.ARM.Collect$$libinit$$00000025)
    __rt_lib_init_user_alloc_1               0x0000029b   Thumb Code     0  libinit2.o(.ARM.Collect$$libinit$$0000000C)
    __rt_lib_shutdown                        0x0000029d   Thumb Code     0  libshutdown.o(.ARM.Collect$$libshutdown$$00000000)
    __rt_lib_shutdown_cpp_1                  0x0000029f   Thumb Code     0  libshutdown2.o(.ARM.Collect$$libshutdown$$00000002)
    __rt_lib_shutdown_fp_trap_1              0x0000029f   Thumb Code     0  libshutdown2.o(.ARM.Collect$$libshutdown$$00000007)
    __rt_lib_shutdown_heap_1                 0x0000029f   Thumb Code     0  libshutdown2.o(.ARM.Collect$$libshutdown$$0000000F)
    __rt_lib_shutdown_return                 0x0000029f   Thumb Code     0  libshutdown2.o(.ARM.Collect$$libshutdown$$00000010)
    __rt_lib_shutdown_signal_1               0x0000029f   Thumb Code     0  libshutdown2.o(.ARM.Collect$$libshutdown$$0000000A)
    __rt_lib_shutdown_stdio_1                0x0000029f   Thumb Code     0  libshutdown2.o(.ARM.Collect$$libshutdown$$00000004)
    __rt_lib_shutdown_user_alloc_1           0x0000029f   Thumb Code     0  libshutdown2.o(.ARM.Collect$$libshutdown$$0000000C)
    __rt_entry                               0x000002a1   Thumb Code     0  __rtentry.o(.ARM.Collect$$rtentry$$00000000)
    __rt_entry_presh_1                       0x000002a1   Thumb Code     0  __rtentry2.o(.ARM.Collect$$rtentry$$00000002)
    __rt_entry_sh                            0x000002a1   Thumb Code     0  __rtentry4.o(.ARM.Collect$$rtentry$$00000004)
    __rt_entry_li                            0x000002a7   Thumb Code     0  __rtentry2.o(.ARM.Collect$$rtentry$$0000000A)
    __rt_entry_postsh_1                      0x000002a7   Thumb Code     0  __rtentry2.o(.ARM.Collect$$rtentry$$00000009)
    __rt_entry_postli_1                      0x000002ab   Thumb Code     0  __rtentry2.o(.ARM.Collect$$rtentry$$0000000B)
    __rt_entry_main                          0x000002b3   Thumb Code     0  __rtentry2.o(.ARM.Collect$$rtentry$$0000000D)
    __rt_exit                                0x000002bb   Thumb Code     0  rtexit.o(.ARM.Collect$$rtexit$$00000000)
    __rt_exit_ls                             0x000002bd   Thumb Code     0  rtexit2.o(.ARM.Collect$$rtexit$$00000003)
    __rt_exit_prels_1                        0x000002bd   Thumb Code     0  rtexit2.o(.ARM.Collect$$rtexit$$00000002)
    __rt_exit_exit                           0x000002c1   Thumb Code     0  rtexit2.o(.ARM.Collect$$rtexit$$00000004)
    _platform_post_lib_init                  0x000002c9   Thumb Code    24  rtx_conf_cm.o(.emb_text)
    SysCtlDelay                              0x000002e5   Thumb Code     6  sysctl.o(.emb_text)
    rt_set_PSP                               0x000002ed   Thumb Code     6  hal_cm4.o(.emb_text)
    rt_get_PSP                               0x000002f3   Thumb Code     6  hal_cm4.o(.emb_text)
    os_set_env                               0x000002f9   Thumb Code    24  hal_cm4.o(.emb_text)
    _alloc_box                               0x00000315   Thumb Code    28  hal_cm4.o(.emb_text)
    _free_box                                0x00000335   Thumb Code    28  hal_cm4.o(.emb_text)
    SVC_Handler                              0x00000355   Thumb Code   168  hal_cm4.o(.emb_text)
    PendSV_Handler                           0x0000040d   Thumb Code    96  hal_cm4.o(.emb_text)
    SysTick_Handler                          0x00000471   Thumb Code     8  hal_cm4.o(.emb_text)
    OS_Tick_Handler                          0x00000479   Thumb Code    12  hal_cm4.o(.emb_text)
    __RL_RTX_VER                             0x00000482   Number         0  rt_system.o ABSOLUTE
    main                                     0x00000485   Thumb Code   128  exemplotiva.o(.text)
    init_all                                 0x000005cb   Thumb Code    50  exemplotiva.o(.text)
    draw_pixel                               0x000005fd   Thumb Code    60  exemplotiva.o(.text)
    draw_Eddie                               0x00000639   Thumb Code   108  exemplotiva.o(.text)
    draw_Enemy                               0x000006a5   Thumb Code   108  exemplotiva.o(.text)
    draw_Boss                                0x00000711   Thumb Code   122  exemplotiva.o(.text)
    draw_Point                               0x0000078b   Thumb Code   108  exemplotiva.o(.text)
    draw_Key                                 0x000007f7   Thumb Code   108  exemplotiva.o(.text)
    drawBack                                 0x00000863   Thumb Code   250  exemplotiva.o(.text)
    draw                                     0x0000095d   Thumb Code   174  exemplotiva.o(.text)
    draw_circle                              0x00000a0b   Thumb Code    40  exemplotiva.o(.text)
    fill_circle                              0x00000a33   Thumb Code    42  exemplotiva.o(.text)
    saturate                                 0x00000a5d   Thumb Code   114  exemplotiva.o(.text)
    button_read_debounce                     0x00000acf   Thumb Code    26  exemplotiva.o(.text)
    InitializeBackGround                     0x00000ae9   Thumb Code    48  exemplotiva.o(.text)
    InitializeBacKGround                     0x00000b19   Thumb Code    18  exemplotiva.o(.text)
    Initialize                               0x00000b2b   Thumb Code   190  exemplotiva.o(.text)
    collisionStairsControllerUp              0x00000be9   Thumb Code    70  exemplotiva.o(.text)
    collisionStairsControllerDown            0x00000c2f   Thumb Code    68  exemplotiva.o(.text)
    EddieController                          0x00000c73   Thumb Code   378  exemplotiva.o(.text)
    EnemiesController                        0x00000ded   Thumb Code   100  exemplotiva.o(.text)
    PointsController                         0x00000e51   Thumb Code    80  exemplotiva.o(.text)
    BossController                           0x00000ea1   Thumb Code    70  exemplotiva.o(.text)
    collisionEnemyController                 0x00000ee7   Thumb Code    64  exemplotiva.o(.text)
    collisionPointController                 0x00000f27   Thumb Code    66  exemplotiva.o(.text)
    collisionKeyController                   0x00000f69   Thumb Code    46  exemplotiva.o(.text)
    collisionBossController                  0x00000f97   Thumb Code    62  exemplotiva.o(.text)
    ResetEddie                               0x00000fd5   Thumb Code    26  exemplotiva.o(.text)
    newPointPosition                         0x00000fef   Thumb Code    62  exemplotiva.o(.text)
    newEnemyPosition                         0x0000102d   Thumb Code    50  exemplotiva.o(.text)
    InitializeNewLevel                       0x0000105f   Thumb Code   158  exemplotiva.o(.text)
    OnPause                                  0x000010fd   Thumb Code     8  exemplotiva.o(.text)
    GameOver                                 0x00001105   Thumb Code    70  exemplotiva.o(.text)
    GameWon                                  0x0000114b   Thumb Code    68  exemplotiva.o(.text)
    NextLevel                                0x0000118f   Thumb Code    76  exemplotiva.o(.text)
    GameController                           0x000011db   Thumb Code   188  exemplotiva.o(.text)
    buzzer_write                             0x000012f1   Thumb Code    14  buzzer.o(.text)
    buzzer_vol_set                           0x000012ff   Thumb Code    54  buzzer.o(.text)
    buzzer_per_set                           0x00001335   Thumb Code    48  buzzer.o(.text)
    buzzer_init                              0x00001365   Thumb Code   120  buzzer.o(.text)
    accel_init                               0x000013f9   Thumb Code    18  accel.o(.text)
    accel_read_x                             0x00001473   Thumb Code     8  accel.o(.text)
    accel_read_y                             0x0000147b   Thumb Code     8  accel.o(.text)
    accel_read_z                             0x00001483   Thumb Code     8  accel.o(.text)
    button_init                              0x0000149d   Thumb Code    42  buttons.o(.text)
    button_read_s1                           0x000014c7   Thumb Code    20  buttons.o(.text)
    button_read_s2                           0x000014db   Thumb Code    20  buttons.o(.text)
    cfaf128x128x16Rect                       0x00001689   Thumb Code   100  cfaf128x128x16.o(.text)
    cfaf128x128x16LineVer                    0x000016ed   Thumb Code    22  cfaf128x128x16.o(.text)
    cfaf128x128x16LineHor                    0x00001703   Thumb Code    16  cfaf128x128x16.o(.text)
    cfaf128x128x16Dot                        0x00001713   Thumb Code    22  cfaf128x128x16.o(.text)
    cfaf128x128x16SetOrientation             0x0000196d   Thumb Code    70  cfaf128x128x16.o(.text)
    cfaf128x128x16ClearColor                 0x000019b3   Thumb Code    36  cfaf128x128x16.o(.text)
    cfaf128x128x16Clear                      0x000019d7   Thumb Code     4  cfaf128x128x16.o(.text)
    InitSSICom                               0x000019db   Thumb Code   138  cfaf128x128x16.o(.text)
    cfaf128x128x16Init                       0x00001a65   Thumb Code   322  cfaf128x128x16.o(.text)
    led_init                                 0x00001bf5   Thumb Code    52  led.o(.text)
    led_on                                   0x00001c29   Thumb Code    80  led.o(.text)
    led_off                                  0x00001c79   Thumb Code    80  led.o(.text)
    led_write                                0x00001cc9   Thumb Code    38  led.o(.text)
    mic_init                                 0x00001d11   Thumb Code    18  mic.o(.text)
    mic_read                                 0x00001d8b   Thumb Code     8  mic.o(.text)
    opt_read                                 0x00002173   Thumb Code     4  opt.o(.text)
    opt_read_lux                             0x00002199   Thumb Code    82  opt.o(.text)
    opt_init                                 0x000021eb   Thumb Code   244  opt.o(.text)
    rgb_write_r                              0x00002315   Thumb Code    82  rgb.o(.text)
    rgb_write_g                              0x00002367   Thumb Code    82  rgb.o(.text)
    rgb_write_b                              0x000023b9   Thumb Code    82  rgb.o(.text)
    rgb_write                                0x0000240b   Thumb Code    24  rgb.o(.text)
    rgb_write_color                          0x00002423   Thumb Code    12  rgb.o(.text)
    rgb_init                                 0x0000242f   Thumb Code   272  rgb.o(.text)
    servo_write                              0x00002569   Thumb Code    26  servo.o(.text)
    servo_init                               0x00002583   Thumb Code   164  servo.o(.text)
    joy_init                                 0x0000264d   Thumb Code    46  joy.o(.text)
    joy_read_center                          0x000026e3   Thumb Code    20  joy.o(.text)
    joy_read_x                               0x000026f7   Thumb Code     8  joy.o(.text)
    joy_read_y                               0x000026ff   Thumb Code     8  joy.o(.text)
    temp_read                                0x00002aeb   Thumb Code    12  temp.o(.text)
    temp_read_voltage                        0x00002af7   Thumb Code    22  temp.o(.text)
    temp_init                                0x00002b27   Thumb Code   230  temp.o(.text)
    os_idle_demon                            0x00002c41   Thumb Code     2  rtx_conf_cm.o(.text)
    os_error                                 0x00002c43   Thumb Code     2  rtx_conf_cm.o(.text)
    __user_perthread_libspace                0x00002c45   Thumb Code    32  rtx_conf_cm.o(.text)
    _mutex_initialize                        0x00002c65   Thumb Code    34  rtx_conf_cm.o(.text)
    _mutex_acquire                           0x00002c87   Thumb Code    22  rtx_conf_cm.o(.text)
    _mutex_release                           0x00002c9d   Thumb Code    18  rtx_conf_cm.o(.text)
    Reset_Handler                            0x00002ccd   Thumb Code     8  startup_tm4c129.o(.text)
    NMI_Handler                              0x00002cd5   Thumb Code     2  startup_tm4c129.o(.text)
    HardFault_Handler                        0x00002cd7   Thumb Code     2  startup_tm4c129.o(.text)
    MemManage_Handler                        0x00002cd9   Thumb Code     2  startup_tm4c129.o(.text)
    BusFault_Handler                         0x00002cdb   Thumb Code     2  startup_tm4c129.o(.text)
    UsageFault_Handler                       0x00002cdd   Thumb Code     2  startup_tm4c129.o(.text)
    DebugMon_Handler                         0x00002ce1   Thumb Code     2  startup_tm4c129.o(.text)
    GPIOA_Handler                            0x00002ce7   Thumb Code     2  startup_tm4c129.o(.text)
    GPIOB_Handler                            0x00002ce9   Thumb Code     2  startup_tm4c129.o(.text)
    GPIOC_Handler                            0x00002ceb   Thumb Code     2  startup_tm4c129.o(.text)
    GPIOD_Handler                            0x00002ced   Thumb Code     2  startup_tm4c129.o(.text)
    GPIOE_Handler                            0x00002cef   Thumb Code     2  startup_tm4c129.o(.text)
    UART0_Handler                            0x00002cf1   Thumb Code     2  startup_tm4c129.o(.text)
    UART1_Handler                            0x00002cf3   Thumb Code     2  startup_tm4c129.o(.text)
    SSI0_Handler                             0x00002cf5   Thumb Code     2  startup_tm4c129.o(.text)
    I2C0_Handler                             0x00002cf7   Thumb Code     2  startup_tm4c129.o(.text)
    PMW0_FAULT_Handler                       0x00002cf9   Thumb Code     2  startup_tm4c129.o(.text)
    PWM0_0_Handler                           0x00002cfb   Thumb Code     2  startup_tm4c129.o(.text)
    PWM0_1_Handler                           0x00002cfd   Thumb Code     2  startup_tm4c129.o(.text)
    PWM0_2_Handler                           0x00002cff   Thumb Code     2  startup_tm4c129.o(.text)
    QEI0_Handler                             0x00002d01   Thumb Code     2  startup_tm4c129.o(.text)
    ADC0SS0_Handler                          0x00002d03   Thumb Code     2  startup_tm4c129.o(.text)
    ADC0SS1_Handler                          0x00002d05   Thumb Code     2  startup_tm4c129.o(.text)
    ADC0SS2_Handler                          0x00002d07   Thumb Code     2  startup_tm4c129.o(.text)
    ADC0SS3_Handler                          0x00002d09   Thumb Code     2  startup_tm4c129.o(.text)
    WDT0_Handler                             0x00002d0b   Thumb Code     2  startup_tm4c129.o(.text)
    TIMER0A_Handler                          0x00002d0d   Thumb Code     2  startup_tm4c129.o(.text)
    TIMER0B_Handler                          0x00002d0f   Thumb Code     2  startup_tm4c129.o(.text)
    TIMER1A_Handler                          0x00002d11   Thumb Code     2  startup_tm4c129.o(.text)
    TIMER1B_Handler                          0x00002d13   Thumb Code     2  startup_tm4c129.o(.text)
    TIMER2A_Handler                          0x00002d15   Thumb Code     2  startup_tm4c129.o(.text)
    TIMER2B_Handler                          0x00002d17   Thumb Code     2  startup_tm4c129.o(.text)
    COMP0_Handler                            0x00002d19   Thumb Code     2  startup_tm4c129.o(.text)
    COMP1_Handler                            0x00002d1b   Thumb Code     2  startup_tm4c129.o(.text)
    COMP2_Handler                            0x00002d1d   Thumb Code     2  startup_tm4c129.o(.text)
    SYSCTL_Handler                           0x00002d1f   Thumb Code     2  startup_tm4c129.o(.text)
    FLASH_Handler                            0x00002d21   Thumb Code     2  startup_tm4c129.o(.text)
    GPIOF_Handler                            0x00002d23   Thumb Code     2  startup_tm4c129.o(.text)
    GPIOG_Handler                            0x00002d25   Thumb Code     2  startup_tm4c129.o(.text)
    GPIOH_Handler                            0x00002d27   Thumb Code     2  startup_tm4c129.o(.text)
    UART2_Handler                            0x00002d29   Thumb Code     2  startup_tm4c129.o(.text)
    SSI1_Handler                             0x00002d2b   Thumb Code     2  startup_tm4c129.o(.text)
    TIMER3A_Handler                          0x00002d2d   Thumb Code     2  startup_tm4c129.o(.text)
    TIMER3B_Handler                          0x00002d2f   Thumb Code     2  startup_tm4c129.o(.text)
    I2C1_Handler                             0x00002d31   Thumb Code     2  startup_tm4c129.o(.text)
    CAN0_Handler                             0x00002d33   Thumb Code     2  startup_tm4c129.o(.text)
    CAN1_Handler                             0x00002d35   Thumb Code     2  startup_tm4c129.o(.text)
    ETH_Handler                              0x00002d37   Thumb Code     2  startup_tm4c129.o(.text)
    HIB_Handler                              0x00002d39   Thumb Code     2  startup_tm4c129.o(.text)
    USB0_Handler                             0x00002d3b   Thumb Code     2  startup_tm4c129.o(.text)
    PWM0_3_Handler                           0x00002d3d   Thumb Code     2  startup_tm4c129.o(.text)
    UDMA_Handler                             0x00002d3f   Thumb Code     2  startup_tm4c129.o(.text)
    UDMAERR_Handler                          0x00002d41   Thumb Code     2  startup_tm4c129.o(.text)
    ADC1SS0_Handler                          0x00002d43   Thumb Code     2  startup_tm4c129.o(.text)
    ADC1SS1_Handler                          0x00002d45   Thumb Code     2  startup_tm4c129.o(.text)
    ADC1SS2_Handler                          0x00002d47   Thumb Code     2  startup_tm4c129.o(.text)
    ADC1SS3_Handler                          0x00002d49   Thumb Code     2  startup_tm4c129.o(.text)
    EBI0_Handler                             0x00002d4b   Thumb Code     2  startup_tm4c129.o(.text)
    GPIOJ_Handler                            0x00002d4d   Thumb Code     2  startup_tm4c129.o(.text)
    GPIOK_Handler                            0x00002d4f   Thumb Code     2  startup_tm4c129.o(.text)
    GPIOL_Handler                            0x00002d51   Thumb Code     2  startup_tm4c129.o(.text)
    SSI2_Handler                             0x00002d53   Thumb Code     2  startup_tm4c129.o(.text)
    SSI3_Handler                             0x00002d55   Thumb Code     2  startup_tm4c129.o(.text)
    UART3_Handler                            0x00002d57   Thumb Code     2  startup_tm4c129.o(.text)
    UART4_Handler                            0x00002d59   Thumb Code     2  startup_tm4c129.o(.text)
    UART5_Handler                            0x00002d5b   Thumb Code     2  startup_tm4c129.o(.text)
    UART6_Handler                            0x00002d5d   Thumb Code     2  startup_tm4c129.o(.text)
    UART7_Handler                            0x00002d5f   Thumb Code     2  startup_tm4c129.o(.text)
    I2C2_Handler                             0x00002d61   Thumb Code     2  startup_tm4c129.o(.text)
    I2C3_Handler                             0x00002d63   Thumb Code     2  startup_tm4c129.o(.text)
    TIMER4A_Handler                          0x00002d65   Thumb Code     2  startup_tm4c129.o(.text)
    TIMER4B_Handler                          0x00002d67   Thumb Code     2  startup_tm4c129.o(.text)
    TIMER5A_Handler                          0x00002d69   Thumb Code     2  startup_tm4c129.o(.text)
    TIMER5B_Handler                          0x00002d6b   Thumb Code     2  startup_tm4c129.o(.text)
    WTIMER0A_Handler                         0x00002d6d   Thumb Code     2  startup_tm4c129.o(.text)
    WTIMER0B_Handler                         0x00002d6f   Thumb Code     2  startup_tm4c129.o(.text)
    WTIMER1A_Handler                         0x00002d71   Thumb Code     2  startup_tm4c129.o(.text)
    WTIMER1B_Handler                         0x00002d73   Thumb Code     2  startup_tm4c129.o(.text)
    WTIMER2A_Handler                         0x00002d75   Thumb Code     2  startup_tm4c129.o(.text)
    WTIMER2B_Handler                         0x00002d77   Thumb Code     2  startup_tm4c129.o(.text)
    WTIMER3A_Handler                         0x00002d79   Thumb Code     2  startup_tm4c129.o(.text)
    WTIMER3B_Handler                         0x00002d7b   Thumb Code     2  startup_tm4c129.o(.text)
    WTIMER4A_Handler                         0x00002d7d   Thumb Code     2  startup_tm4c129.o(.text)
    WTIMER4B_Handler                         0x00002d7f   Thumb Code     2  startup_tm4c129.o(.text)
    WTIMER5A_Handler                         0x00002d81   Thumb Code     2  startup_tm4c129.o(.text)
    WTIMER5B_Handler                         0x00002d83   Thumb Code     2  startup_tm4c129.o(.text)
    FPU_Handler                              0x00002d85   Thumb Code     2  startup_tm4c129.o(.text)
    I2C4_Handler                             0x00002d87   Thumb Code     2  startup_tm4c129.o(.text)
    I2C5_Handler                             0x00002d89   Thumb Code     2  startup_tm4c129.o(.text)
    GPIOM_Handler                            0x00002d8b   Thumb Code     2  startup_tm4c129.o(.text)
    GPION_Handler                            0x00002d8d   Thumb Code     2  startup_tm4c129.o(.text)
    TAMPER_Handler                           0x00002d8f   Thumb Code     2  startup_tm4c129.o(.text)
    GPIOP0_Handler                           0x00002d91   Thumb Code     2  startup_tm4c129.o(.text)
    GPIOP1_Handler                           0x00002d93   Thumb Code     2  startup_tm4c129.o(.text)
    GPIOP2_Handler                           0x00002d95   Thumb Code     2  startup_tm4c129.o(.text)
    GPIOP3_Handler                           0x00002d97   Thumb Code     2  startup_tm4c129.o(.text)
    GPIOP4_Handler                           0x00002d99   Thumb Code     2  startup_tm4c129.o(.text)
    GPIOP5_Handler                           0x00002d9b   Thumb Code     2  startup_tm4c129.o(.text)
    GPIOP6_Handler                           0x00002d9d   Thumb Code     2  startup_tm4c129.o(.text)
    GPIOP7_Handler                           0x00002d9f   Thumb Code     2  startup_tm4c129.o(.text)
    GPIOQ0_Handler                           0x00002da1   Thumb Code     2  startup_tm4c129.o(.text)
    GPIOQ1_Handler                           0x00002da3   Thumb Code     2  startup_tm4c129.o(.text)
    GPIOQ2_Handler                           0x00002da5   Thumb Code     2  startup_tm4c129.o(.text)
    GPIOQ3_Handler                           0x00002da7   Thumb Code     2  startup_tm4c129.o(.text)
    GPIOQ4_Handler                           0x00002da9   Thumb Code     2  startup_tm4c129.o(.text)
    GPIOQ5_Handler                           0x00002dab   Thumb Code     2  startup_tm4c129.o(.text)
    GPIOQ6_Handler                           0x00002dad   Thumb Code     2  startup_tm4c129.o(.text)
    GPIOQ7_Handler                           0x00002daf   Thumb Code     2  startup_tm4c129.o(.text)
    GPIOR_Handler                            0x00002db1   Thumb Code     2  startup_tm4c129.o(.text)
    GPIOS_Handler                            0x00002db3   Thumb Code     2  startup_tm4c129.o(.text)
    SHAMD5_Handler                           0x00002db5   Thumb Code     2  startup_tm4c129.o(.text)
    AES_Handler                              0x00002db7   Thumb Code     2  startup_tm4c129.o(.text)
    DES3DES_Handler                          0x00002db9   Thumb Code     2  startup_tm4c129.o(.text)
    LCDCONTROLLER_Handler                    0x00002dbb   Thumb Code     2  startup_tm4c129.o(.text)
    TIMER6A_Handler                          0x00002dbd   Thumb Code     2  startup_tm4c129.o(.text)
    TIMER6B_Handler                          0x00002dbf   Thumb Code     2  startup_tm4c129.o(.text)
    TIMER7A_Handler                          0x00002dc1   Thumb Code     2  startup_tm4c129.o(.text)
    TIMER7B_Handler                          0x00002dc3   Thumb Code     2  startup_tm4c129.o(.text)
    I2C6_Handler                             0x00002dc5   Thumb Code     2  startup_tm4c129.o(.text)
    I2C7_Handler                             0x00002dc7   Thumb Code     2  startup_tm4c129.o(.text)
    HIMSCANKEYBOARD_Handler                  0x00002dc9   Thumb Code     2  startup_tm4c129.o(.text)
    ONEWIRE_Handler                          0x00002dcb   Thumb Code     2  startup_tm4c129.o(.text)
    HIMPS2_Handler                           0x00002dcd   Thumb Code     2  startup_tm4c129.o(.text)
    HIMLEDSEQUENCER_Handler                  0x00002dcf   Thumb Code     2  startup_tm4c129.o(.text)
    HIMCONSUMERIR_Handler                    0x00002dd1   Thumb Code     2  startup_tm4c129.o(.text)
    I2C8_Handler                             0x00002dd3   Thumb Code     2  startup_tm4c129.o(.text)
    I2C9_Handler                             0x00002dd5   Thumb Code     2  startup_tm4c129.o(.text)
    GPIOT_Handler                            0x00002dd7   Thumb Code     2  startup_tm4c129.o(.text)
    __user_initial_stackheap                 0x00002dd9   Thumb Code     0  startup_tm4c129.o(.text)
    SystemCoreClockUpdate                    0x00002df9   Thumb Code     8  system_tm4c129.o(.text)
    SystemInit                               0x00002e01   Thumb Code    18  system_tm4c129.o(.text)
    __user_libspace                          0x00002e21   Thumb Code     8  libspace.o(.text)
    __user_perproc_libspace                  0x00002e21   Thumb Code     0  libspace.o(.text)
    __aeabi_uldivmod                         0x00002e29   Thumb Code     0  lludivv7m.o(.text)
    _ll_udiv                                 0x00002e29   Thumb Code   238  lludivv7m.o(.text)
    __aeabi_ldivmod                          0x00002f17   Thumb Code     0  llsdiv.o(.text)
    _ll_sdiv                                 0x00002f17   Thumb Code    72  llsdiv.o(.text)
    exit                                     0x00002f5f   Thumb Code    18  exit.o(.text)
    __use_two_region_memory                  0x00002f71   Thumb Code     2  heapauxi.o(.text)
    __rt_heap_escrow$2region                 0x00002f73   Thumb Code     2  heapauxi.o(.text)
    __rt_heap_expand$2region                 0x00002f75   Thumb Code     2  heapauxi.o(.text)
    _sys_exit                                0x00002f79   Thumb Code     8  sys_exit.o(.text)
    __user_setup_stackheap                   0x00002f85   Thumb Code    74  sys_stackheap_outer.o(.text)
    __I$use$semihosting                      0x00002fcf   Thumb Code     0  use_no_semi.o(.text)
    __use_no_semihosting_swi                 0x00002fcf   Thumb Code     2  use_no_semi.o(.text)
    SVC_Count                                0x00002fd0   Data           4  svc_table.o(SVC_TABLE)
    __semihosting_library_function           0x00002fd1   Thumb Code     0  indicate_semi.o(.text)
    ADCIntClear                              0x00002fd5   Thumb Code    10  adc.o(i.ADCIntClear)
    SVC_Table                                0x00002fd4   Data           0  svc_table.o(SVC_TABLE)
    ADCIntStatus                             0x00002fdf   Thumb Code    52  adc.o(i.ADCIntStatus)
    ADCProcessorTrigger                      0x00003013   Thumb Code    26  adc.o(i.ADCProcessorTrigger)
    ADCSequenceConfigure                     0x0000302d   Thumb Code    96  adc.o(i.ADCSequenceConfigure)
    ADCSequenceDataGet                       0x0000308d   Thumb Code    36  adc.o(i.ADCSequenceDataGet)
    ADCSequenceEnable                        0x000030b1   Thumb Code    14  adc.o(i.ADCSequenceEnable)
    ADCSequenceStepConfigure                 0x000030bf   Thumb Code   154  adc.o(i.ADCSequenceStepConfigure)
    GPIODirModeSet                           0x00003159   Thumb Code    40  gpio.o(i.GPIODirModeSet)
    GPIOPadConfigSet                         0x00003181   Thumb Code   312  gpio.o(i.GPIOPadConfigSet)
    GPIOPinConfigure                         0x000032b9   Thumb Code    60  gpio.o(i.GPIOPinConfigure)
    GPIOPinRead                              0x000032fd   Thumb Code     6  gpio.o(i.GPIOPinRead)
    GPIOPinTypeADC                           0x00003303   Thumb Code    28  gpio.o(i.GPIOPinTypeADC)
    GPIOPinTypeGPIOInput                     0x0000331f   Thumb Code    28  gpio.o(i.GPIOPinTypeGPIOInput)
    GPIOPinTypeI2C                           0x0000333b   Thumb Code    28  gpio.o(i.GPIOPinTypeI2C)
    GPIOPinTypeI2CSCL                        0x00003357   Thumb Code    28  gpio.o(i.GPIOPinTypeI2CSCL)
    GPIOPinTypePWM                           0x00003373   Thumb Code    28  gpio.o(i.GPIOPinTypePWM)
    GPIOPinTypeTimer                         0x0000338f   Thumb Code    28  gpio.o(i.GPIOPinTypeTimer)
    GrCircleDraw                             0x000033ab   Thumb Code   514  circle.o(i.GrCircleDraw)
    GrCircleFill                             0x000035ad   Thumb Code   294  circle.o(i.GrCircleFill)
    GrLineDrawH                              0x000036d3   Thumb Code    76  line.o(i.GrLineDrawH)
    I2CIntRegister                           0x00003721   Thumb Code    80  i2c.o(i.I2CIntRegister)
    I2CMasterBurstLengthSet                  0x00003781   Thumb Code     4  i2c.o(i.I2CMasterBurstLengthSet)
    I2CMasterBusBusy                         0x00003785   Thumb Code    12  i2c.o(i.I2CMasterBusBusy)
    I2CMasterBusy                            0x00003791   Thumb Code    12  i2c.o(i.I2CMasterBusy)
    I2CMasterControl                         0x0000379d   Thumb Code     4  i2c.o(i.I2CMasterControl)
    I2CMasterDataGet                         0x000037a1   Thumb Code     4  i2c.o(i.I2CMasterDataGet)
    I2CMasterDataPut                         0x000037a5   Thumb Code     4  i2c.o(i.I2CMasterDataPut)
    I2CMasterEnable                          0x000037a9   Thumb Code    10  i2c.o(i.I2CMasterEnable)
    I2CMasterErr                             0x000037b3   Thumb Code    24  i2c.o(i.I2CMasterErr)
    I2CMasterGlitchFilterConfigSet           0x000037cd   Thumb Code    74  i2c.o(i.I2CMasterGlitchFilterConfigSet)
    I2CMasterInitExpClk                      0x00003821   Thumb Code    72  i2c.o(i.I2CMasterInitExpClk)
    I2CMasterIntClear                        0x00003875   Thumb Code     8  i2c.o(i.I2CMasterIntClear)
    I2CMasterIntClearEx                      0x0000387d   Thumb Code     4  i2c.o(i.I2CMasterIntClearEx)
    I2CMasterIntEnableEx                     0x00003881   Thumb Code     8  i2c.o(i.I2CMasterIntEnableEx)
    I2CMasterSlaveAddrSet                    0x00003889   Thumb Code     8  i2c.o(i.I2CMasterSlaveAddrSet)
    I2CMasterTimeoutSet                      0x00003891   Thumb Code     4  i2c.o(i.I2CMasterTimeoutSet)
    IntEnable                                0x00003895   Thumb Code    92  interrupt.o(i.IntEnable)
    IntRegister                              0x000038f9   Thumb Code    44  interrupt.o(i.IntRegister)
    PWMClockSet                              0x0000392d   Thumb Code    20  pwm.o(i.PWMClockSet)
    PWMGenConfigure                          0x00003941   Thumb Code    38  pwm.o(i.PWMGenConfigure)
    PWMGenDisable                            0x00003967   Thumb Code    10  pwm.o(i.PWMGenDisable)
    PWMGenEnable                             0x00003971   Thumb Code    10  pwm.o(i.PWMGenEnable)
    PWMGenPeriodGet                          0x0000397b   Thumb Code    18  pwm.o(i.PWMGenPeriodGet)
    PWMGenPeriodSet                          0x0000398d   Thumb Code    18  pwm.o(i.PWMGenPeriodSet)
    PWMOutputInvert                          0x0000399f   Thumb Code    16  pwm.o(i.PWMOutputInvert)
    PWMOutputState                           0x000039af   Thumb Code    16  pwm.o(i.PWMOutputState)
    PWMPulseWidthSet                         0x000039bf   Thumb Code    32  pwm.o(i.PWMPulseWidthSet)
    SysCtlClockFreqSet                       0x000039e1   Thumb Code   706  sysctl.o(i.SysCtlClockFreqSet)
    SysCtlPeripheralEnable                   0x00003ccd   Thumb Code    36  sysctl.o(i.SysCtlPeripheralEnable)
    SysCtlPeripheralReady                    0x00003cf5   Thumb Code    40  sysctl.o(i.SysCtlPeripheralReady)
    SysCtlPeripheralReset                    0x00003d21   Thumb Code    56  sysctl.o(i.SysCtlPeripheralReset)
    TimerClockSourceSet                      0x00003d5d   Thumb Code     6  timer.o(i.TimerClockSourceSet)
    TimerConfigure                           0x00003d65   Thumb Code    88  timer.o(i.TimerConfigure)
    TimerControlLevel                        0x00003dc5   Thumb Code    22  timer.o(i.TimerControlLevel)
    TimerEnable                              0x00003ddb   Thumb Code    14  timer.o(i.TimerEnable)
    TimerLoadSet                             0x00003de9   Thumb Code    18  timer.o(i.TimerLoadSet)
    TimerMatchSet                            0x00003dfb   Thumb Code    18  timer.o(i.TimerMatchSet)
    TimerPrescaleSet                         0x00003e0d   Thumb Code    18  timer.o(i.TimerPrescaleSet)
    TimerUpdateMode                          0x00003e1f   Thumb Code    42  timer.o(i.TimerUpdateMode)
    _init_box                                0x00003e49   Thumb Code    70  rt_membox.o(i._init_box)
    dbg_init                                 0x00003e91   Thumb Code    34  hal_cm.o(i.dbg_init)
    dbg_task_notify                          0x00003ec1   Thumb Code    32  hal_cm.o(i.dbg_task_notify)
    dbg_task_switch                          0x00003ee1   Thumb Code    16  hal_cm.o(i.dbg_task_switch)
    isrMessageGet                            0x00003ef1   Thumb Code    42  rt_cmsis.o(i.isrMessageGet)
    isrMessagePut                            0x00003f1b   Thumb Code    44  rt_cmsis.o(i.isrMessagePut)
    isr_mbx_receive                          0x00003f49   Thumb Code    86  rt_mailbox.o(i.isr_mbx_receive)
    isr_mbx_send                             0x00003f9f   Thumb Code    14  rt_mailbox.o(i.isr_mbx_send)
    osDelay                                  0x00003fad   Thumb Code    18  rt_cmsis.o(i.osDelay)
    osKernelInitialize                       0x00003fc5   Thumb Code    30  rt_cmsis.o(i.osKernelInitialize)
    osKernelStart                            0x00003fe9   Thumb Code    98  rt_cmsis.o(i.osKernelStart)
    osMessageGet                             0x00004055   Thumb Code    18  rt_cmsis.o(i.osMessageGet)
    osMutexCreate                            0x0000406d   Thumb Code    36  rt_cmsis.o(i.osMutexCreate)
    osThreadCreate                           0x00004099   Thumb Code    36  rt_cmsis.o(i.osThreadCreate)
    osThreadExit                             0x000040c5   Thumb Code    14  rt_cmsis.o(i.osThreadExit)
    osTimerCall                              0x000040dd   Thumb Code     8  rt_cmsis.o(i.osTimerCall)
    osTimerCreate                            0x000040e9   Thumb Code    36  rt_cmsis.o(i.osTimerCreate)
    osTimerStart                             0x00004115   Thumb Code    18  rt_cmsis.o(i.osTimerStart)
    osTimerStop                              0x0000412d   Thumb Code    18  rt_cmsis.o(i.osTimerStop)
    osTimerThread                            0x00004145   Thumb Code    38  rt_cmsis.o(i.osTimerThread)
    os_tick_init                             0x00004171   Thumb Code    32  rt_system.o(i.os_tick_init)
    os_tick_irqack                           0x00004199   Thumb Code     2  rt_system.o(i.os_tick_irqack)
    rt_alloc_box                             0x0000419b   Thumb Code    26  rt_membox.o(i.rt_alloc_box)
    rt_alloc_mem                             0x000041b5   Thumb Code    62  rt_memory.o(i.rt_alloc_mem)
    rt_block                                 0x000041f5   Thumb Code    48  rt_task.o(i.rt_block)
    rt_chk_robin                             0x0000422d   Thumb Code    60  rt_robin.o(i.rt_chk_robin)
    rt_dec_dly                               0x00004275   Thumb Code   102  rt_list.o(i.rt_dec_dly)
    rt_dispatch                              0x000042e5   Thumb Code    60  rt_task.o(i.rt_dispatch)
    rt_dly_wait                              0x00004329   Thumb Code     6  rt_time.o(i.rt_dly_wait)
    rt_evt_psh                               0x00004331   Thumb Code    76  rt_event.o(i.rt_evt_psh)
    rt_free_box                              0x00004381   Thumb Code    44  rt_membox.o(i.rt_free_box)
    rt_free_mem                              0x000043ad   Thumb Code    40  rt_memory.o(i.rt_free_mem)
    rt_get_first                             0x000043d5   Thumb Code    40  rt_list.o(i.rt_get_first)
    rt_init_mem                              0x0000444d   Thumb Code    26  rt_memory.o(i.rt_init_mem)
    rt_init_robin                            0x00004469   Thumb Code    14  rt_robin.o(i.rt_init_robin)
    rt_init_stack                            0x00004481   Thumb Code   118  hal_cm.o(i.rt_init_stack)
    rt_mbx_check                             0x00004501   Thumb Code     8  rt_mailbox.o(i.rt_mbx_check)
    rt_mbx_init                              0x00004509   Thumb Code    26  rt_mailbox.o(i.rt_mbx_init)
    rt_mbx_psh                               0x00004525   Thumb Code   236  rt_mailbox.o(i.rt_mbx_psh)
    rt_mbx_wait                              0x00004615   Thumb Code   174  rt_mailbox.o(i.rt_mbx_wait)
    rt_mut_init                              0x0000470d   Thumb Code    16  rt_mutex.o(i.rt_mut_init)
    rt_mut_release                           0x0000471d   Thumb Code   208  rt_mutex.o(i.rt_mut_release)
    rt_mut_wait                              0x000047f5   Thumb Code   114  rt_mutex.o(i.rt_mut_wait)
    rt_pop_req                               0x0000486d   Thumb Code   112  rt_system.o(i.rt_pop_req)
    rt_psh_req                               0x000048e9   Thumb Code    22  rt_system.o(i.rt_psh_req)
    rt_psq_enq                               0x00004909   Thumb Code    88  rt_list.o(i.rt_psq_enq)
    rt_put_dly                               0x00004965   Thumb Code    68  rt_list.o(i.rt_put_dly)
    rt_put_prio                              0x000049ad   Thumb Code    54  rt_list.o(i.rt_put_prio)
    rt_put_rdy_first                         0x000049e5   Thumb Code    14  rt_list.o(i.rt_put_rdy_first)
    rt_resort_prio                           0x000049f9   Thumb Code    46  rt_list.o(i.rt_resort_prio)
    rt_ret_val                               0x00004a3d   Thumb Code    12  hal_cm.o(i.rt_ret_val)
    rt_ret_val2                              0x00004a49   Thumb Code    16  hal_cm.o(i.rt_ret_val2)
    rt_rmv_dly                               0x00004a59   Thumb Code    40  rt_list.o(i.rt_rmv_dly)
    rt_rmv_list                              0x00004a81   Thumb Code    44  rt_list.o(i.rt_rmv_list)
    rt_sem_psh                               0x00004ab1   Thumb Code    48  rt_semaphore.o(i.rt_sem_psh)
    rt_stk_check                             0x00004ae5   Thumb Code    28  rt_system.o(i.rt_stk_check)
    rt_switch_req                            0x00004b09   Thumb Code    30  rt_task.o(i.rt_switch_req)
    rt_sys_init                              0x00004b31   Thumb Code   138  rt_task.o(i.rt_sys_init)
    rt_sys_start                             0x00004bfd   Thumb Code   110  rt_task.o(i.rt_sys_start)
    rt_systick                               0x00004c75   Thumb Code    50  rt_system.o(i.rt_systick)
    rt_tsk_create                            0x00004d39   Thumb Code   118  rt_task.o(i.rt_tsk_create)
    rt_tsk_delete                            0x00004dc1   Thumb Code   352  rt_task.o(i.rt_tsk_delete)
    rt_tsk_prio                              0x00004f3d   Thumb Code   108  rt_task.o(i.rt_tsk_prio)
    rt_tsk_self                              0x00004fb9   Thumb Code    12  rt_task.o(i.rt_tsk_self)
    svcDelay                                 0x00004fc9   Thumb Code    18  rt_cmsis.o(i.svcDelay)
    svcKernelInitialize                      0x00004fdd   Thumb Code    80  rt_cmsis.o(i.svcKernelInitialize)
    svcKernelStart                           0x0000504d   Thumb Code    62  rt_cmsis.o(i.svcKernelStart)
    svcMessageCreate                         0x00005095   Thumb Code    36  rt_cmsis.o(i.svcMessageCreate)
    svcMessageGet                            0x000050b9   Thumb Code    58  rt_cmsis.o(i.svcMessageGet)
    svcMutexCreate                           0x000050f3   Thumb Code    28  rt_cmsis.o(i.svcMutexCreate)
    svcThreadCreate                          0x00005111   Thumb Code    96  rt_cmsis.o(i.svcThreadCreate)
    svcThreadGetId                           0x0000517d   Thumb Code    22  rt_cmsis.o(i.svcThreadGetId)
    svcThreadTerminate                       0x00005199   Thumb Code    50  rt_cmsis.o(i.svcThreadTerminate)
    svcTimerCall                             0x000051d1   Thumb Code    24  rt_cmsis.o(i.svcTimerCall)
    svcTimerCreate                           0x000051e9   Thumb Code    52  rt_cmsis.o(i.svcTimerCreate)
    svcTimerStart                            0x00005221   Thumb Code    96  rt_cmsis.o(i.svcTimerStart)
    svcTimerStop                             0x00005285   Thumb Code    36  rt_cmsis.o(i.svcTimerStop)
    sysTimerTick                             0x000052a9   Thumb Code    84  rt_cmsis.o(i.sysTimerTick)
    __aeabi_dadd                             0x00005305   Thumb Code     0  daddsub_clz.o(x$fpl$dadd)
    _dadd                                    0x00005305   Thumb Code   332  daddsub_clz.o(x$fpl$dadd)
    __aeabi_d2uiz                            0x00005455   Thumb Code     0  dfixu.o(x$fpl$dfixu)
    _dfixu                                   0x00005455   Thumb Code    90  dfixu.o(x$fpl$dfixu)
    __aeabi_ui2d                             0x000054af   Thumb Code     0  dflt_clz.o(x$fpl$dfltu)
    _dfltu                                   0x000054af   Thumb Code    38  dflt_clz.o(x$fpl$dfltu)
    __aeabi_dmul                             0x000054d5   Thumb Code     0  dmul.o(x$fpl$dmul)
    _dmul                                    0x000054d5   Thumb Code   332  dmul.o(x$fpl$dmul)
    __fpl_dnaninf                            0x00005629   Thumb Code   156  dnaninf.o(x$fpl$dnaninf)
    __fpl_dretinf                            0x000056c5   Thumb Code    12  dretinf.o(x$fpl$dretinf)
    __aeabi_dsub                             0x000056d1   Thumb Code     0  daddsub_clz.o(x$fpl$dsub)
    _dsub                                    0x000056d1   Thumb Code   464  daddsub_clz.o(x$fpl$dsub)
    _fp_init                                 0x000058a5   Thumb Code    10  fpinit.o(x$fpl$fpinit)
    __fplib_config_fpu_vfp                   0x000058ad   Thumb Code     0  fpinit.o(x$fpl$fpinit)
    __fplib_config_pureend_doubles           0x000058ad   Thumb Code     0  fpinit.o(x$fpl$fpinit)
    __I$use$fp                               0x000058ae   Number         0  usenofp.o(x$fpl$usenofp)
    os_mutex_def_mutex_tela                  0x000058b0   Data           4  exemplotiva.o(.constdata)
    os_timer_def_timer_eddie                 0x000058b4   Data           8  exemplotiva.o(.constdata)
    os_timer_def_timer_points                0x000058bc   Data           8  exemplotiva.o(.constdata)
    os_timer_def_timer_boss                  0x000058c4   Data           8  exemplotiva.o(.constdata)
    os_timer_def_timer_enemies               0x000058cc   Data           8  exemplotiva.o(.constdata)
    os_thread_def_GameController             0x000058d4   Data          16  exemplotiva.o(.constdata)
    Background                               0x000058e4   Data       49206  background.o(.constdata)
    Background_start                         0x0001191c   Data           4  background.o(.constdata)
    inimigo                                  0x00011920   Data          86  inimigo.o(.constdata)
    inimigo_start                            0x00011978   Data           4  inimigo.o(.constdata)
    boss                                     0x0001197c   Data         146  boss.o(.constdata)
    boss_start                               0x00011a10   Data           4  boss.o(.constdata)
    point                                    0x00011a14   Data          86  point.o(.constdata)
    point_start                              0x00011a6c   Data           4  point.o(.constdata)
    key                                      0x00011a70   Data          60  key.o(.constdata)
    key_start                                0x00011aac   Data           4  key.o(.constdata)
    Background2                              0x00011ab0   Data       49167  background2.o(.constdata)
    Background2_start                        0x0001dac0   Data           4  background2.o(.constdata)
    led_mask                                 0x0001dac4   Data          16  led.o(.constdata)
    Eddie                                    0x0001dad4   Data         372  eddiev3.o(.constdata)
    Eddie_start                              0x0001dc48   Data           4  eddiev3.o(.constdata)
    os_maxtaskrun                            0x0001dc4c   Data           2  rtx_conf_cm.o(.constdata)
    os_stackinfo                             0x0001dc50   Data           4  rtx_conf_cm.o(.constdata)
    os_rrobin                                0x0001dc54   Data           4  rtx_conf_cm.o(.constdata)
    os_trv                                   0x0001dc58   Data           4  rtx_conf_cm.o(.constdata)
    os_flags                                 0x0001dc5c   Data           1  rtx_conf_cm.o(.constdata)
    CMSIS_RTOS_API_Version                   0x0001dc60   Data           4  rtx_conf_cm.o(.constdata)
    CMSIS_RTOS_RTX_Version                   0x0001dc64   Data           4  rtx_conf_cm.o(.constdata)
    os_clockrate                             0x0001dc68   Data           4  rtx_conf_cm.o(.constdata)
    os_timernum                              0x0001dc6c   Data           4  rtx_conf_cm.o(.constdata)
    mp_tcb_size                              0x0001dc70   Data           2  rtx_conf_cm.o(.constdata)
    mp_stk_size                              0x0001dc74   Data           4  rtx_conf_cm.o(.constdata)
    os_stack_sz                              0x0001dc78   Data           4  rtx_conf_cm.o(.constdata)
    os_fifo_size                             0x0001dc7c   Data           1  rtx_conf_cm.o(.constdata)
    os_thread_def_osTimerThread              0x0001dc80   Data          16  rtx_conf_cm.o(.constdata)
    os_messageQ_def_osTimerMessageQ          0x0001dc90   Data           8  rtx_conf_cm.o(.constdata)
    mp_tmr_size                              0x0001dc98   Data           2  rtx_conf_cm.o(.constdata)
    os_thread_def_main                       0x0001dc9c   Data          16  rtx_conf_cm.o(.constdata)
    Region$$Table$$Base                      0x0001e2dc   Number         0  anon$$obj.o(Region$$Table)
    Region$$Table$$Limit                     0x0001e2fc   Number         0  anon$$obj.o(Region$$Table)
    going_up                                 0x20000000   Data           1  exemplotiva.o(.data)
    going_up_counter                         0x20000001   Data           1  exemplotiva.o(.data)
    going_down                               0x20000002   Data           1  exemplotiva.o(.data)
    going_down_counter                       0x20000003   Data           1  exemplotiva.o(.data)
    jumping                                  0x20000004   Data           1  exemplotiva.o(.data)
    jumping_counter                          0x20000005   Data           1  exemplotiva.o(.data)
    jumping_side                             0x20000006   Data           1  exemplotiva.o(.data)
    Boss_side                                0x20000007   Data           1  exemplotiva.o(.data)
    level                                    0x20000008   Data           1  exemplotiva.o(.data)
    points                                   0x20000009   Data           1  exemplotiva.o(.data)
    boss_height                              0x2000000a   Data           1  exemplotiva.o(.data)
    lives                                    0x2000000b   Data           1  exemplotiva.o(.data)
    game_over                                0x2000000c   Data           1  exemplotiva.o(.data)
    game_won                                 0x2000000d   Data           1  exemplotiva.o(.data)
    onPause                                  0x2000000e   Data           1  exemplotiva.o(.data)
    points_move                              0x2000000f   Data           2  exemplotiva.o(.data)
    score                                    0x20000012   Data           2  exemplotiva.o(.data)
    Eddie_x                                  0x20000018   Data           4  exemplotiva.o(.data)
    Eddie_y                                  0x2000001c   Data           4  exemplotiva.o(.data)
    enemies_side                             0x20000020   Data           4  exemplotiva.o(.data)
    Boss_x                                   0x20000024   Data           4  exemplotiva.o(.data)
    Boss_y                                   0x20000028   Data           4  exemplotiva.o(.data)
    Key_y                                    0x2000002c   Data           4  exemplotiva.o(.data)
    mutex_tela                               0x20000030   Data           4  exemplotiva.o(.data)
    t_eddie                                  0x20000034   Data           4  exemplotiva.o(.data)
    t_points                                 0x20000038   Data           4  exemplotiva.o(.data)
    t_boss                                   0x2000003c   Data           4  exemplotiva.o(.data)
    t_enemies                                0x20000040   Data           4  exemplotiva.o(.data)
    points_x                                 0x20000044   Data           8  exemplotiva.o(.data)
    points_y                                 0x2000004c   Data           8  exemplotiva.o(.data)
    m_tmr                                    0x20000090   Data           4  rtx_conf_cm.o(.data)
    osThreadId_osTimerThread                 0x20000094   Data           4  rtx_conf_cm.o(.data)
    osMessageQId_osTimerMessageQ             0x20000098   Data           4  rtx_conf_cm.o(.data)
    SystemCoreClock                          0x200000a0   Data           4  system_tm4c129.o(.data)
    os_initialized                           0x200000a4   Data           1  rt_cmsis.o(.data)
    os_running                               0x200000a5   Data           1  rt_cmsis.o(.data)
    os_timer_head                            0x200000a8   Data           4  rt_cmsis.o(.data)
    os_tsk                                   0x200000ac   Data           8  rt_task.o(.data)
    os_tick_irqn                             0x200000b8   Data           4  rt_system.o(.data)
    os_time                                  0x200000bc   Data           4  rt_time.o(.data)
    os_robin                                 0x200000c0   Data           8  rt_robin.o(.data)
    dbg_msg                                  0x200000c8   Data           1  hal_cm.o(.data)
    os_mutex_cb_mutex_tela                   0x2000066c   Data          16  exemplotiva.o(.bss)
    sContext                                 0x2000067c   Data          44  exemplotiva.o(.bss)
    escadas_x                                0x200006a8   Data          16  exemplotiva.o(.bss)
    escadas_y                                0x200006b8   Data          16  exemplotiva.o(.bss)
    enemies_x                                0x200006c8   Data          16  exemplotiva.o(.bss)
    enemies_y                                0x200006d8   Data          16  exemplotiva.o(.bss)
    os_timer_cb_timer_eddie                  0x200006e8   Data          24  exemplotiva.o(.bss)
    os_timer_cb_timer_points                 0x20000700   Data          24  exemplotiva.o(.bss)
    os_timer_cb_timer_boss                   0x20000718   Data          24  exemplotiva.o(.bss)
    os_timer_cb_timer_enemies                0x20000730   Data          24  exemplotiva.o(.bss)
    os_messageQ_q_osTimerMessageQ            0x20000748   Data          32  rtx_conf_cm.o(.bss)
    mp_tcb                                   0x20000768   Data         480  rtx_conf_cm.o(.bss)
    mp_stk                                   0x20000948   Data        6416  rtx_conf_cm.o(.bss)
    os_stack_mem                             0x20002258   Data        1032  rtx_conf_cm.o(.bss)
    os_fifo                                  0x20002660   Data         132  rtx_conf_cm.o(.bss)
    os_active_TCB                            0x200026e4   Data          36  rtx_conf_cm.o(.bss)
    os_idle_TCB                              0x20002ae8   Data          52  rt_task.o(.bss)
    os_rdy                                   0x20002b1c   Data          24  rt_list.o(.bss)
    os_dly                                   0x20002b34   Data          24  rt_list.o(.bss)
    __libspace_start                         0x20002b4c   Data          96  libspace.o(.bss)
    __temporary_stack_top$libspace           0x20002bac   Data           0  libspace.o(.bss)



==============================================================================

Memory Map of the image

  Image Entry point : 0x00000201

  Load Region LR_IROM1 (Base: 0x00000000, Size: 0x0001e968, Max: 0x00100000, ABSOLUTE, COMPRESSED[0x0001e314])

    Execution Region ER_IROM1 (Exec base: 0x00000000, Load base: 0x00000000, Size: 0x0001e2fc, Max: 0x00100000, ABSOLUTE)

    Exec Addr    Load Addr    Size         Type   Attr      Idx    E Section Name        Object

    0x00000000   0x00000000   0x00000200   Data   RO          528    RESET               startup_tm4c129.o
    0x00000200   0x00000200   0x00000008   Code   RO         3711  * !!!main             c_w.l(__main.o)
    0x00000208   0x00000208   0x00000034   Code   RO         3897    !!!scatter          c_w.l(__scatter.o)
    0x0000023c   0x0000023c   0x0000003a   Code   RO         3895    !!dczerorl          c_w.l(__dczerorl.o)
    0x00000276   0x00000276   0x00000002   PAD
    0x00000278   0x00000278   0x0000001c   Code   RO         3899    !!handler_zi        c_w.l(__scatter_zi.o)
    0x00000294   0x00000294   0x00000002   Code   RO         3781    .ARM.Collect$$libinit$$00000000  c_w.l(libinit.o)
    0x00000296   0x00000296   0x00000004   Code   RO         3792    .ARM.Collect$$libinit$$00000001  c_w.l(libinit2.o)
    0x0000029a   0x0000029a   0x00000000   Code   RO         3795    .ARM.Collect$$libinit$$00000004  c_w.l(libinit2.o)
    0x0000029a   0x0000029a   0x00000000   Code   RO         3798    .ARM.Collect$$libinit$$0000000A  c_w.l(libinit2.o)
    0x0000029a   0x0000029a   0x00000000   Code   RO         3800    .ARM.Collect$$libinit$$0000000C  c_w.l(libinit2.o)
    0x0000029a   0x0000029a   0x00000000   Code   RO         3802    .ARM.Collect$$libinit$$0000000E  c_w.l(libinit2.o)
    0x0000029a   0x0000029a   0x00000000   Code   RO         3805    .ARM.Collect$$libinit$$00000011  c_w.l(libinit2.o)
    0x0000029a   0x0000029a   0x00000000   Code   RO         3807    .ARM.Collect$$libinit$$00000013  c_w.l(libinit2.o)
    0x0000029a   0x0000029a   0x00000000   Code   RO         3809    .ARM.Collect$$libinit$$00000015  c_w.l(libinit2.o)
    0x0000029a   0x0000029a   0x00000000   Code   RO         3811    .ARM.Collect$$libinit$$00000017  c_w.l(libinit2.o)
    0x0000029a   0x0000029a   0x00000000   Code   RO         3813    .ARM.Collect$$libinit$$00000019  c_w.l(libinit2.o)
    0x0000029a   0x0000029a   0x00000000   Code   RO         3815    .ARM.Collect$$libinit$$0000001B  c_w.l(libinit2.o)
    0x0000029a   0x0000029a   0x00000000   Code   RO         3817    .ARM.Collect$$libinit$$0000001D  c_w.l(libinit2.o)
    0x0000029a   0x0000029a   0x00000000   Code   RO         3819    .ARM.Collect$$libinit$$0000001F  c_w.l(libinit2.o)
    0x0000029a   0x0000029a   0x00000000   Code   RO         3821    .ARM.Collect$$libinit$$00000021  c_w.l(libinit2.o)
    0x0000029a   0x0000029a   0x00000000   Code   RO         3823    .ARM.Collect$$libinit$$00000023  c_w.l(libinit2.o)
    0x0000029a   0x0000029a   0x00000000   Code   RO         3825    .ARM.Collect$$libinit$$00000025  c_w.l(libinit2.o)
    0x0000029a   0x0000029a   0x00000000   Code   RO         3829    .ARM.Collect$$libinit$$0000002C  c_w.l(libinit2.o)
    0x0000029a   0x0000029a   0x00000000   Code   RO         3831    .ARM.Collect$$libinit$$0000002E  c_w.l(libinit2.o)
    0x0000029a   0x0000029a   0x00000000   Code   RO         3833    .ARM.Collect$$libinit$$00000030  c_w.l(libinit2.o)
    0x0000029a   0x0000029a   0x00000000   Code   RO         3835    .ARM.Collect$$libinit$$00000032  c_w.l(libinit2.o)
    0x0000029a   0x0000029a   0x00000002   Code   RO         3836    .ARM.Collect$$libinit$$00000033  c_w.l(libinit2.o)
    0x0000029c   0x0000029c   0x00000002   Code   RO         3782    .ARM.Collect$$libshutdown$$00000000  c_w.l(libshutdown.o)
    0x0000029e   0x0000029e   0x00000000   Code   RO         3838    .ARM.Collect$$libshutdown$$00000002  c_w.l(libshutdown2.o)
    0x0000029e   0x0000029e   0x00000000   Code   RO         3840    .ARM.Collect$$libshutdown$$00000004  c_w.l(libshutdown2.o)
    0x0000029e   0x0000029e   0x00000000   Code   RO         3843    .ARM.Collect$$libshutdown$$00000007  c_w.l(libshutdown2.o)
    0x0000029e   0x0000029e   0x00000000   Code   RO         3846    .ARM.Collect$$libshutdown$$0000000A  c_w.l(libshutdown2.o)
    0x0000029e   0x0000029e   0x00000000   Code   RO         3848    .ARM.Collect$$libshutdown$$0000000C  c_w.l(libshutdown2.o)
    0x0000029e   0x0000029e   0x00000000   Code   RO         3851    .ARM.Collect$$libshutdown$$0000000F  c_w.l(libshutdown2.o)
    0x0000029e   0x0000029e   0x00000002   Code   RO         3852    .ARM.Collect$$libshutdown$$00000010  c_w.l(libshutdown2.o)
    0x000002a0   0x000002a0   0x00000000   Code   RO         3731    .ARM.Collect$$rtentry$$00000000  c_w.l(__rtentry.o)
    0x000002a0   0x000002a0   0x00000000   Code   RO         3744    .ARM.Collect$$rtentry$$00000002  c_w.l(__rtentry2.o)
    0x000002a0   0x000002a0   0x00000006   Code   RO         3756    .ARM.Collect$$rtentry$$00000004  c_w.l(__rtentry4.o)
    0x000002a6   0x000002a6   0x00000000   Code   RO         3746    .ARM.Collect$$rtentry$$00000009  c_w.l(__rtentry2.o)
    0x000002a6   0x000002a6   0x00000004   Code   RO         3747    .ARM.Collect$$rtentry$$0000000A  c_w.l(__rtentry2.o)
    0x000002aa   0x000002aa   0x00000008   Code   RO         3748    .ARM.Collect$$rtentry$$0000000B  c_w.l(__rtentry2.o)
    0x000002b2   0x000002b2   0x00000008   Code   RO         3750    .ARM.Collect$$rtentry$$0000000D  c_w.l(__rtentry2.o)
    0x000002ba   0x000002ba   0x00000002   Code   RO         3732    .ARM.Collect$$rtexit$$00000000  c_w.l(rtexit.o)
    0x000002bc   0x000002bc   0x00000000   Code   RO         3759    .ARM.Collect$$rtexit$$00000002  c_w.l(rtexit2.o)
    0x000002bc   0x000002bc   0x00000004   Code   RO         3760    .ARM.Collect$$rtexit$$00000003  c_w.l(rtexit2.o)
    0x000002c0   0x000002c0   0x00000006   Code   RO         3761    .ARM.Collect$$rtexit$$00000004  c_w.l(rtexit2.o)
    0x000002c6   0x000002c6   0x00000002   PAD
    0x000002c8   0x000002c8   0x0000001c   Code   RO          472    .emb_text           rtx_conf_cm.o
    0x000002e4   0x000002e4   0x00000006   Code   RO         1834    .emb_text           driverlib.lib(sysctl.o)
    0x000002ea   0x000002ea   0x00000002   PAD
    0x000002ec   0x000002ec   0x00000198   Code   RO         3685    .emb_text           RTX_CM4.lib(hal_cm4.o)
    0x00000484   0x00000484   0x00000e20   Code   RO            4    .text               exemplotiva.o
    0x000012a4   0x000012a4   0x00000154   Code   RO          219    .text               buzzer.o
    0x000013f8   0x000013f8   0x000000a4   Code   RO          257    .text               accel.o
    0x0000149c   0x0000149c   0x0000005c   Code   RO          275    .text               buttons.o
    0x000014f8   0x000014f8   0x000006fc   Code   RO          290    .text               cfaf128x128x16.o
    0x00001bf4   0x00001bf4   0x0000011c   Code   RO          330    .text               led.o
    0x00001d10   0x00001d10   0x00000094   Code   RO          357    .text               mic.o
    0x00001da4   0x00001da4   0x00000570   Code   RO          369    .text               opt.o
    0x00002314   0x00002314   0x00000254   Code   RO          398    .text               rgb.o
    0x00002568   0x00002568   0x000000e4   Code   RO          412    .text               servo.o
    0x0000264c   0x0000264c   0x000000d0   Code   RO          429    .text               joy.o
    0x0000271c   0x0000271c   0x00000524   Code   RO          441    .text               temp.o
    0x00002c40   0x00002c40   0x0000008c   Code   RO          473    .text               rtx_conf_cm.o
    0x00002ccc   0x00002ccc   0x0000012c   Code   RO          529    .text               startup_tm4c129.o
    0x00002df8   0x00002df8   0x00000028   Code   RO          536    .text               system_tm4c129.o
    0x00002e20   0x00002e20   0x00000008   Code   RO         3700    .text               c_w.l(libspace.o)
    0x00002e28   0x00002e28   0x000000ee   Code   RO         3703    .text               c_w.l(lludivv7m.o)
    0x00002f16   0x00002f16   0x00000048   Code   RO         3705    .text               c_w.l(llsdiv.o)
    0x00002f5e   0x00002f5e   0x00000012   Code   RO         3707    .text               c_w.l(exit.o)
    0x00002f70   0x00002f70   0x00000006   Code   RO         3709    .text               c_w.l(heapauxi.o)
    0x00002f76   0x00002f76   0x00000002   PAD
    0x00002f78   0x00002f78   0x0000000c   Code   RO         3767    .text               c_w.l(sys_exit.o)
    0x00002f84   0x00002f84   0x0000004a   Code   RO         3769    .text               c_w.l(sys_stackheap_outer.o)
    0x00002fce   0x00002fce   0x00000002   Code   RO         3783    .text               c_w.l(use_no_semi.o)
    0x00002fd0   0x00002fd0   0x00000000   Code   RO         3785    .text               c_w.l(indicate_semi.o)
    0x00002fd0   0x00002fd0   0x00000004   Code   RO         3695    SVC_TABLE           RTX_CM4.lib(svc_table.o)
    0x00002fd4   0x00002fd4   0x0000000a   Code   RO          574    i.ADCIntClear       driverlib.lib(adc.o)
    0x00002fde   0x00002fde   0x00000034   Code   RO          581    i.ADCIntStatus      driverlib.lib(adc.o)
    0x00003012   0x00003012   0x0000001a   Code   RO          586    i.ADCProcessorTrigger  driverlib.lib(adc.o)
    0x0000302c   0x0000302c   0x00000060   Code   RO          589    i.ADCSequenceConfigure  driverlib.lib(adc.o)
    0x0000308c   0x0000308c   0x00000024   Code   RO          592    i.ADCSequenceDataGet  driverlib.lib(adc.o)
    0x000030b0   0x000030b0   0x0000000e   Code   RO          594    i.ADCSequenceEnable  driverlib.lib(adc.o)
    0x000030be   0x000030be   0x0000009a   Code   RO          597    i.ADCSequenceStepConfigure  driverlib.lib(adc.o)
    0x00003158   0x00003158   0x00000028   Code   RO          846    i.GPIODirModeSet    driverlib.lib(gpio.o)
    0x00003180   0x00003180   0x00000138   Code   RO          858    i.GPIOPadConfigSet  driverlib.lib(gpio.o)
    0x000032b8   0x000032b8   0x00000044   Code   RO          859    i.GPIOPinConfigure  driverlib.lib(gpio.o)
    0x000032fc   0x000032fc   0x00000006   Code   RO          860    i.GPIOPinRead       driverlib.lib(gpio.o)
    0x00003302   0x00003302   0x0000001c   Code   RO          861    i.GPIOPinTypeADC    driverlib.lib(gpio.o)
    0x0000331e   0x0000331e   0x0000001c   Code   RO          869    i.GPIOPinTypeGPIOInput  driverlib.lib(gpio.o)
    0x0000333a   0x0000333a   0x0000001c   Code   RO          873    i.GPIOPinTypeI2C    driverlib.lib(gpio.o)
    0x00003356   0x00003356   0x0000001c   Code   RO          874    i.GPIOPinTypeI2CSCL  driverlib.lib(gpio.o)
    0x00003372   0x00003372   0x0000001c   Code   RO          877    i.GPIOPinTypePWM    driverlib.lib(gpio.o)
    0x0000338e   0x0000338e   0x0000001c   Code   RO          880    i.GPIOPinTypeTimer  driverlib.lib(gpio.o)
    0x000033aa   0x000033aa   0x00000202   Code   RO         2424    i.GrCircleDraw      grlib.lib(circle.o)
    0x000035ac   0x000035ac   0x00000126   Code   RO         2425    i.GrCircleFill      grlib.lib(circle.o)
    0x000036d2   0x000036d2   0x0000004c   Code   RO         3203    i.GrLineDrawH       grlib.lib(line.o)
    0x0000371e   0x0000371e   0x00000002   PAD
    0x00003720   0x00003720   0x00000060   Code   RO         1153    i.I2CIntRegister    driverlib.lib(i2c.o)
    0x00003780   0x00003780   0x00000004   Code   RO         1157    i.I2CMasterBurstLengthSet  driverlib.lib(i2c.o)
    0x00003784   0x00003784   0x0000000c   Code   RO         1158    i.I2CMasterBusBusy  driverlib.lib(i2c.o)
    0x00003790   0x00003790   0x0000000c   Code   RO         1159    i.I2CMasterBusy     driverlib.lib(i2c.o)
    0x0000379c   0x0000379c   0x00000004   Code   RO         1160    i.I2CMasterControl  driverlib.lib(i2c.o)
    0x000037a0   0x000037a0   0x00000004   Code   RO         1161    i.I2CMasterDataGet  driverlib.lib(i2c.o)
    0x000037a4   0x000037a4   0x00000004   Code   RO         1162    i.I2CMasterDataPut  driverlib.lib(i2c.o)
    0x000037a8   0x000037a8   0x0000000a   Code   RO         1164    i.I2CMasterEnable   driverlib.lib(i2c.o)
    0x000037b2   0x000037b2   0x00000018   Code   RO         1165    i.I2CMasterErr      driverlib.lib(i2c.o)
    0x000037ca   0x000037ca   0x00000002   PAD
    0x000037cc   0x000037cc   0x00000054   Code   RO         1166    i.I2CMasterGlitchFilterConfigSet  driverlib.lib(i2c.o)
    0x00003820   0x00003820   0x00000054   Code   RO         1167    i.I2CMasterInitExpClk  driverlib.lib(i2c.o)
    0x00003874   0x00003874   0x00000008   Code   RO         1168    i.I2CMasterIntClear  driverlib.lib(i2c.o)
    0x0000387c   0x0000387c   0x00000004   Code   RO         1169    i.I2CMasterIntClearEx  driverlib.lib(i2c.o)
    0x00003880   0x00003880   0x00000008   Code   RO         1173    i.I2CMasterIntEnableEx  driverlib.lib(i2c.o)
    0x00003888   0x00003888   0x00000008   Code   RO         1177    i.I2CMasterSlaveAddrSet  driverlib.lib(i2c.o)
    0x00003890   0x00003890   0x00000004   Code   RO         1178    i.I2CMasterTimeoutSet  driverlib.lib(i2c.o)
    0x00003894   0x00003894   0x00000064   Code   RO         1486    i.IntEnable         driverlib.lib(interrupt.o)
    0x000038f8   0x000038f8   0x00000034   Code   RO         1498    i.IntRegister       driverlib.lib(interrupt.o)
    0x0000392c   0x0000392c   0x00000014   Code   RO         1602    i.PWMClockSet       driverlib.lib(pwm.o)
    0x00003940   0x00003940   0x00000026   Code   RO         1609    i.PWMGenConfigure   driverlib.lib(pwm.o)
    0x00003966   0x00003966   0x0000000a   Code   RO         1610    i.PWMGenDisable     driverlib.lib(pwm.o)
    0x00003970   0x00003970   0x0000000a   Code   RO         1611    i.PWMGenEnable      driverlib.lib(pwm.o)
    0x0000397a   0x0000397a   0x00000012   Code   RO         1623    i.PWMGenPeriodGet   driverlib.lib(pwm.o)
    0x0000398c   0x0000398c   0x00000012   Code   RO         1624    i.PWMGenPeriodSet   driverlib.lib(pwm.o)
    0x0000399e   0x0000399e   0x00000010   Code   RO         1630    i.PWMOutputInvert   driverlib.lib(pwm.o)
    0x000039ae   0x000039ae   0x00000010   Code   RO         1631    i.PWMOutputState    driverlib.lib(pwm.o)
    0x000039be   0x000039be   0x00000020   Code   RO         1634    i.PWMPulseWidthSet  driverlib.lib(pwm.o)
    0x000039de   0x000039de   0x00000002   PAD
    0x000039e0   0x000039e0   0x000002ec   Code   RO         1836    i.SysCtlClockFreqSet  driverlib.lib(sysctl.o)
    0x00003ccc   0x00003ccc   0x00000028   Code   RO         1868    i.SysCtlPeripheralEnable  driverlib.lib(sysctl.o)
    0x00003cf4   0x00003cf4   0x0000002c   Code   RO         1872    i.SysCtlPeripheralReady  driverlib.lib(sysctl.o)
    0x00003d20   0x00003d20   0x0000003c   Code   RO         1873    i.SysCtlPeripheralReset  driverlib.lib(sysctl.o)
    0x00003d5c   0x00003d5c   0x00000006   Code   RO         2185    i.TimerClockSourceSet  driverlib.lib(timer.o)
    0x00003d62   0x00003d62   0x00000002   PAD
    0x00003d64   0x00003d64   0x00000060   Code   RO         2186    i.TimerConfigure    driverlib.lib(timer.o)
    0x00003dc4   0x00003dc4   0x00000016   Code   RO         2188    i.TimerControlLevel  driverlib.lib(timer.o)
    0x00003dda   0x00003dda   0x0000000e   Code   RO         2195    i.TimerEnable       driverlib.lib(timer.o)
    0x00003de8   0x00003de8   0x00000012   Code   RO         2204    i.TimerLoadSet      driverlib.lib(timer.o)
    0x00003dfa   0x00003dfa   0x00000012   Code   RO         2208    i.TimerMatchSet     driverlib.lib(timer.o)
    0x00003e0c   0x00003e0c   0x00000012   Code   RO         2213    i.TimerPrescaleSet  driverlib.lib(timer.o)
    0x00003e1e   0x00003e1e   0x0000002a   Code   RO         2217    i.TimerUpdateMode   driverlib.lib(timer.o)
    0x00003e48   0x00003e48   0x00000046   Code   RO         3579    i._init_box         RTX_CM4.lib(rt_membox.o)
    0x00003e8e   0x00003e8e   0x00000002   PAD
    0x00003e90   0x00003e90   0x00000030   Code   RO         3632    i.dbg_init          RTX_CM4.lib(hal_cm.o)
    0x00003ec0   0x00003ec0   0x00000020   Code   RO         3633    i.dbg_task_notify   RTX_CM4.lib(hal_cm.o)
    0x00003ee0   0x00003ee0   0x00000010   Code   RO         3634    i.dbg_task_switch   RTX_CM4.lib(hal_cm.o)
    0x00003ef0   0x00003ef0   0x0000002a   Code   RO         2452    i.isrMessageGet     RTX_CM4.lib(rt_cmsis.o)
    0x00003f1a   0x00003f1a   0x0000002c   Code   RO         2453    i.isrMessagePut     RTX_CM4.lib(rt_cmsis.o)
    0x00003f46   0x00003f46   0x00000002   PAD
    0x00003f48   0x00003f48   0x00000056   Code   RO         3434    i.isr_mbx_receive   RTX_CM4.lib(rt_mailbox.o)
    0x00003f9e   0x00003f9e   0x0000000e   Code   RO         3435    i.isr_mbx_send      RTX_CM4.lib(rt_mailbox.o)
    0x00003fac   0x00003fac   0x00000018   Code   RO         2456    i.osDelay           RTX_CM4.lib(rt_cmsis.o)
    0x00003fc4   0x00003fc4   0x00000024   Code   RO         2457    i.osKernelInitialize  RTX_CM4.lib(rt_cmsis.o)
    0x00003fe8   0x00003fe8   0x0000006c   Code   RO         2459    i.osKernelStart     RTX_CM4.lib(rt_cmsis.o)
    0x00004054   0x00004054   0x00000018   Code   RO         2468    i.osMessageGet      RTX_CM4.lib(rt_cmsis.o)
    0x0000406c   0x0000406c   0x0000002c   Code   RO         2470    i.osMutexCreate     RTX_CM4.lib(rt_cmsis.o)
    0x00004098   0x00004098   0x0000002c   Code   RO         2485    i.osThreadCreate    RTX_CM4.lib(rt_cmsis.o)
    0x000040c4   0x000040c4   0x00000018   Code   RO         2486    i.osThreadExit      RTX_CM4.lib(rt_cmsis.o)
    0x000040dc   0x000040dc   0x0000000c   Code   RO         2492    i.osTimerCall       RTX_CM4.lib(rt_cmsis.o)
    0x000040e8   0x000040e8   0x0000002c   Code   RO         2493    i.osTimerCreate     RTX_CM4.lib(rt_cmsis.o)
    0x00004114   0x00004114   0x00000018   Code   RO         2495    i.osTimerStart      RTX_CM4.lib(rt_cmsis.o)
    0x0000412c   0x0000412c   0x00000018   Code   RO         2496    i.osTimerStop       RTX_CM4.lib(rt_cmsis.o)
    0x00004144   0x00004144   0x0000002c   Code   RO         2497    i.osTimerThread     RTX_CM4.lib(rt_cmsis.o)
    0x00004170   0x00004170   0x00000028   Code   RO         3226    i.os_tick_init      RTX_CM4.lib(rt_system.o)
    0x00004198   0x00004198   0x00000002   Code   RO         3227    i.os_tick_irqack    RTX_CM4.lib(rt_system.o)
    0x0000419a   0x0000419a   0x0000001a   Code   RO         3580    i.rt_alloc_box      RTX_CM4.lib(rt_membox.o)
    0x000041b4   0x000041b4   0x0000003e   Code   RO         3608    i.rt_alloc_mem      RTX_CM4.lib(rt_memory.o)
    0x000041f2   0x000041f2   0x00000002   PAD
    0x000041f4   0x000041f4   0x00000038   Code   RO         3074    i.rt_block          RTX_CM4.lib(rt_task.o)
    0x0000422c   0x0000422c   0x00000048   Code   RO         3557    i.rt_chk_robin      RTX_CM4.lib(rt_robin.o)
    0x00004274   0x00004274   0x00000070   Code   RO         3358    i.rt_dec_dly        RTX_CM4.lib(rt_list.o)
    0x000042e4   0x000042e4   0x00000044   Code   RO         3075    i.rt_dispatch       RTX_CM4.lib(rt_task.o)
    0x00004328   0x00004328   0x00000006   Code   RO         3524    i.rt_dly_wait       RTX_CM4.lib(rt_time.o)
    0x0000432e   0x0000432e   0x00000002   PAD
    0x00004330   0x00004330   0x00000050   Code   RO         3319    i.rt_evt_psh        RTX_CM4.lib(rt_event.o)
    0x00004380   0x00004380   0x0000002c   Code   RO         3581    i.rt_free_box       RTX_CM4.lib(rt_membox.o)
    0x000043ac   0x000043ac   0x00000028   Code   RO         3609    i.rt_free_mem       RTX_CM4.lib(rt_memory.o)
    0x000043d4   0x000043d4   0x00000028   Code   RO         3359    i.rt_get_first      RTX_CM4.lib(rt_list.o)
    0x000043fc   0x000043fc   0x00000008   Code   RO         2502    i.rt_id2obj         RTX_CM4.lib(rt_cmsis.o)
    0x00004404   0x00004404   0x00000048   Code   RO         3076    i.rt_init_context   RTX_CM4.lib(rt_task.o)
    0x0000444c   0x0000444c   0x0000001a   Code   RO         3610    i.rt_init_mem       RTX_CM4.lib(rt_memory.o)
    0x00004466   0x00004466   0x00000002   PAD
    0x00004468   0x00004468   0x00000018   Code   RO         3558    i.rt_init_robin     RTX_CM4.lib(rt_robin.o)
    0x00004480   0x00004480   0x00000080   Code   RO         3635    i.rt_init_stack     RTX_CM4.lib(hal_cm.o)
    0x00004500   0x00004500   0x00000008   Code   RO         3436    i.rt_mbx_check      RTX_CM4.lib(rt_mailbox.o)
    0x00004508   0x00004508   0x0000001a   Code   RO         3437    i.rt_mbx_init       RTX_CM4.lib(rt_mailbox.o)
    0x00004522   0x00004522   0x00000002   PAD
    0x00004524   0x00004524   0x000000f0   Code   RO         3438    i.rt_mbx_psh        RTX_CM4.lib(rt_mailbox.o)
    0x00004614   0x00004614   0x000000b4   Code   RO         3440    i.rt_mbx_wait       RTX_CM4.lib(rt_mailbox.o)
    0x000046c8   0x000046c8   0x00000044   Code   RO         2503    i.rt_ms2tick        RTX_CM4.lib(rt_cmsis.o)
    0x0000470c   0x0000470c   0x00000010   Code   RO         3159    i.rt_mut_init       RTX_CM4.lib(rt_mutex.o)
    0x0000471c   0x0000471c   0x000000d8   Code   RO         3160    i.rt_mut_release    RTX_CM4.lib(rt_mutex.o)
    0x000047f4   0x000047f4   0x00000078   Code   RO         3161    i.rt_mut_wait       RTX_CM4.lib(rt_mutex.o)
    0x0000486c   0x0000486c   0x0000007c   Code   RO         3230    i.rt_pop_req        RTX_CM4.lib(rt_system.o)
    0x000048e8   0x000048e8   0x00000020   Code   RO         3231    i.rt_psh_req        RTX_CM4.lib(rt_system.o)
    0x00004908   0x00004908   0x0000005c   Code   RO         3361    i.rt_psq_enq        RTX_CM4.lib(rt_list.o)
    0x00004964   0x00004964   0x00000048   Code   RO         3362    i.rt_put_dly        RTX_CM4.lib(rt_list.o)
    0x000049ac   0x000049ac   0x00000036   Code   RO         3363    i.rt_put_prio       RTX_CM4.lib(rt_list.o)
    0x000049e2   0x000049e2   0x00000002   PAD
    0x000049e4   0x000049e4   0x00000014   Code   RO         3364    i.rt_put_rdy_first  RTX_CM4.lib(rt_list.o)
    0x000049f8   0x000049f8   0x00000034   Code   RO         3365    i.rt_resort_prio    RTX_CM4.lib(rt_list.o)
    0x00004a2c   0x00004a2c   0x00000010   Code   RO         3636    i.rt_ret_regs       RTX_CM4.lib(hal_cm.o)
    0x00004a3c   0x00004a3c   0x0000000c   Code   RO         3637    i.rt_ret_val        RTX_CM4.lib(hal_cm.o)
    0x00004a48   0x00004a48   0x00000010   Code   RO         3638    i.rt_ret_val2       RTX_CM4.lib(hal_cm.o)
    0x00004a58   0x00004a58   0x00000028   Code   RO         3366    i.rt_rmv_dly        RTX_CM4.lib(rt_list.o)
    0x00004a80   0x00004a80   0x00000030   Code   RO         3367    i.rt_rmv_list       RTX_CM4.lib(rt_list.o)
    0x00004ab0   0x00004ab0   0x00000034   Code   RO         3485    i.rt_sem_psh        RTX_CM4.lib(rt_semaphore.o)
    0x00004ae4   0x00004ae4   0x00000024   Code   RO         3233    i.rt_stk_check      RTX_CM4.lib(rt_system.o)
    0x00004b08   0x00004b08   0x00000028   Code   RO         3077    i.rt_switch_req     RTX_CM4.lib(rt_task.o)
    0x00004b30   0x00004b30   0x000000cc   Code   RO         3078    i.rt_sys_init       RTX_CM4.lib(rt_task.o)
    0x00004bfc   0x00004bfc   0x00000078   Code   RO         3079    i.rt_sys_start      RTX_CM4.lib(rt_task.o)
    0x00004c74   0x00004c74   0x00000040   Code   RO         3235    i.rt_systick        RTX_CM4.lib(rt_system.o)
    0x00004cb4   0x00004cb4   0x00000012   Code   RO         2504    i.rt_tid2ptcb       RTX_CM4.lib(rt_cmsis.o)
    0x00004cc6   0x00004cc6   0x00000002   PAD
    0x00004cc8   0x00004cc8   0x00000034   Code   RO         2505    i.rt_timer_insert   RTX_CM4.lib(rt_cmsis.o)
    0x00004cfc   0x00004cfc   0x0000003c   Code   RO         2506    i.rt_timer_remove   RTX_CM4.lib(rt_cmsis.o)
    0x00004d38   0x00004d38   0x00000088   Code   RO         3080    i.rt_tsk_create     RTX_CM4.lib(rt_task.o)
    0x00004dc0   0x00004dc0   0x0000017c   Code   RO         3081    i.rt_tsk_delete     RTX_CM4.lib(rt_task.o)
    0x00004f3c   0x00004f3c   0x0000007c   Code   RO         3083    i.rt_tsk_prio       RTX_CM4.lib(rt_task.o)
    0x00004fb8   0x00004fb8   0x00000010   Code   RO         3084    i.rt_tsk_self       RTX_CM4.lib(rt_task.o)
    0x00004fc8   0x00004fc8   0x00000012   Code   RO         2507    i.svcDelay          RTX_CM4.lib(rt_cmsis.o)
    0x00004fda   0x00004fda   0x00000002   PAD
    0x00004fdc   0x00004fdc   0x00000070   Code   RO         2508    i.svcKernelInitialize  RTX_CM4.lib(rt_cmsis.o)
    0x0000504c   0x0000504c   0x00000048   Code   RO         2510    i.svcKernelStart    RTX_CM4.lib(rt_cmsis.o)
    0x00005094   0x00005094   0x00000024   Code   RO         2513    i.svcMessageCreate  RTX_CM4.lib(rt_cmsis.o)
    0x000050b8   0x000050b8   0x0000003a   Code   RO         2514    i.svcMessageGet     RTX_CM4.lib(rt_cmsis.o)
    0x000050f2   0x000050f2   0x0000001c   Code   RO         2516    i.svcMutexCreate    RTX_CM4.lib(rt_cmsis.o)
    0x0000510e   0x0000510e   0x00000002   PAD
    0x00005110   0x00005110   0x0000006c   Code   RO         2528    i.svcThreadCreate   RTX_CM4.lib(rt_cmsis.o)
    0x0000517c   0x0000517c   0x0000001c   Code   RO         2529    i.svcThreadGetId    RTX_CM4.lib(rt_cmsis.o)
    0x00005198   0x00005198   0x00000038   Code   RO         2532    i.svcThreadTerminate  RTX_CM4.lib(rt_cmsis.o)
    0x000051d0   0x000051d0   0x00000018   Code   RO         2534    i.svcTimerCall      RTX_CM4.lib(rt_cmsis.o)
    0x000051e8   0x000051e8   0x00000038   Code   RO         2535    i.svcTimerCreate    RTX_CM4.lib(rt_cmsis.o)
    0x00005220   0x00005220   0x00000064   Code   RO         2537    i.svcTimerStart     RTX_CM4.lib(rt_cmsis.o)
    0x00005284   0x00005284   0x00000024   Code   RO         2538    i.svcTimerStop      RTX_CM4.lib(rt_cmsis.o)
    0x000052a8   0x000052a8   0x0000005c   Code   RO         2543    i.sysTimerTick      RTX_CM4.lib(rt_cmsis.o)
    0x00005304   0x00005304   0x00000150   Code   RO         3713    x$fpl$dadd          fz_wm.l(daddsub_clz.o)
    0x00005454   0x00005454   0x0000005a   Code   RO         3719    x$fpl$dfixu         fz_wm.l(dfixu.o)
    0x000054ae   0x000054ae   0x00000026   Code   RO         3723    x$fpl$dfltu         fz_wm.l(dflt_clz.o)
    0x000054d4   0x000054d4   0x00000154   Code   RO         3729    x$fpl$dmul          fz_wm.l(dmul.o)
    0x00005628   0x00005628   0x0000009c   Code   RO         3738    x$fpl$dnaninf       fz_wm.l(dnaninf.o)
    0x000056c4   0x000056c4   0x0000000c   Code   RO         3740    x$fpl$dretinf       fz_wm.l(dretinf.o)
    0x000056d0   0x000056d0   0x000001d4   Code   RO         3715    x$fpl$dsub          fz_wm.l(daddsub_clz.o)
    0x000058a4   0x000058a4   0x0000000a   Code   RO         3859    x$fpl$fpinit        fz_wm.l(fpinit.o)
    0x000058ae   0x000058ae   0x00000000   Code   RO         3742    x$fpl$usenofp       fz_wm.l(usenofp.o)
    0x000058ae   0x000058ae   0x00000002   PAD
    0x000058b0   0x000058b0   0x00000034   Data   RO           11    .constdata          exemplotiva.o
    0x000058e4   0x000058e4   0x0000c036   Data   RO          141    .constdata          background.o
    0x0001191a   0x0001191a   0x00000002   PAD
    0x0001191c   0x0001191c   0x00000004   Data   RO          143    .constdata          background.o
    0x00011920   0x00011920   0x00000056   Data   RO          154    .constdata          inimigo.o
    0x00011976   0x00011976   0x00000002   PAD
    0x00011978   0x00011978   0x00000004   Data   RO          156    .constdata          inimigo.o
    0x0001197c   0x0001197c   0x00000092   Data   RO          167    .constdata          boss.o
    0x00011a0e   0x00011a0e   0x00000002   PAD
    0x00011a10   0x00011a10   0x00000004   Data   RO          169    .constdata          boss.o
    0x00011a14   0x00011a14   0x00000056   Data   RO          180    .constdata          point.o
    0x00011a6a   0x00011a6a   0x00000002   PAD
    0x00011a6c   0x00011a6c   0x00000004   Data   RO          182    .constdata          point.o
    0x00011a70   0x00011a70   0x0000003c   Data   RO          193    .constdata          key.o
    0x00011aac   0x00011aac   0x00000004   Data   RO          195    .constdata          key.o
    0x00011ab0   0x00011ab0   0x0000c00f   Data   RO          206    .constdata          background2.o
    0x0001dabf   0x0001dabf   0x00000001   PAD
    0x0001dac0   0x0001dac0   0x00000004   Data   RO          208    .constdata          background2.o
    0x0001dac4   0x0001dac4   0x00000010   Data   RO          331    .constdata          led.o
    0x0001dad4   0x0001dad4   0x00000174   Data   RO          459    .constdata          eddiev3.o
    0x0001dc48   0x0001dc48   0x00000004   Data   RO          461    .constdata          eddiev3.o
    0x0001dc4c   0x0001dc4c   0x00000002   Data   RO          481    .constdata          rtx_conf_cm.o
    0x0001dc4e   0x0001dc4e   0x00000002   PAD
    0x0001dc50   0x0001dc50   0x00000004   Data   RO          482    .constdata          rtx_conf_cm.o
    0x0001dc54   0x0001dc54   0x00000004   Data   RO          483    .constdata          rtx_conf_cm.o
    0x0001dc58   0x0001dc58   0x00000004   Data   RO          487    .constdata          rtx_conf_cm.o
    0x0001dc5c   0x0001dc5c   0x00000001   Data   RO          488    .constdata          rtx_conf_cm.o
    0x0001dc5d   0x0001dc5d   0x00000003   PAD
    0x0001dc60   0x0001dc60   0x00000010   Data   RO          489    .constdata          rtx_conf_cm.o
    0x0001dc70   0x0001dc70   0x00000002   Data   RO          490    .constdata          rtx_conf_cm.o
    0x0001dc72   0x0001dc72   0x00000002   PAD
    0x0001dc74   0x0001dc74   0x00000004   Data   RO          491    .constdata          rtx_conf_cm.o
    0x0001dc78   0x0001dc78   0x00000004   Data   RO          492    .constdata          rtx_conf_cm.o
    0x0001dc7c   0x0001dc7c   0x00000001   Data   RO          493    .constdata          rtx_conf_cm.o
    0x0001dc7d   0x0001dc7d   0x00000003   PAD
    0x0001dc80   0x0001dc80   0x00000010   Data   RO          494    .constdata          rtx_conf_cm.o
    0x0001dc90   0x0001dc90   0x00000008   Data   RO          495    .constdata          rtx_conf_cm.o
    0x0001dc98   0x0001dc98   0x00000002   Data   RO          496    .constdata          rtx_conf_cm.o
    0x0001dc9a   0x0001dc9a   0x00000002   PAD
    0x0001dc9c   0x0001dc9c   0x00000010   Data   RO          497    .constdata          rtx_conf_cm.o
    0x0001dcac   0x0001dcac   0x00000228   Data   RO          890    .constdata          driverlib.lib(gpio.o)
    0x0001ded4   0x0001ded4   0x00000080   Data   RO         1202    .constdata          driverlib.lib(i2c.o)
    0x0001df54   0x0001df54   0x0000010c   Data   RO         1502    .constdata          driverlib.lib(interrupt.o)
    0x0001e060   0x0001e060   0x00000254   Data   RO         1890    .constdata          driverlib.lib(sysctl.o)
    0x0001e2b4   0x0001e2b4   0x00000025   Data   RO           12    .conststring        exemplotiva.o
    0x0001e2d9   0x0001e2d9   0x00000003   PAD
    0x0001e2dc   0x0001e2dc   0x00000020   Data   RO         3893    Region$$Table       anon$$obj.o


    Execution Region RW_IRAM1 (Exec base: 0x20000000, Load base: 0x0001e2fc, Size: 0x00002db0, Max: 0x00040000, ABSOLUTE, COMPRESSED[0x00000018])

    Exec Addr    Load Addr    Size         Type   Attr      Idx    E Section Name        Object

    0x20000000   COMPRESSED   0x00000054   Data   RW           13    .data               exemplotiva.o
    0x20000054   COMPRESSED   0x0000000c   Data   RW          220    .data               buzzer.o
    0x20000060   COMPRESSED   0x00000008   Data   RW          304    .data               cfaf128x128x16.o
    0x20000068   COMPRESSED   0x0000000c   Data   RW          370    .data               opt.o
    0x20000074   COMPRESSED   0x00000008   Data   RW          399    .data               rgb.o
    0x2000007c   COMPRESSED   0x00000008   Data   RW          413    .data               servo.o
    0x20000084   COMPRESSED   0x0000000c   Data   RW          442    .data               temp.o
    0x20000090   COMPRESSED   0x00000004   Data   RW          499    .data               rtx_conf_cm.o
    0x20000094   COMPRESSED   0x00000004   Data   RW          500    .data               rtx_conf_cm.o
    0x20000098   COMPRESSED   0x00000004   Data   RW          501    .data               rtx_conf_cm.o
    0x2000009c   COMPRESSED   0x00000004   Data   RW          502    .data               rtx_conf_cm.o
    0x200000a0   COMPRESSED   0x00000004   Data   RW          537    .data               system_tm4c129.o
    0x200000a4   COMPRESSED   0x00000008   Data   RW         2546    .data               RTX_CM4.lib(rt_cmsis.o)
    0x200000ac   COMPRESSED   0x00000008   Data   RW         3086    .data               RTX_CM4.lib(rt_task.o)
    0x200000b4   COMPRESSED   0x00000008   Data   RW         3238    .data               RTX_CM4.lib(rt_system.o)
    0x200000bc   COMPRESSED   0x00000004   Data   RW         3528    .data               RTX_CM4.lib(rt_time.o)
    0x200000c0   COMPRESSED   0x00000008   Data   RW         3559    .data               RTX_CM4.lib(rt_robin.o)
    0x200000c8   COMPRESSED   0x00000001   Data   RW         3639    .data               RTX_CM4.lib(hal_cm.o)
    0x200000c9   COMPRESSED   0x00000337   PAD
    0x20000400   COMPRESSED   0x0000026c   Data   RW         1503    vtable              driverlib.lib(interrupt.o)
    0x2000066c        -       0x00000010   Zero   RW            5    .bss                exemplotiva.o
    0x2000067c        -       0x0000006c   Zero   RW            6    .bss                exemplotiva.o
    0x200006e8        -       0x00000018   Zero   RW            7    .bss                exemplotiva.o
    0x20000700        -       0x00000018   Zero   RW            8    .bss                exemplotiva.o
    0x20000718        -       0x00000018   Zero   RW            9    .bss                exemplotiva.o
    0x20000730        -       0x00000018   Zero   RW           10    .bss                exemplotiva.o
    0x20000748        -       0x00000020   Zero   RW          474    .bss                rtx_conf_cm.o
    0x20000768        -       0x000001e0   Zero   RW          475    .bss                rtx_conf_cm.o
    0x20000948        -       0x00001910   Zero   RW          476    .bss                rtx_conf_cm.o
    0x20002258        -       0x00000408   Zero   RW          477    .bss                rtx_conf_cm.o
    0x20002660        -       0x00000084   Zero   RW          478    .bss                rtx_conf_cm.o
    0x200026e4        -       0x00000024   Zero   RW          479    .bss                rtx_conf_cm.o
    0x20002708        -       0x000003e0   Zero   RW          480    .bss                rtx_conf_cm.o
    0x20002ae8        -       0x00000034   Zero   RW         3085    .bss                RTX_CM4.lib(rt_task.o)
    0x20002b1c        -       0x00000030   Zero   RW         3368    .bss                RTX_CM4.lib(rt_list.o)
    0x20002b4c        -       0x00000060   Zero   RW         3701    .bss                c_w.l(libspace.o)
    0x20002bac   COMPRESSED   0x00000004   PAD
    0x20002bb0        -       0x00000000   Zero   RW          527    HEAP                startup_tm4c129.o
    0x20002bb0        -       0x00000200   Zero   RW          526    STACK               startup_tm4c129.o


==============================================================================

Image component sizes


      Code (inc. data)   RO Data    RW Data    ZI Data      Debug   Object Name

       164         18          0          0          0       1220   accel.o
         0          0      49210          0          0       1001   background.o
         0          0      49171          0          0       1018   background2.o
         0          0        150          0          0        895   boss.o
        92         10          0          0          0        940   buttons.o
       340         36          0         12          0       2493   buzzer.o
      1788         94          0          8          0      10910   cfaf128x128x16.o
         0          0        376          0          0        920   eddiev3.o
      3616        130         89         84        220      51339   exemplotiva.o
         0          0         90          0          0        942   inimigo.o
       208         22          0          0          0       1301   joy.o
         0          0         64          0          0        874   key.o
       284         34         16          0          0       1955   led.o
       148         18          0          0          0        980   mic.o
      1392         74          0         12          0       5369   opt.o
         0          0         90          0          0        908   point.o
       596         42          0          8          0       2037   rgb.o
       168         36         84         16       9120       9141   rtx_conf_cm.o
       228         38          0          8          0       1069   servo.o
       300         22        512          0        512       6096   startup_tm4c129.o
        40         14          0          4          0       1021   system_tm4c129.o
      1316         62          0         12          0       5208   temp.o

    ----------------------------------------------------------------------
     10680        650      99908        164       9852     107637   Object Totals
         0          0         32          0          0          0   (incl. Generated)
         0          0         24          0          0          0   (incl. Padding)

    ----------------------------------------------------------------------

      Code (inc. data)   RO Data    RW Data    ZI Data      Debug   Library Member Name

       268         24          0          1          0       4472   hal_cm.o
       408         34          0          0          0        816   hal_cm4.o
      1568        184          0          8          0      42159   rt_cmsis.o
        80          4          0          0          0        701   rt_event.o
       530         34          0          0         48       8601   rt_list.o
       554         10          0          0          0       4189   rt_mailbox.o
       140          0          0          0          0       2045   rt_membox.o
       128          0          0          0          0       2419   rt_memory.o
       352         14          0          0          0       2229   rt_mutex.o
        96         22          0          8          0       1230   rt_robin.o
        52          4          0          0          0        613   rt_semaphore.o
       298         52          0          8          0       6439   rt_system.o
      1216        174          0          8         52      10045   rt_task.o
         6          0          0          4          0        692   rt_time.o
         4          4          0          0          0        200   svc_table.o
        58          0          0          0          0          0   __dczerorl.o
         8          0          0          0          0         68   __main.o
         0          0          0          0          0          0   __rtentry.o
        20          0          0          0          0          0   __rtentry2.o
         6          0          0          0          0          0   __rtentry4.o
        52          8          0          0          0          0   __scatter.o
        28          0          0          0          0          0   __scatter_zi.o
        18          0          0          0          0         80   exit.o
         6          0          0          0          0        152   heapauxi.o
         0          0          0          0          0          0   indicate_semi.o
         2          0          0          0          0          0   libinit.o
         6          0          0          0          0          0   libinit2.o
         2          0          0          0          0          0   libshutdown.o
         2          0          0          0          0          0   libshutdown2.o
         8          4          0          0         96         68   libspace.o
        72          0          0          0          0         76   llsdiv.o
       238          0          0          0          0        100   lludivv7m.o
         2          0          0          0          0          0   rtexit.o
        10          0          0          0          0          0   rtexit2.o
        12          4          0          0          0         68   sys_exit.o
        74          0          0          0          0         80   sys_stackheap_outer.o
         2          0          0          0          0         68   use_no_semi.o
       388          0          0          0          0       8694   adc.o
       594          8        552          0          0       7550   gpio.o
       370         38        128          0          0      10349   i2c.o
       152         16        268        620          0       2298   interrupt.o
       178          0          0          0          0       5153   pwm.o
       898         54        596          0          0       6458   sysctl.o
       234          8          0          0          0       4761   timer.o
       804         16          0          0          0        368   daddsub_clz.o
        90          4          0          0          0        140   dfixu.o
        38          0          0          0          0        116   dflt_clz.o
       340         12          0          0          0        152   dmul.o
       156          4          0          0          0        140   dnaninf.o
        12          0          0          0          0        116   dretinf.o
        10          0          0          0          0        116   fpinit.o
         0          0          0          0          0          0   usenofp.o
       808          0          0          0          0      28562   circle.o
        76          0          0          0          0       1522   line.o

    ----------------------------------------------------------------------
     11512        736       1544       1480        200     164105   Library Totals
        38          0          0        823          4          0   (incl. Padding)

    ----------------------------------------------------------------------

      Code (inc. data)   RO Data    RW Data    ZI Data      Debug   Library Name

      5700        560          0         37        100      86850   RTX_CM4.lib
       626         16          0          0         96        760   c_w.l
      2814        124       1544        620          0      45263   driverlib.lib
      1450         36          0          0          0       1148   fz_wm.l
       884          0          0          0          0      30084   grlib.lib

    ----------------------------------------------------------------------
     11512        736       1544       1480        200     164105   Library Totals

    ----------------------------------------------------------------------

==============================================================================


      Code (inc. data)   RO Data    RW Data    ZI Data      Debug   

     22192       1386     101452       1644      10052     254882   Grand Totals
     22192       1386     101452         24      10052     254882   ELF Image Totals (compressed)
     22192       1386     101452         24          0          0   ROM Totals

==============================================================================

    Total RO  Size (Code + RO Data)               123644 ( 120.75kB)
    Total RW  Size (RW Data + ZI Data)             11696 (  11.42kB)
    Total ROM Size (Code + RO Data + RW Data)     123668 ( 120.77kB)

==============================================================================

